GAS LISTING /tmp/ccmHLkr5.s 			page 1


   1              		.file	"strbase.cpp"
   2              		.text
   3              	.Ltext0:
   5              	_Z41__static_initialization_and_destruction_0ii:
   6              	.LVL0:
   7              	.LFB1828:
   8              		.file 1 "Src/strbase.cpp"
   1:Src/strbase.cpp **** #include "strbase.hpp"
   2:Src/strbase.cpp **** 
   3:Src/strbase.cpp **** namespace translator
   4:Src/strbase.cpp **** {
   5:Src/strbase.cpp **** 
   6:Src/strbase.cpp ****     using namespace std;
   7:Src/strbase.cpp **** 
   8:Src/strbase.cpp ****     //generate checksum for char array
   9:Src/strbase.cpp ****     checksum_t genCheckSum(const char* c)
  10:Src/strbase.cpp ****     {
  11:Src/strbase.cpp ****         checksum_t ret = 0;
  12:Src/strbase.cpp ****         uint8_t len = c[0] & LEN_MASK;
  13:Src/strbase.cpp ****         // cout << "len: " << (int)len << endl;
  14:Src/strbase.cpp ****         // for(int i = 0; i < len + 3; i++)
  15:Src/strbase.cpp ****         // {
  16:Src/strbase.cpp ****         //     cout << (int)c[i];
  17:Src/strbase.cpp ****         // }
  18:Src/strbase.cpp ****         // cout << endl;
  19:Src/strbase.cpp ****         for(uint8_t i = 0; i < len; i++)
  20:Src/strbase.cpp ****         {
  21:Src/strbase.cpp ****             ret |= (c[3 + i]) << (8 * ((i % 2) == 1));
  22:Src/strbase.cpp ****             // cout << "\nAdding: " << (int)c[3 + i] << endl;
  23:Src/strbase.cpp ****         }
  24:Src/strbase.cpp ****         return ret;
  25:Src/strbase.cpp ****     }
  26:Src/strbase.cpp **** 
  27:Src/strbase.cpp ****     //checks if string c contains char cc
  28:Src/strbase.cpp ****     bool contains(char *c, const char cc)
  29:Src/strbase.cpp ****     {
  30:Src/strbase.cpp ****         while(*c)
  31:Src/strbase.cpp ****         {
  32:Src/strbase.cpp ****             if(*c == cc)
  33:Src/strbase.cpp ****                 return true;
  34:Src/strbase.cpp ****             c++;
  35:Src/strbase.cpp ****         }
  36:Src/strbase.cpp ****         return false;
  37:Src/strbase.cpp ****     }
  38:Src/strbase.cpp **** 
  39:Src/strbase.cpp ****     //get first char, matching cc from string c
  40:Src/strbase.cpp ****     STR_LEN_DTYPE charAt(char *c, const char cc)
  41:Src/strbase.cpp ****     {
  42:Src/strbase.cpp ****         STR_LEN_DTYPE i = 0;
  43:Src/strbase.cpp ****         while(c[i])
  44:Src/strbase.cpp ****         {
  45:Src/strbase.cpp ****             if(c[i] == cc)
  46:Src/strbase.cpp ****                 return i;
  47:Src/strbase.cpp ****             i++;
  48:Src/strbase.cpp ****         }
  49:Src/strbase.cpp ****         return str_NAN;
  50:Src/strbase.cpp ****     }
GAS LISTING /tmp/ccmHLkr5.s 			page 2


  51:Src/strbase.cpp **** 
  52:Src/strbase.cpp ****     //get last char, matching cc from string c
  53:Src/strbase.cpp ****     STR_LEN_DTYPE lastCharAt(char *c, const char cc)
  54:Src/strbase.cpp ****     {
  55:Src/strbase.cpp ****         bool contains = false;
  56:Src/strbase.cpp ****         STR_LEN_DTYPE i = 0;
  57:Src/strbase.cpp ****         while(c[i])
  58:Src/strbase.cpp ****         {
  59:Src/strbase.cpp ****             if(c[i] == cc)
  60:Src/strbase.cpp ****                 contains = true;
  61:Src/strbase.cpp ****             i++;
  62:Src/strbase.cpp ****         }
  63:Src/strbase.cpp ****         if(contains)
  64:Src/strbase.cpp ****             return i - 1;
  65:Src/strbase.cpp ****         else
  66:Src/strbase.cpp ****             return str_NAN;
  67:Src/strbase.cpp ****     }
  68:Src/strbase.cpp **** 
  69:Src/strbase.cpp **** 
  70:Src/strbase.cpp ****     //check if c1 equals to c2
  71:Src/strbase.cpp ****     bool equals(char *c1, char *c2)
  72:Src/strbase.cpp ****     {
  73:Src/strbase.cpp ****         if(c1 == c2)
  74:Src/strbase.cpp ****             return true;
  75:Src/strbase.cpp ****         STR_LEN_DTYPE i = 0;
  76:Src/strbase.cpp ****         while (c1[i] && c2[i] && c1[i] == c2[i])
  77:Src/strbase.cpp ****         {
  78:Src/strbase.cpp ****             i++;
  79:Src/strbase.cpp ****         }
  80:Src/strbase.cpp ****         return (c1[i] == 0 && c2[i] == 0);
  81:Src/strbase.cpp ****     }
  82:Src/strbase.cpp **** 
  83:Src/strbase.cpp **** 
  84:Src/strbase.cpp ****     //get substr from 'start'
  85:Src/strbase.cpp ****     void substr(char *from, char *to, STR_LEN_DTYPE start)
  86:Src/strbase.cpp ****     {
  87:Src/strbase.cpp ****         from += start;
  88:Src/strbase.cpp ****         while(*from)
  89:Src/strbase.cpp ****         {
  90:Src/strbase.cpp ****             *to = *from;
  91:Src/strbase.cpp ****             from++;
  92:Src/strbase.cpp ****             to++;
  93:Src/strbase.cpp ****         }
  94:Src/strbase.cpp ****         *to = '\0';
  95:Src/strbase.cpp ****     }
  96:Src/strbase.cpp **** 
  97:Src/strbase.cpp ****     //get substr between 'start' and 'end'
  98:Src/strbase.cpp ****     void substr(char *from, char *to, STR_LEN_DTYPE start, STR_LEN_DTYPE end)
  99:Src/strbase.cpp ****     {
 100:Src/strbase.cpp ****         from += start;
 101:Src/strbase.cpp ****         end -= start;
 102:Src/strbase.cpp ****         end++;
 103:Src/strbase.cpp ****         while(*from && end)
 104:Src/strbase.cpp ****         {
 105:Src/strbase.cpp ****             *to = *from;
 106:Src/strbase.cpp ****             from++;
 107:Src/strbase.cpp ****             to++;
GAS LISTING /tmp/ccmHLkr5.s 			page 3


 108:Src/strbase.cpp ****             end--;
 109:Src/strbase.cpp ****         }
 110:Src/strbase.cpp ****         *to = '\0';
 111:Src/strbase.cpp ****     }
 112:Src/strbase.cpp **** 
 113:Src/strbase.cpp ****     //get substring between chars 'sym'
 114:Src/strbase.cpp ****     void split(char *from, char *to, char sym)
 115:Src/strbase.cpp ****     {
 116:Src/strbase.cpp ****         STR_LEN_DTYPE   start = charAt(from, sym),
 117:Src/strbase.cpp ****                         end = lastCharAt(from, sym);
 118:Src/strbase.cpp ****         if(start == end)
 119:Src/strbase.cpp ****             return;
 120:Src/strbase.cpp ****         start++;
 121:Src/strbase.cpp ****         end--;
 122:Src/strbase.cpp **** 
 123:Src/strbase.cpp ****         substr(from, to, start, end);
 124:Src/strbase.cpp ****     }
 125:Src/strbase.cpp **** 
 126:Src/strbase.cpp **** 
 127:Src/strbase.cpp ****     //parse cmd from string |cmd| and call it from funcArr
 128:Src/strbase.cpp ****     void parseCmd(char *from, char** names, void (*funcArr [])())
 129:Src/strbase.cpp ****     {
 130:Src/strbase.cpp **** 
 131:Src/strbase.cpp ****     }
 132:Src/strbase.cpp **** }
   9              		.loc 1 132 1 view -0
  10              		.cfi_startproc
  11              		.loc 1 132 1 is_stmt 0 view .LVU1
  12 0000 83FF01   		cmpl	$1, %edi
  13 0003 7401     		je	.L7
  14              	.L4:
  15 0005 C3       		ret
  16              	.L7:
  17              		.loc 1 132 1 discriminator 1 view .LVU2
  18 0006 81FEFFFF 		cmpl	$65535, %esi
  18      0000
  19 000c 75F7     		jne	.L4
  20              		.loc 1 132 1 view .LVU3
  21 000e 4883EC08 		subq	$8, %rsp
  22              		.cfi_def_cfa_offset 16
  23              		.file 2 "/usr/include/c++/9.1.0/iostream"
   1:/usr/include/c++/9.1.0/iostream **** // Standard iostream objects -*- C++ -*-
   2:/usr/include/c++/9.1.0/iostream **** 
   3:/usr/include/c++/9.1.0/iostream **** // Copyright (C) 1997-2019 Free Software Foundation, Inc.
   4:/usr/include/c++/9.1.0/iostream **** //
   5:/usr/include/c++/9.1.0/iostream **** // This file is part of the GNU ISO C++ Library.  This library is free
   6:/usr/include/c++/9.1.0/iostream **** // software; you can redistribute it and/or modify it under the
   7:/usr/include/c++/9.1.0/iostream **** // terms of the GNU General Public License as published by the
   8:/usr/include/c++/9.1.0/iostream **** // Free Software Foundation; either version 3, or (at your option)
   9:/usr/include/c++/9.1.0/iostream **** // any later version.
  10:/usr/include/c++/9.1.0/iostream **** 
  11:/usr/include/c++/9.1.0/iostream **** // This library is distributed in the hope that it will be useful,
  12:/usr/include/c++/9.1.0/iostream **** // but WITHOUT ANY WARRANTY; without even the implied warranty of
  13:/usr/include/c++/9.1.0/iostream **** // MERCHANTABILITY or FITNESS FOR A PARTICULAR PURPOSE.  See the
  14:/usr/include/c++/9.1.0/iostream **** // GNU General Public License for more details.
  15:/usr/include/c++/9.1.0/iostream **** 
  16:/usr/include/c++/9.1.0/iostream **** // Under Section 7 of GPL version 3, you are granted additional
GAS LISTING /tmp/ccmHLkr5.s 			page 4


  17:/usr/include/c++/9.1.0/iostream **** // permissions described in the GCC Runtime Library Exception, version
  18:/usr/include/c++/9.1.0/iostream **** // 3.1, as published by the Free Software Foundation.
  19:/usr/include/c++/9.1.0/iostream **** 
  20:/usr/include/c++/9.1.0/iostream **** // You should have received a copy of the GNU General Public License and
  21:/usr/include/c++/9.1.0/iostream **** // a copy of the GCC Runtime Library Exception along with this program;
  22:/usr/include/c++/9.1.0/iostream **** // see the files COPYING3 and COPYING.RUNTIME respectively.  If not, see
  23:/usr/include/c++/9.1.0/iostream **** // <http://www.gnu.org/licenses/>.
  24:/usr/include/c++/9.1.0/iostream **** 
  25:/usr/include/c++/9.1.0/iostream **** /** @file include/iostream
  26:/usr/include/c++/9.1.0/iostream ****  *  This is a Standard C++ Library header.
  27:/usr/include/c++/9.1.0/iostream ****  */
  28:/usr/include/c++/9.1.0/iostream **** 
  29:/usr/include/c++/9.1.0/iostream **** //
  30:/usr/include/c++/9.1.0/iostream **** // ISO C++ 14882: 27.3  Standard iostream objects
  31:/usr/include/c++/9.1.0/iostream **** //
  32:/usr/include/c++/9.1.0/iostream **** 
  33:/usr/include/c++/9.1.0/iostream **** #ifndef _GLIBCXX_IOSTREAM
  34:/usr/include/c++/9.1.0/iostream **** #define _GLIBCXX_IOSTREAM 1
  35:/usr/include/c++/9.1.0/iostream **** 
  36:/usr/include/c++/9.1.0/iostream **** #pragma GCC system_header
  37:/usr/include/c++/9.1.0/iostream **** 
  38:/usr/include/c++/9.1.0/iostream **** #include <bits/c++config.h>
  39:/usr/include/c++/9.1.0/iostream **** #include <ostream>
  40:/usr/include/c++/9.1.0/iostream **** #include <istream>
  41:/usr/include/c++/9.1.0/iostream **** 
  42:/usr/include/c++/9.1.0/iostream **** namespace std _GLIBCXX_VISIBILITY(default)
  43:/usr/include/c++/9.1.0/iostream **** {
  44:/usr/include/c++/9.1.0/iostream **** _GLIBCXX_BEGIN_NAMESPACE_VERSION
  45:/usr/include/c++/9.1.0/iostream **** 
  46:/usr/include/c++/9.1.0/iostream ****   /**
  47:/usr/include/c++/9.1.0/iostream ****    *  @name Standard Stream Objects
  48:/usr/include/c++/9.1.0/iostream ****    *
  49:/usr/include/c++/9.1.0/iostream ****    *  The &lt;iostream&gt; header declares the eight <em>standard stream
  50:/usr/include/c++/9.1.0/iostream ****    *  objects</em>.  For other declarations, see
  51:/usr/include/c++/9.1.0/iostream ****    *  http://gcc.gnu.org/onlinedocs/libstdc++/manual/io.html
  52:/usr/include/c++/9.1.0/iostream ****    *  and the @link iosfwd I/O forward declarations @endlink
  53:/usr/include/c++/9.1.0/iostream ****    *
  54:/usr/include/c++/9.1.0/iostream ****    *  They are required by default to cooperate with the global C
  55:/usr/include/c++/9.1.0/iostream ****    *  library's @c FILE streams, and to be available during program
  56:/usr/include/c++/9.1.0/iostream ****    *  startup and termination. For more information, see the section of the
  57:/usr/include/c++/9.1.0/iostream ****    *  manual linked to above.
  58:/usr/include/c++/9.1.0/iostream ****   */
  59:/usr/include/c++/9.1.0/iostream ****   //@{
  60:/usr/include/c++/9.1.0/iostream ****   extern istream cin;		/// Linked to standard input
  61:/usr/include/c++/9.1.0/iostream ****   extern ostream cout;		/// Linked to standard output
  62:/usr/include/c++/9.1.0/iostream ****   extern ostream cerr;		/// Linked to standard error (unbuffered)
  63:/usr/include/c++/9.1.0/iostream ****   extern ostream clog;		/// Linked to standard error (buffered)
  64:/usr/include/c++/9.1.0/iostream **** 
  65:/usr/include/c++/9.1.0/iostream **** #ifdef _GLIBCXX_USE_WCHAR_T
  66:/usr/include/c++/9.1.0/iostream ****   extern wistream wcin;		/// Linked to standard input
  67:/usr/include/c++/9.1.0/iostream ****   extern wostream wcout;	/// Linked to standard output
  68:/usr/include/c++/9.1.0/iostream ****   extern wostream wcerr;	/// Linked to standard error (unbuffered)
  69:/usr/include/c++/9.1.0/iostream ****   extern wostream wclog;	/// Linked to standard error (buffered)
  70:/usr/include/c++/9.1.0/iostream **** #endif
  71:/usr/include/c++/9.1.0/iostream ****   //@}
  72:/usr/include/c++/9.1.0/iostream **** 
  73:/usr/include/c++/9.1.0/iostream ****   // For construction of filebuffers for cout, cin, cerr, clog et. al.
GAS LISTING /tmp/ccmHLkr5.s 			page 5


  74:/usr/include/c++/9.1.0/iostream ****   static ios_base::Init __ioinit;
  24              		.loc 2 74 25 view .LVU4
  25 0012 488D3D00 		leaq	_ZStL8__ioinit(%rip), %rdi
  25      000000
  26              	.LVL1:
  27              		.loc 2 74 25 view .LVU5
  28 0019 E8000000 		call	_ZNSt8ios_base4InitC1Ev@PLT
  28      00
  29              	.LVL2:
  30              		.loc 2 74 25 view .LVU6
  31 001e 488D1500 		leaq	__dso_handle(%rip), %rdx
  31      000000
  32 0025 488D3500 		leaq	_ZStL8__ioinit(%rip), %rsi
  32      000000
  33 002c 488B3D00 		movq	_ZNSt8ios_base4InitD1Ev@GOTPCREL(%rip), %rdi
  33      000000
  34 0033 E8000000 		call	__cxa_atexit@PLT
  34      00
  35              	.LVL3:
  36              		.loc 1 132 1 view .LVU7
  37 0038 4883C408 		addq	$8, %rsp
  38              		.cfi_def_cfa_offset 8
  39 003c C3       		ret
  40              		.cfi_endproc
  41              	.LFE1828:
  43              		.globl	_ZN10translator11genCheckSumEPKc
  45              	_ZN10translator11genCheckSumEPKc:
  46              	.LVL4:
  47              	.LFB1503:
  10:Src/strbase.cpp ****         checksum_t ret = 0;
  48              		.loc 1 10 5 is_stmt 1 view -0
  49              		.cfi_startproc
  11:Src/strbase.cpp ****         uint8_t len = c[0] & LEN_MASK;
  50              		.loc 1 11 9 view .LVU9
  12:Src/strbase.cpp ****         // cout << "len: " << (int)len << endl;
  51              		.loc 1 12 9 view .LVU10
  12:Src/strbase.cpp ****         // cout << "len: " << (int)len << endl;
  52              		.loc 1 12 17 is_stmt 0 view .LVU11
  53 003d 440FB607 		movzbl	(%rdi), %r8d
  54 0041 4183E03F 		andl	$63, %r8d
  55              	.LVL5:
  19:Src/strbase.cpp ****         {
  56              		.loc 1 19 9 is_stmt 1 view .LVU12
  57              	.LBB2:
  19:Src/strbase.cpp ****         {
  58              		.loc 1 19 21 is_stmt 0 view .LVU13
  59 0045 B8000000 		movl	$0, %eax
  59      00
  60              	.LBE2:
  11:Src/strbase.cpp ****         uint8_t len = c[0] & LEN_MASK;
  61              		.loc 1 11 20 view .LVU14
  62 004a BE000000 		movl	$0, %esi
  62      00
  63              	.LVL6:
  64              	.L10:
  65              	.LBB3:
  19:Src/strbase.cpp ****         {
GAS LISTING /tmp/ccmHLkr5.s 			page 6


  66              		.loc 1 19 30 discriminator 3 view .LVU15
  67 004f 4438C0   		cmpb	%r8b, %al
  68 0052 731C     		jnb	.L8
  21:Src/strbase.cpp ****             // cout << "\nAdding: " << (int)c[3 + i] << endl;
  69              		.loc 1 21 13 is_stmt 1 discriminator 2 view .LVU16
  21:Src/strbase.cpp ****             // cout << "\nAdding: " << (int)c[3 + i] << endl;
  70              		.loc 1 21 27 is_stmt 0 discriminator 2 view .LVU17
  71 0054 0FB6C8   		movzbl	%al, %ecx
  21:Src/strbase.cpp ****             // cout << "\nAdding: " << (int)c[3 + i] << endl;
  72              		.loc 1 21 25 discriminator 2 view .LVU18
  73 0057 8D5103   		leal	3(%rcx), %edx
  74 005a 4863D2   		movslq	%edx, %rdx
  21:Src/strbase.cpp ****             // cout << "\nAdding: " << (int)c[3 + i] << endl;
  75              		.loc 1 21 28 discriminator 2 view .LVU19
  76 005d 0FBE1417 		movsbl	(%rdi,%rdx), %edx
  21:Src/strbase.cpp ****             // cout << "\nAdding: " << (int)c[3 + i] << endl;
  77              		.loc 1 21 37 discriminator 2 view .LVU20
  78 0061 C1E103   		sall	$3, %ecx
  79 0064 83E108   		andl	$8, %ecx
  21:Src/strbase.cpp ****             // cout << "\nAdding: " << (int)c[3 + i] << endl;
  80              		.loc 1 21 31 discriminator 2 view .LVU21
  81 0067 D3E2     		sall	%cl, %edx
  21:Src/strbase.cpp ****             // cout << "\nAdding: " << (int)c[3 + i] << endl;
  82              		.loc 1 21 17 discriminator 2 view .LVU22
  83 0069 09D6     		orl	%edx, %esi
  84              	.LVL7:
  19:Src/strbase.cpp ****         {
  85              		.loc 1 19 9 discriminator 2 view .LVU23
  86 006b 83C001   		addl	$1, %eax
  87              	.LVL8:
  19:Src/strbase.cpp ****         {
  88              		.loc 1 19 9 discriminator 2 view .LVU24
  89 006e EBDF     		jmp	.L10
  90              	.LVL9:
  91              	.L8:
  19:Src/strbase.cpp ****         {
  92              		.loc 1 19 9 discriminator 2 view .LVU25
  93              	.LBE3:
  25:Src/strbase.cpp **** 
  94              		.loc 1 25 5 view .LVU26
  95 0070 89F0     		movl	%esi, %eax
  96              	.LVL10:
  25:Src/strbase.cpp **** 
  97              		.loc 1 25 5 view .LVU27
  98 0072 C3       		ret
  99              		.cfi_endproc
 100              	.LFE1503:
 102              		.globl	_ZN10translator8containsEPcc
 104              	_ZN10translator8containsEPcc:
 105              	.LFB1504:
  29:Src/strbase.cpp ****         while(*c)
 106              		.loc 1 29 5 is_stmt 1 view -0
 107              		.cfi_startproc
 108              	.LVL11:
 109              	.L13:
  30:Src/strbase.cpp ****         {
 110              		.loc 1 30 9 view .LVU29
GAS LISTING /tmp/ccmHLkr5.s 			page 7


  30:Src/strbase.cpp ****         {
 111              		.loc 1 30 15 is_stmt 0 view .LVU30
 112 0073 0FB607   		movzbl	(%rdi), %eax
  30:Src/strbase.cpp ****         {
 113              		.loc 1 30 16 view .LVU31
 114 0076 84C0     		testb	%al, %al
 115 0078 740B     		je	.L14
  32:Src/strbase.cpp ****                 return true;
 116              		.loc 1 32 13 is_stmt 1 view .LVU32
 117 007a 4038F0   		cmpb	%sil, %al
 118 007d 740C     		je	.L15
  34:Src/strbase.cpp ****         }
 119              		.loc 1 34 13 view .LVU33
  34:Src/strbase.cpp ****         }
 120              		.loc 1 34 14 is_stmt 0 view .LVU34
 121 007f 4883C701 		addq	$1, %rdi
 122              	.LVL12:
  30:Src/strbase.cpp ****         {
 123              		.loc 1 30 9 view .LVU35
 124 0083 EBEE     		jmp	.L13
 125              	.LVL13:
 126              	.L14:
  36:Src/strbase.cpp ****     }
 127              		.loc 1 36 16 view .LVU36
 128 0085 B8000000 		movl	$0, %eax
 128      00
 129 008a C3       		ret
 130              	.L15:
  33:Src/strbase.cpp ****             c++;
 131              		.loc 1 33 24 view .LVU37
 132 008b B8010000 		movl	$1, %eax
 132      00
  37:Src/strbase.cpp **** 
 133              		.loc 1 37 5 view .LVU38
 134 0090 C3       		ret
 135              		.cfi_endproc
 136              	.LFE1504:
 138              		.globl	_ZN10translator6charAtEPcc
 140              	_ZN10translator6charAtEPcc:
 141              	.LVL14:
 142              	.LFB1505:
  41:Src/strbase.cpp ****         STR_LEN_DTYPE i = 0;
 143              		.loc 1 41 5 is_stmt 1 view -0
 144              		.cfi_startproc
  42:Src/strbase.cpp ****         while(c[i])
 145              		.loc 1 42 9 view .LVU40
  42:Src/strbase.cpp ****         while(c[i])
 146              		.loc 1 42 23 is_stmt 0 view .LVU41
 147 0091 B8000000 		movl	$0, %eax
 147      00
 148              	.LVL15:
 149              	.L18:
  43:Src/strbase.cpp ****         {
 150              		.loc 1 43 9 is_stmt 1 view .LVU42
  43:Src/strbase.cpp ****         {
 151              		.loc 1 43 17 is_stmt 0 view .LVU43
 152 0096 89C2     		movl	%eax, %edx
GAS LISTING /tmp/ccmHLkr5.s 			page 8


  43:Src/strbase.cpp ****         {
 153              		.loc 1 43 18 view .LVU44
 154 0098 0FB61417 		movzbl	(%rdi,%rdx), %edx
 155 009c 84D2     		testb	%dl, %dl
 156 009e 740A     		je	.L19
  45:Src/strbase.cpp ****                 return i;
 157              		.loc 1 45 13 is_stmt 1 view .LVU45
 158 00a0 4038F2   		cmpb	%sil, %dl
 159 00a3 740A     		je	.L16
  47:Src/strbase.cpp ****         }
 160              		.loc 1 47 13 view .LVU46
  47:Src/strbase.cpp ****         }
 161              		.loc 1 47 14 is_stmt 0 view .LVU47
 162 00a5 83C001   		addl	$1, %eax
 163              	.LVL16:
  43:Src/strbase.cpp ****         {
 164              		.loc 1 43 9 view .LVU48
 165 00a8 EBEC     		jmp	.L18
 166              	.L19:
  49:Src/strbase.cpp ****     }
 167              		.loc 1 49 16 view .LVU49
 168 00aa B8FFFFFF 		movl	$-1, %eax
 168      FF
 169              	.LVL17:
 170              	.L16:
  50:Src/strbase.cpp **** 
 171              		.loc 1 50 5 view .LVU50
 172 00af C3       		ret
 173              		.cfi_endproc
 174              	.LFE1505:
 176              		.globl	_ZN10translator10lastCharAtEPcc
 178              	_ZN10translator10lastCharAtEPcc:
 179              	.LVL18:
 180              	.LFB1506:
  54:Src/strbase.cpp ****         bool contains = false;
 181              		.loc 1 54 5 is_stmt 1 view -0
 182              		.cfi_startproc
  55:Src/strbase.cpp ****         STR_LEN_DTYPE i = 0;
 183              		.loc 1 55 9 view .LVU52
  56:Src/strbase.cpp ****         while(c[i])
 184              		.loc 1 56 9 view .LVU53
  56:Src/strbase.cpp ****         while(c[i])
 185              		.loc 1 56 23 is_stmt 0 view .LVU54
 186 00b0 B8000000 		movl	$0, %eax
 186      00
  55:Src/strbase.cpp ****         STR_LEN_DTYPE i = 0;
 187              		.loc 1 55 14 view .LVU55
 188 00b5 B9000000 		movl	$0, %ecx
 188      00
 189 00ba EB03     		jmp	.L23
 190              	.LVL19:
 191              	.L22:
  61:Src/strbase.cpp ****         }
 192              		.loc 1 61 13 is_stmt 1 view .LVU56
  61:Src/strbase.cpp ****         }
 193              		.loc 1 61 14 is_stmt 0 view .LVU57
 194 00bc 83C001   		addl	$1, %eax
GAS LISTING /tmp/ccmHLkr5.s 			page 9


 195              	.LVL20:
 196              	.L23:
  57:Src/strbase.cpp ****         {
 197              		.loc 1 57 9 is_stmt 1 view .LVU58
  57:Src/strbase.cpp ****         {
 198              		.loc 1 57 17 is_stmt 0 view .LVU59
 199 00bf 89C2     		movl	%eax, %edx
  57:Src/strbase.cpp ****         {
 200              		.loc 1 57 18 view .LVU60
 201 00c1 0FB61417 		movzbl	(%rdi,%rdx), %edx
 202 00c5 84D2     		testb	%dl, %dl
 203 00c7 740C     		je	.L21
  59:Src/strbase.cpp ****                 contains = true;
 204              		.loc 1 59 13 is_stmt 1 view .LVU61
 205 00c9 4038F2   		cmpb	%sil, %dl
 206 00cc 75EE     		jne	.L22
  60:Src/strbase.cpp ****             i++;
 207              		.loc 1 60 26 is_stmt 0 view .LVU62
 208 00ce B9010000 		movl	$1, %ecx
 208      00
 209              	.LVL21:
  60:Src/strbase.cpp ****             i++;
 210              		.loc 1 60 26 view .LVU63
 211 00d3 EBE7     		jmp	.L22
 212              	.LVL22:
 213              	.L21:
  63:Src/strbase.cpp ****             return i - 1;
 214              		.loc 1 63 9 is_stmt 1 view .LVU64
 215 00d5 84C9     		testb	%cl, %cl
 216 00d7 7404     		je	.L26
  64:Src/strbase.cpp ****         else
 217              		.loc 1 64 13 view .LVU65
  64:Src/strbase.cpp ****         else
 218              		.loc 1 64 24 is_stmt 0 view .LVU66
 219 00d9 83E801   		subl	$1, %eax
 220              	.LVL23:
  64:Src/strbase.cpp ****         else
 221              		.loc 1 64 24 view .LVU67
 222 00dc C3       		ret
 223              	.LVL24:
 224              	.L26:
  66:Src/strbase.cpp ****     }
 225              		.loc 1 66 20 view .LVU68
 226 00dd B8FFFFFF 		movl	$-1, %eax
 226      FF
 227              	.LVL25:
  67:Src/strbase.cpp **** 
 228              		.loc 1 67 5 view .LVU69
 229 00e2 C3       		ret
 230              		.cfi_endproc
 231              	.LFE1506:
 233              		.globl	_ZN10translator6equalsEPcS0_
 235              	_ZN10translator6equalsEPcS0_:
 236              	.LVL26:
 237              	.LFB1507:
  72:Src/strbase.cpp ****         if(c1 == c2)
 238              		.loc 1 72 5 is_stmt 1 view -0
GAS LISTING /tmp/ccmHLkr5.s 			page 10


 239              		.cfi_startproc
  73:Src/strbase.cpp ****             return true;
 240              		.loc 1 73 9 view .LVU71
 241 00e3 4839F7   		cmpq	%rsi, %rdi
 242 00e6 742E     		je	.L31
  75:Src/strbase.cpp ****         while (c1[i] && c2[i] && c1[i] == c2[i])
 243              		.loc 1 75 23 is_stmt 0 view .LVU72
 244 00e8 B9000000 		movl	$0, %ecx
 244      00
 245 00ed EB03     		jmp	.L30
 246              	.LVL27:
 247              	.L34:
  78:Src/strbase.cpp ****         }
 248              		.loc 1 78 13 is_stmt 1 view .LVU73
  78:Src/strbase.cpp ****         }
 249              		.loc 1 78 14 is_stmt 0 view .LVU74
 250 00ef 83C101   		addl	$1, %ecx
 251              	.LVL28:
 252              	.L30:
  76:Src/strbase.cpp ****         {
 253              		.loc 1 76 9 is_stmt 1 view .LVU75
  76:Src/strbase.cpp ****         {
 254              		.loc 1 76 19 is_stmt 0 view .LVU76
 255 00f2 89CA     		movl	%ecx, %edx
  76:Src/strbase.cpp ****         {
 256              		.loc 1 76 20 view .LVU77
 257 00f4 0FB60417 		movzbl	(%rdi,%rdx), %eax
  76:Src/strbase.cpp ****         {
 258              		.loc 1 76 31 view .LVU78
 259 00f8 84C0     		testb	%al, %al
 260 00fa 740F     		je	.L29
  76:Src/strbase.cpp ****         {
 261              		.loc 1 76 29 discriminator 1 view .LVU79
 262 00fc 440FB604 		movzbl	(%rsi,%rdx), %r8d
 262      16
  76:Src/strbase.cpp ****         {
 263              		.loc 1 76 22 discriminator 1 view .LVU80
 264 0101 4584C0   		testb	%r8b, %r8b
 265 0104 7405     		je	.L29
  76:Src/strbase.cpp ****         {
 266              		.loc 1 76 31 discriminator 2 view .LVU81
 267 0106 4438C0   		cmpb	%r8b, %al
 268 0109 74E4     		je	.L34
 269              	.L29:
  80:Src/strbase.cpp ****     }
 270              		.loc 1 80 9 is_stmt 1 view .LVU82
  80:Src/strbase.cpp ****     }
 271              		.loc 1 80 28 is_stmt 0 view .LVU83
 272 010b 84C0     		testb	%al, %al
 273 010d 750D     		jne	.L32
  80:Src/strbase.cpp ****     }
 274              		.loc 1 80 28 discriminator 1 view .LVU84
 275 010f 803C1600 		cmpb	$0, (%rsi,%rdx)
 276 0113 740D     		je	.L33
 277 0115 C3       		ret
 278              	.LVL29:
 279              	.L31:
GAS LISTING /tmp/ccmHLkr5.s 			page 11


  74:Src/strbase.cpp ****         STR_LEN_DTYPE i = 0;
 280              		.loc 1 74 20 view .LVU85
 281 0116 B8010000 		movl	$1, %eax
 281      00
 282 011b C3       		ret
 283              	.LVL30:
 284              	.L32:
  80:Src/strbase.cpp ****     }
 285              		.loc 1 80 28 view .LVU86
 286 011c B8000000 		movl	$0, %eax
 286      00
 287 0121 C3       		ret
 288              	.L33:
  80:Src/strbase.cpp ****     }
 289              		.loc 1 80 28 view .LVU87
 290 0122 B8010000 		movl	$1, %eax
 290      00
  81:Src/strbase.cpp **** 
 291              		.loc 1 81 5 view .LVU88
 292 0127 C3       		ret
 293              		.cfi_endproc
 294              	.LFE1507:
 296              		.globl	_ZN10translator6substrEPcS0_j
 298              	_ZN10translator6substrEPcS0_j:
 299              	.LVL31:
 300              	.LFB1508:
  86:Src/strbase.cpp ****         from += start;
 301              		.loc 1 86 5 is_stmt 1 view -0
 302              		.cfi_startproc
  87:Src/strbase.cpp ****         while(*from)
 303              		.loc 1 87 9 view .LVU90
  87:Src/strbase.cpp ****         while(*from)
 304              		.loc 1 87 17 is_stmt 0 view .LVU91
 305 0128 89D2     		movl	%edx, %edx
  87:Src/strbase.cpp ****         while(*from)
 306              		.loc 1 87 14 view .LVU92
 307 012a 4801D7   		addq	%rdx, %rdi
 308              	.LVL32:
 309              	.L37:
  88:Src/strbase.cpp ****         {
 310              		.loc 1 88 9 is_stmt 1 view .LVU93
  88:Src/strbase.cpp ****         {
 311              		.loc 1 88 15 is_stmt 0 view .LVU94
 312 012d 0FB607   		movzbl	(%rdi), %eax
  88:Src/strbase.cpp ****         {
 313              		.loc 1 88 16 view .LVU95
 314 0130 84C0     		testb	%al, %al
 315 0132 740C     		je	.L36
  90:Src/strbase.cpp ****             from++;
 316              		.loc 1 90 13 is_stmt 1 view .LVU96
  90:Src/strbase.cpp ****             from++;
 317              		.loc 1 90 17 is_stmt 0 view .LVU97
 318 0134 8806     		movb	%al, (%rsi)
  91:Src/strbase.cpp ****             to++;
 319              		.loc 1 91 13 is_stmt 1 view .LVU98
  91:Src/strbase.cpp ****             to++;
 320              		.loc 1 91 17 is_stmt 0 view .LVU99
GAS LISTING /tmp/ccmHLkr5.s 			page 12


 321 0136 4883C701 		addq	$1, %rdi
 322              	.LVL33:
  92:Src/strbase.cpp ****         }
 323              		.loc 1 92 13 is_stmt 1 view .LVU100
  92:Src/strbase.cpp ****         }
 324              		.loc 1 92 15 is_stmt 0 view .LVU101
 325 013a 4883C601 		addq	$1, %rsi
 326              	.LVL34:
  88:Src/strbase.cpp ****         {
 327              		.loc 1 88 9 view .LVU102
 328 013e EBED     		jmp	.L37
 329              	.L36:
  94:Src/strbase.cpp ****     }
 330              		.loc 1 94 9 is_stmt 1 view .LVU103
  94:Src/strbase.cpp ****     }
 331              		.loc 1 94 13 is_stmt 0 view .LVU104
 332 0140 C60600   		movb	$0, (%rsi)
  95:Src/strbase.cpp **** 
 333              		.loc 1 95 5 view .LVU105
 334 0143 C3       		ret
 335              		.cfi_endproc
 336              	.LFE1508:
 338              		.globl	_ZN10translator6substrEPcS0_jj
 340              	_ZN10translator6substrEPcS0_jj:
 341              	.LVL35:
 342              	.LFB1509:
  99:Src/strbase.cpp ****         from += start;
 343              		.loc 1 99 5 is_stmt 1 view -0
 344              		.cfi_startproc
 100:Src/strbase.cpp ****         end -= start;
 345              		.loc 1 100 9 view .LVU107
 100:Src/strbase.cpp ****         end -= start;
 346              		.loc 1 100 17 is_stmt 0 view .LVU108
 347 0144 89D0     		movl	%edx, %eax
 100:Src/strbase.cpp ****         end -= start;
 348              		.loc 1 100 14 view .LVU109
 349 0146 4801C7   		addq	%rax, %rdi
 350              	.LVL36:
 101:Src/strbase.cpp ****         end++;
 351              		.loc 1 101 9 is_stmt 1 view .LVU110
 101:Src/strbase.cpp ****         end++;
 352              		.loc 1 101 13 is_stmt 0 view .LVU111
 353 0149 29D1     		subl	%edx, %ecx
 354              	.LVL37:
 102:Src/strbase.cpp ****         while(*from && end)
 355              		.loc 1 102 9 is_stmt 1 view .LVU112
 102:Src/strbase.cpp ****         while(*from && end)
 356              		.loc 1 102 12 is_stmt 0 view .LVU113
 357 014b 83C101   		addl	$1, %ecx
 358              	.LVL38:
 359              	.L40:
 103:Src/strbase.cpp ****         {
 360              		.loc 1 103 9 is_stmt 1 view .LVU114
 103:Src/strbase.cpp ****         {
 361              		.loc 1 103 15 is_stmt 0 view .LVU115
 362 014e 0FB607   		movzbl	(%rdi), %eax
 103:Src/strbase.cpp ****         {
GAS LISTING /tmp/ccmHLkr5.s 			page 13


 363              		.loc 1 103 21 view .LVU116
 364 0151 84C0     		testb	%al, %al
 365 0153 7413     		je	.L39
 103:Src/strbase.cpp ****         {
 366              		.loc 1 103 21 discriminator 1 view .LVU117
 367 0155 85C9     		testl	%ecx, %ecx
 368 0157 740F     		je	.L39
 105:Src/strbase.cpp ****             from++;
 369              		.loc 1 105 13 is_stmt 1 view .LVU118
 105:Src/strbase.cpp ****             from++;
 370              		.loc 1 105 17 is_stmt 0 view .LVU119
 371 0159 8806     		movb	%al, (%rsi)
 106:Src/strbase.cpp ****             to++;
 372              		.loc 1 106 13 is_stmt 1 view .LVU120
 106:Src/strbase.cpp ****             to++;
 373              		.loc 1 106 17 is_stmt 0 view .LVU121
 374 015b 4883C701 		addq	$1, %rdi
 375              	.LVL39:
 107:Src/strbase.cpp ****             end--;
 376              		.loc 1 107 13 is_stmt 1 view .LVU122
 107:Src/strbase.cpp ****             end--;
 377              		.loc 1 107 15 is_stmt 0 view .LVU123
 378 015f 4883C601 		addq	$1, %rsi
 379              	.LVL40:
 108:Src/strbase.cpp ****         }
 380              		.loc 1 108 13 is_stmt 1 view .LVU124
 108:Src/strbase.cpp ****         }
 381              		.loc 1 108 16 is_stmt 0 view .LVU125
 382 0163 83E901   		subl	$1, %ecx
 383              	.LVL41:
 103:Src/strbase.cpp ****         {
 384              		.loc 1 103 9 view .LVU126
 385 0166 EBE6     		jmp	.L40
 386              	.L39:
 110:Src/strbase.cpp ****     }
 387              		.loc 1 110 9 is_stmt 1 view .LVU127
 110:Src/strbase.cpp ****     }
 388              		.loc 1 110 13 is_stmt 0 view .LVU128
 389 0168 C60600   		movb	$0, (%rsi)
 111:Src/strbase.cpp **** 
 390              		.loc 1 111 5 view .LVU129
 391 016b C3       		ret
 392              		.cfi_endproc
 393              	.LFE1509:
 395              		.globl	_ZN10translator5splitEPcS0_c
 397              	_ZN10translator5splitEPcS0_c:
 398              	.LVL42:
 399              	.LFB1510:
 115:Src/strbase.cpp ****         STR_LEN_DTYPE   start = charAt(from, sym),
 400              		.loc 1 115 5 is_stmt 1 view -0
 401              		.cfi_startproc
 115:Src/strbase.cpp ****         STR_LEN_DTYPE   start = charAt(from, sym),
 402              		.loc 1 115 5 is_stmt 0 view .LVU131
 403 016c 4155     		pushq	%r13
 404              		.cfi_def_cfa_offset 16
 405              		.cfi_offset 13, -16
 406 016e 4154     		pushq	%r12
GAS LISTING /tmp/ccmHLkr5.s 			page 14


 407              		.cfi_def_cfa_offset 24
 408              		.cfi_offset 12, -24
 409 0170 55       		pushq	%rbp
 410              		.cfi_def_cfa_offset 32
 411              		.cfi_offset 6, -32
 412 0171 53       		pushq	%rbx
 413              		.cfi_def_cfa_offset 40
 414              		.cfi_offset 3, -40
 415 0172 4889FD   		movq	%rdi, %rbp
 416 0175 4989F4   		movq	%rsi, %r12
 116:Src/strbase.cpp ****                         end = lastCharAt(from, sym);
 417              		.loc 1 116 9 is_stmt 1 view .LVU132
 116:Src/strbase.cpp ****                         end = lastCharAt(from, sym);
 418              		.loc 1 116 39 is_stmt 0 view .LVU133
 419 0178 440FBEEA 		movsbl	%dl, %r13d
 420 017c 4489EE   		movl	%r13d, %esi
 421              	.LVL43:
 116:Src/strbase.cpp ****                         end = lastCharAt(from, sym);
 422              		.loc 1 116 39 view .LVU134
 423 017f E8000000 		call	_ZN10translator6charAtEPcc
 423      00
 424              	.LVL44:
 116:Src/strbase.cpp ****                         end = lastCharAt(from, sym);
 425              		.loc 1 116 39 view .LVU135
 426 0184 89C3     		movl	%eax, %ebx
 427              	.LVL45:
 117:Src/strbase.cpp ****         if(start == end)
 428              		.loc 1 117 41 view .LVU136
 429 0186 4489EE   		movl	%r13d, %esi
 430 0189 4889EF   		movq	%rbp, %rdi
 431 018c E8000000 		call	_ZN10translator10lastCharAtEPcc
 431      00
 432              	.LVL46:
 118:Src/strbase.cpp ****             return;
 433              		.loc 1 118 9 is_stmt 1 view .LVU137
 434 0191 39C3     		cmpl	%eax, %ebx
 435 0193 7411     		je	.L41
 120:Src/strbase.cpp ****         end--;
 436              		.loc 1 120 9 view .LVU138
 120:Src/strbase.cpp ****         end--;
 437              		.loc 1 120 14 is_stmt 0 view .LVU139
 438 0195 8D5301   		leal	1(%rbx), %edx
 439              	.LVL47:
 121:Src/strbase.cpp **** 
 440              		.loc 1 121 9 is_stmt 1 view .LVU140
 121:Src/strbase.cpp **** 
 441              		.loc 1 121 12 is_stmt 0 view .LVU141
 442 0198 8D48FF   		leal	-1(%rax), %ecx
 443              	.LVL48:
 123:Src/strbase.cpp ****     }
 444              		.loc 1 123 9 is_stmt 1 view .LVU142
 123:Src/strbase.cpp ****     }
 445              		.loc 1 123 15 is_stmt 0 view .LVU143
 446 019b 4C89E6   		movq	%r12, %rsi
 447 019e 4889EF   		movq	%rbp, %rdi
 448 01a1 E8000000 		call	_ZN10translator6substrEPcS0_jj
 448      00
GAS LISTING /tmp/ccmHLkr5.s 			page 15


 449              	.LVL49:
 450              	.L41:
 124:Src/strbase.cpp **** 
 451              		.loc 1 124 5 view .LVU144
 452 01a6 5B       		popq	%rbx
 453              		.cfi_def_cfa_offset 32
 454 01a7 5D       		popq	%rbp
 455              		.cfi_def_cfa_offset 24
 456              	.LVL50:
 124:Src/strbase.cpp **** 
 457              		.loc 1 124 5 view .LVU145
 458 01a8 415C     		popq	%r12
 459              		.cfi_def_cfa_offset 16
 460              	.LVL51:
 124:Src/strbase.cpp **** 
 461              		.loc 1 124 5 view .LVU146
 462 01aa 415D     		popq	%r13
 463              		.cfi_def_cfa_offset 8
 464              	.LVL52:
 124:Src/strbase.cpp **** 
 465              		.loc 1 124 5 view .LVU147
 466 01ac C3       		ret
 467              		.cfi_endproc
 468              	.LFE1510:
 470              		.globl	_ZN10translator8parseCmdEPcPS0_PPFvvE
 472              	_ZN10translator8parseCmdEPcPS0_PPFvvE:
 473              	.LVL53:
 474              	.LFB1511:
 129:Src/strbase.cpp **** 
 475              		.loc 1 129 5 is_stmt 1 view -0
 476              		.cfi_startproc
 131:Src/strbase.cpp **** }
 477              		.loc 1 131 5 is_stmt 0 view .LVU149
 478 01ad C3       		ret
 479              		.cfi_endproc
 480              	.LFE1511:
 483              	_GLOBAL__sub_I__ZN10translator11genCheckSumEPKc:
 484              	.LFB1829:
 485              		.loc 1 132 1 is_stmt 1 view -0
 486              		.cfi_startproc
 487 01ae 4883EC08 		subq	$8, %rsp
 488              		.cfi_def_cfa_offset 16
 489              		.loc 1 132 1 is_stmt 0 view .LVU151
 490 01b2 BEFFFF00 		movl	$65535, %esi
 490      00
 491 01b7 BF010000 		movl	$1, %edi
 491      00
 492 01bc E83FFEFF 		call	_Z41__static_initialization_and_destruction_0ii
 492      FF
 493              	.LVL54:
 494 01c1 4883C408 		addq	$8, %rsp
 495              		.cfi_def_cfa_offset 8
 496 01c5 C3       		ret
 497              		.cfi_endproc
 498              	.LFE1829:
 500              		.section	.init_array,"aw"
 501              		.align 8
GAS LISTING /tmp/ccmHLkr5.s 			page 16


 502 0000 00000000 		.quad	_GLOBAL__sub_I__ZN10translator11genCheckSumEPKc
 502      00000000 
 503              		.local	_ZStL8__ioinit
 504              		.comm	_ZStL8__ioinit,1,1
 505              		.text
 506              	.Letext0:
 507              		.file 3 "/usr/include/c++/9.1.0/cwchar"
 508              		.file 4 "/usr/include/c++/9.1.0/new"
 509              		.file 5 "/usr/include/c++/9.1.0/bits/exception_ptr.h"
 510              		.file 6 "/usr/include/c++/9.1.0/type_traits"
 511              		.file 7 "/usr/include/c++/9.1.0/x86_64-pc-linux-gnu/bits/c++config.h"
 512              		.file 8 "/usr/include/c++/9.1.0/bits/stl_pair.h"
 513              		.file 9 "/usr/include/c++/9.1.0/debug/debug.h"
 514              		.file 10 "/usr/include/c++/9.1.0/bits/char_traits.h"
 515              		.file 11 "/usr/include/c++/9.1.0/cstdint"
 516              		.file 12 "/usr/include/c++/9.1.0/clocale"
 517              		.file 13 "/usr/include/c++/9.1.0/cstdlib"
 518              		.file 14 "/usr/include/c++/9.1.0/cstdio"
 519              		.file 15 "/usr/include/c++/9.1.0/system_error"
 520              		.file 16 "/usr/include/c++/9.1.0/bits/ios_base.h"
 521              		.file 17 "/usr/include/c++/9.1.0/cwctype"
 522              		.file 18 "/usr/include/c++/9.1.0/iosfwd"
 523              		.file 19 "/usr/include/c++/9.1.0/bits/predefined_ops.h"
 524              		.file 20 "/usr/include/c++/9.1.0/ext/new_allocator.h"
 525              		.file 21 "/usr/include/c++/9.1.0/ext/numeric_traits.h"
 526              		.file 22 "/usr/lib/gcc/x86_64-pc-linux-gnu/9.1.0/include/stddef.h"
 527              		.file 23 "<built-in>"
 528              		.file 24 "/usr/include/bits/types/wint_t.h"
 529              		.file 25 "/usr/include/bits/types/__mbstate_t.h"
 530              		.file 26 "/usr/include/bits/types/mbstate_t.h"
 531              		.file 27 "/usr/include/bits/types/__FILE.h"
 532              		.file 28 "/usr/include/bits/types/struct_FILE.h"
 533              		.file 29 "/usr/include/bits/types/FILE.h"
 534              		.file 30 "/usr/include/wchar.h"
 535              		.file 31 "/usr/include/bits/types/struct_tm.h"
 536              		.file 32 "/usr/include/bits/types.h"
 537              		.file 33 "/usr/include/bits/stdint-intn.h"
 538              		.file 34 "/usr/include/bits/stdint-uintn.h"
 539              		.file 35 "/usr/include/stdint.h"
 540              		.file 36 "/usr/include/locale.h"
 541              		.file 37 "/usr/include/time.h"
 542              		.file 38 "/usr/include/c++/9.1.0/x86_64-pc-linux-gnu/bits/atomic_word.h"
 543              		.file 39 "/usr/include/stdlib.h"
 544              		.file 40 "/usr/include/bits/stdlib-float.h"
 545              		.file 41 "/usr/include/bits/stdlib-bsearch.h"
 546              		.file 42 "/usr/include/bits/types/__fpos_t.h"
 547              		.file 43 "/usr/include/stdio.h"
 548              		.file 44 "/usr/include/bits/sys_errlist.h"
 549              		.file 45 "/usr/include/bits/stdio.h"
 550              		.file 46 "/usr/include/errno.h"
 551              		.file 47 "/usr/include/bits/wctype-wchar.h"
 552              		.file 48 "/usr/include/wctype.h"
 553              		.file 49 "Inc/strbase.hpp"
GAS LISTING /tmp/ccmHLkr5.s 			page 17

