GAS LISTING /tmp/cc8uUIEp.s 			page 1


   1              		.file	"strbase.cpp"
   2              		.text
   3              	.Ltext0:
   5              	_Z41__static_initialization_and_destruction_0ii:
   6              	.LVL0:
   7              	.LFB1827:
   8              		.file 1 "Src/strbase.cpp"
   1:Src/strbase.cpp **** #include "strbase.hpp"
   2:Src/strbase.cpp **** 
   3:Src/strbase.cpp **** namespace translator
   4:Src/strbase.cpp **** {
   5:Src/strbase.cpp ****     //checks if string c contains char cc
   6:Src/strbase.cpp ****     bool contains(char *c, const char cc)
   7:Src/strbase.cpp ****     {
   8:Src/strbase.cpp ****         while(*c)
   9:Src/strbase.cpp ****         {
  10:Src/strbase.cpp ****             if(*c == cc)
  11:Src/strbase.cpp ****                 return true;
  12:Src/strbase.cpp ****             c++;
  13:Src/strbase.cpp ****         }
  14:Src/strbase.cpp ****         return false;
  15:Src/strbase.cpp ****     }
  16:Src/strbase.cpp **** 
  17:Src/strbase.cpp ****     //get first char, matching cc from string c
  18:Src/strbase.cpp ****     STR_LEN_DTYPE charAt(char *c, const char cc)
  19:Src/strbase.cpp ****     {
  20:Src/strbase.cpp ****         STR_LEN_DTYPE i = 0;
  21:Src/strbase.cpp ****         while(c[i])
  22:Src/strbase.cpp ****         {
  23:Src/strbase.cpp ****             if(c[i] == cc)
  24:Src/strbase.cpp ****                 return i;
  25:Src/strbase.cpp ****             i++;
  26:Src/strbase.cpp ****         }
  27:Src/strbase.cpp ****         return str_NAN;
  28:Src/strbase.cpp ****     }
  29:Src/strbase.cpp **** 
  30:Src/strbase.cpp ****     //get last char, matching cc from string c
  31:Src/strbase.cpp ****     STR_LEN_DTYPE lastCharAt(char *c, const char cc)
  32:Src/strbase.cpp ****     {
  33:Src/strbase.cpp ****         bool contains = false;
  34:Src/strbase.cpp ****         STR_LEN_DTYPE i = 0;
  35:Src/strbase.cpp ****         while(c[i])
  36:Src/strbase.cpp ****         {
  37:Src/strbase.cpp ****             if(c[i] == cc)
  38:Src/strbase.cpp ****                 contains = true;
  39:Src/strbase.cpp ****             i++;
  40:Src/strbase.cpp ****         }
  41:Src/strbase.cpp ****         if(contains)
  42:Src/strbase.cpp ****             return i - 1;
  43:Src/strbase.cpp ****         else
  44:Src/strbase.cpp ****             return str_NAN;
  45:Src/strbase.cpp ****     }
  46:Src/strbase.cpp **** 
  47:Src/strbase.cpp **** 
  48:Src/strbase.cpp ****     //check if c1 equals to c2
  49:Src/strbase.cpp ****     bool equals(char *c1, char *c2)
  50:Src/strbase.cpp ****     {
GAS LISTING /tmp/cc8uUIEp.s 			page 2


  51:Src/strbase.cpp ****         if(c1 == c2)
  52:Src/strbase.cpp ****             return true;
  53:Src/strbase.cpp ****         STR_LEN_DTYPE i = 0;
  54:Src/strbase.cpp ****         while (c1[i] && c2[i] && c1[i] == c2[i])
  55:Src/strbase.cpp ****         {
  56:Src/strbase.cpp ****             i++;
  57:Src/strbase.cpp ****         }
  58:Src/strbase.cpp ****         return (c1[i] == 0 && c2[i] == 0);
  59:Src/strbase.cpp ****     }
  60:Src/strbase.cpp **** 
  61:Src/strbase.cpp **** 
  62:Src/strbase.cpp ****     //get substr from 'start'
  63:Src/strbase.cpp ****     void substr(char *from, char *to, STR_LEN_DTYPE start)
  64:Src/strbase.cpp ****     {
  65:Src/strbase.cpp ****         from += start;
  66:Src/strbase.cpp ****         while(*from)
  67:Src/strbase.cpp ****         {
  68:Src/strbase.cpp ****             *to = *from;
  69:Src/strbase.cpp ****             from++;
  70:Src/strbase.cpp ****             to++;
  71:Src/strbase.cpp ****         }
  72:Src/strbase.cpp ****         *to = '\0';
  73:Src/strbase.cpp ****     }
  74:Src/strbase.cpp **** 
  75:Src/strbase.cpp ****     //get substr between 'start' and 'end'
  76:Src/strbase.cpp ****     void substr(char *from, char *to, STR_LEN_DTYPE start, STR_LEN_DTYPE end)
  77:Src/strbase.cpp ****     {
  78:Src/strbase.cpp ****         from += start;
  79:Src/strbase.cpp ****         end -= start;
  80:Src/strbase.cpp ****         end++;
  81:Src/strbase.cpp ****         while(*from && end)
  82:Src/strbase.cpp ****         {
  83:Src/strbase.cpp ****             *to = *from;
  84:Src/strbase.cpp ****             from++;
  85:Src/strbase.cpp ****             to++;
  86:Src/strbase.cpp ****             end--;
  87:Src/strbase.cpp ****         }
  88:Src/strbase.cpp ****         *to = '\0';
  89:Src/strbase.cpp ****     }
  90:Src/strbase.cpp **** 
  91:Src/strbase.cpp ****     //get substring between chars 'sym'
  92:Src/strbase.cpp ****     void split(char *from, char *to, char sym)
  93:Src/strbase.cpp ****     {
  94:Src/strbase.cpp ****         STR_LEN_DTYPE   start = charAt(from, sym),
  95:Src/strbase.cpp ****                         end = lastCharAt(from, sym);
  96:Src/strbase.cpp ****         if(start == end)
  97:Src/strbase.cpp ****             return;
  98:Src/strbase.cpp ****         start++;
  99:Src/strbase.cpp ****         end--;
 100:Src/strbase.cpp **** 
 101:Src/strbase.cpp ****         substr(from, to, start, end);
 102:Src/strbase.cpp ****     }
 103:Src/strbase.cpp **** 
 104:Src/strbase.cpp **** 
 105:Src/strbase.cpp ****     //parse cmd from string |cmd| and call it from funcArr
 106:Src/strbase.cpp ****     void parseCmd(char *from, char** names, void (*funcArr [])())
 107:Src/strbase.cpp ****     {
GAS LISTING /tmp/cc8uUIEp.s 			page 3


 108:Src/strbase.cpp ****         char *cmd = (char*)alloca(sizeof(char) * strlen(from));
 109:Src/strbase.cpp ****         split(from, cmd, '|');
 110:Src/strbase.cpp ****         while(names)
 111:Src/strbase.cpp ****         {
 112:Src/strbase.cpp ****             if(equals(*names, cmd))
 113:Src/strbase.cpp ****             {
 114:Src/strbase.cpp ****                 (*funcArr)();
 115:Src/strbase.cpp ****                 return;
 116:Src/strbase.cpp ****             }
 117:Src/strbase.cpp ****             funcArr++;
 118:Src/strbase.cpp ****             names++;
 119:Src/strbase.cpp ****         }
 120:Src/strbase.cpp ****     }
 121:Src/strbase.cpp **** }
   9              		.loc 1 121 1 view -0
  10              		.cfi_startproc
  11              		.loc 1 121 1 is_stmt 0 view .LVU1
  12 0000 83FF01   		cmpl	$1, %edi
  13 0003 7401     		je	.L7
  14              	.L4:
  15 0005 C3       		ret
  16              	.L7:
  17              		.loc 1 121 1 discriminator 1 view .LVU2
  18 0006 81FEFFFF 		cmpl	$65535, %esi
  18      0000
  19 000c 75F7     		jne	.L4
  20              		.loc 1 121 1 view .LVU3
  21 000e 4883EC08 		subq	$8, %rsp
  22              		.cfi_def_cfa_offset 16
  23              		.file 2 "/usr/include/c++/9.1.0/iostream"
   1:/usr/include/c++/9.1.0/iostream **** // Standard iostream objects -*- C++ -*-
   2:/usr/include/c++/9.1.0/iostream **** 
   3:/usr/include/c++/9.1.0/iostream **** // Copyright (C) 1997-2019 Free Software Foundation, Inc.
   4:/usr/include/c++/9.1.0/iostream **** //
   5:/usr/include/c++/9.1.0/iostream **** // This file is part of the GNU ISO C++ Library.  This library is free
   6:/usr/include/c++/9.1.0/iostream **** // software; you can redistribute it and/or modify it under the
   7:/usr/include/c++/9.1.0/iostream **** // terms of the GNU General Public License as published by the
   8:/usr/include/c++/9.1.0/iostream **** // Free Software Foundation; either version 3, or (at your option)
   9:/usr/include/c++/9.1.0/iostream **** // any later version.
  10:/usr/include/c++/9.1.0/iostream **** 
  11:/usr/include/c++/9.1.0/iostream **** // This library is distributed in the hope that it will be useful,
  12:/usr/include/c++/9.1.0/iostream **** // but WITHOUT ANY WARRANTY; without even the implied warranty of
  13:/usr/include/c++/9.1.0/iostream **** // MERCHANTABILITY or FITNESS FOR A PARTICULAR PURPOSE.  See the
  14:/usr/include/c++/9.1.0/iostream **** // GNU General Public License for more details.
  15:/usr/include/c++/9.1.0/iostream **** 
  16:/usr/include/c++/9.1.0/iostream **** // Under Section 7 of GPL version 3, you are granted additional
  17:/usr/include/c++/9.1.0/iostream **** // permissions described in the GCC Runtime Library Exception, version
  18:/usr/include/c++/9.1.0/iostream **** // 3.1, as published by the Free Software Foundation.
  19:/usr/include/c++/9.1.0/iostream **** 
  20:/usr/include/c++/9.1.0/iostream **** // You should have received a copy of the GNU General Public License and
  21:/usr/include/c++/9.1.0/iostream **** // a copy of the GCC Runtime Library Exception along with this program;
  22:/usr/include/c++/9.1.0/iostream **** // see the files COPYING3 and COPYING.RUNTIME respectively.  If not, see
  23:/usr/include/c++/9.1.0/iostream **** // <http://www.gnu.org/licenses/>.
  24:/usr/include/c++/9.1.0/iostream **** 
  25:/usr/include/c++/9.1.0/iostream **** /** @file include/iostream
  26:/usr/include/c++/9.1.0/iostream ****  *  This is a Standard C++ Library header.
  27:/usr/include/c++/9.1.0/iostream ****  */
GAS LISTING /tmp/cc8uUIEp.s 			page 4


  28:/usr/include/c++/9.1.0/iostream **** 
  29:/usr/include/c++/9.1.0/iostream **** //
  30:/usr/include/c++/9.1.0/iostream **** // ISO C++ 14882: 27.3  Standard iostream objects
  31:/usr/include/c++/9.1.0/iostream **** //
  32:/usr/include/c++/9.1.0/iostream **** 
  33:/usr/include/c++/9.1.0/iostream **** #ifndef _GLIBCXX_IOSTREAM
  34:/usr/include/c++/9.1.0/iostream **** #define _GLIBCXX_IOSTREAM 1
  35:/usr/include/c++/9.1.0/iostream **** 
  36:/usr/include/c++/9.1.0/iostream **** #pragma GCC system_header
  37:/usr/include/c++/9.1.0/iostream **** 
  38:/usr/include/c++/9.1.0/iostream **** #include <bits/c++config.h>
  39:/usr/include/c++/9.1.0/iostream **** #include <ostream>
  40:/usr/include/c++/9.1.0/iostream **** #include <istream>
  41:/usr/include/c++/9.1.0/iostream **** 
  42:/usr/include/c++/9.1.0/iostream **** namespace std _GLIBCXX_VISIBILITY(default)
  43:/usr/include/c++/9.1.0/iostream **** {
  44:/usr/include/c++/9.1.0/iostream **** _GLIBCXX_BEGIN_NAMESPACE_VERSION
  45:/usr/include/c++/9.1.0/iostream **** 
  46:/usr/include/c++/9.1.0/iostream ****   /**
  47:/usr/include/c++/9.1.0/iostream ****    *  @name Standard Stream Objects
  48:/usr/include/c++/9.1.0/iostream ****    *
  49:/usr/include/c++/9.1.0/iostream ****    *  The &lt;iostream&gt; header declares the eight <em>standard stream
  50:/usr/include/c++/9.1.0/iostream ****    *  objects</em>.  For other declarations, see
  51:/usr/include/c++/9.1.0/iostream ****    *  http://gcc.gnu.org/onlinedocs/libstdc++/manual/io.html
  52:/usr/include/c++/9.1.0/iostream ****    *  and the @link iosfwd I/O forward declarations @endlink
  53:/usr/include/c++/9.1.0/iostream ****    *
  54:/usr/include/c++/9.1.0/iostream ****    *  They are required by default to cooperate with the global C
  55:/usr/include/c++/9.1.0/iostream ****    *  library's @c FILE streams, and to be available during program
  56:/usr/include/c++/9.1.0/iostream ****    *  startup and termination. For more information, see the section of the
  57:/usr/include/c++/9.1.0/iostream ****    *  manual linked to above.
  58:/usr/include/c++/9.1.0/iostream ****   */
  59:/usr/include/c++/9.1.0/iostream ****   //@{
  60:/usr/include/c++/9.1.0/iostream ****   extern istream cin;		/// Linked to standard input
  61:/usr/include/c++/9.1.0/iostream ****   extern ostream cout;		/// Linked to standard output
  62:/usr/include/c++/9.1.0/iostream ****   extern ostream cerr;		/// Linked to standard error (unbuffered)
  63:/usr/include/c++/9.1.0/iostream ****   extern ostream clog;		/// Linked to standard error (buffered)
  64:/usr/include/c++/9.1.0/iostream **** 
  65:/usr/include/c++/9.1.0/iostream **** #ifdef _GLIBCXX_USE_WCHAR_T
  66:/usr/include/c++/9.1.0/iostream ****   extern wistream wcin;		/// Linked to standard input
  67:/usr/include/c++/9.1.0/iostream ****   extern wostream wcout;	/// Linked to standard output
  68:/usr/include/c++/9.1.0/iostream ****   extern wostream wcerr;	/// Linked to standard error (unbuffered)
  69:/usr/include/c++/9.1.0/iostream ****   extern wostream wclog;	/// Linked to standard error (buffered)
  70:/usr/include/c++/9.1.0/iostream **** #endif
  71:/usr/include/c++/9.1.0/iostream ****   //@}
  72:/usr/include/c++/9.1.0/iostream **** 
  73:/usr/include/c++/9.1.0/iostream ****   // For construction of filebuffers for cout, cin, cerr, clog et. al.
  74:/usr/include/c++/9.1.0/iostream ****   static ios_base::Init __ioinit;
  24              		.loc 2 74 25 view .LVU4
  25 0012 488D3D00 		leaq	_ZStL8__ioinit(%rip), %rdi
  25      000000
  26              	.LVL1:
  27              		.loc 2 74 25 view .LVU5
  28 0019 E8000000 		call	_ZNSt8ios_base4InitC1Ev@PLT
  28      00
  29              	.LVL2:
  30              		.loc 2 74 25 view .LVU6
  31 001e 488D1500 		leaq	__dso_handle(%rip), %rdx
GAS LISTING /tmp/cc8uUIEp.s 			page 5


  31      000000
  32 0025 488D3500 		leaq	_ZStL8__ioinit(%rip), %rsi
  32      000000
  33 002c 488B3D00 		movq	_ZNSt8ios_base4InitD1Ev@GOTPCREL(%rip), %rdi
  33      000000
  34 0033 E8000000 		call	__cxa_atexit@PLT
  34      00
  35              	.LVL3:
  36              		.loc 1 121 1 view .LVU7
  37 0038 4883C408 		addq	$8, %rsp
  38              		.cfi_def_cfa_offset 8
  39 003c C3       		ret
  40              		.cfi_endproc
  41              	.LFE1827:
  43              		.globl	_ZN10translator8containsEPcc
  45              	_ZN10translator8containsEPcc:
  46              	.LFB1503:
   7:Src/strbase.cpp ****         while(*c)
  47              		.loc 1 7 5 is_stmt 1 view -0
  48              		.cfi_startproc
  49              	.LVL4:
  50              	.L10:
   8:Src/strbase.cpp ****         {
  51              		.loc 1 8 9 view .LVU9
   8:Src/strbase.cpp ****         {
  52              		.loc 1 8 15 is_stmt 0 view .LVU10
  53 003d 0FB607   		movzbl	(%rdi), %eax
   8:Src/strbase.cpp ****         {
  54              		.loc 1 8 16 view .LVU11
  55 0040 84C0     		testb	%al, %al
  56 0042 740B     		je	.L11
  10:Src/strbase.cpp ****                 return true;
  57              		.loc 1 10 13 is_stmt 1 view .LVU12
  58 0044 4038F0   		cmpb	%sil, %al
  59 0047 740C     		je	.L12
  12:Src/strbase.cpp ****         }
  60              		.loc 1 12 13 view .LVU13
  12:Src/strbase.cpp ****         }
  61              		.loc 1 12 14 is_stmt 0 view .LVU14
  62 0049 4883C701 		addq	$1, %rdi
  63              	.LVL5:
   8:Src/strbase.cpp ****         {
  64              		.loc 1 8 9 view .LVU15
  65 004d EBEE     		jmp	.L10
  66              	.LVL6:
  67              	.L11:
  14:Src/strbase.cpp ****     }
  68              		.loc 1 14 16 view .LVU16
  69 004f B8000000 		movl	$0, %eax
  69      00
  70 0054 C3       		ret
  71              	.L12:
  11:Src/strbase.cpp ****             c++;
  72              		.loc 1 11 24 view .LVU17
  73 0055 B8010000 		movl	$1, %eax
  73      00
  15:Src/strbase.cpp **** 
GAS LISTING /tmp/cc8uUIEp.s 			page 6


  74              		.loc 1 15 5 view .LVU18
  75 005a C3       		ret
  76              		.cfi_endproc
  77              	.LFE1503:
  79              		.globl	_ZN10translator6charAtEPcc
  81              	_ZN10translator6charAtEPcc:
  82              	.LVL7:
  83              	.LFB1504:
  19:Src/strbase.cpp ****         STR_LEN_DTYPE i = 0;
  84              		.loc 1 19 5 is_stmt 1 view -0
  85              		.cfi_startproc
  20:Src/strbase.cpp ****         while(c[i])
  86              		.loc 1 20 9 view .LVU20
  20:Src/strbase.cpp ****         while(c[i])
  87              		.loc 1 20 23 is_stmt 0 view .LVU21
  88 005b B8000000 		movl	$0, %eax
  88      00
  89              	.LVL8:
  90              	.L15:
  21:Src/strbase.cpp ****         {
  91              		.loc 1 21 9 is_stmt 1 view .LVU22
  21:Src/strbase.cpp ****         {
  92              		.loc 1 21 17 is_stmt 0 view .LVU23
  93 0060 89C2     		movl	%eax, %edx
  21:Src/strbase.cpp ****         {
  94              		.loc 1 21 18 view .LVU24
  95 0062 0FB61417 		movzbl	(%rdi,%rdx), %edx
  96 0066 84D2     		testb	%dl, %dl
  97 0068 740A     		je	.L16
  23:Src/strbase.cpp ****                 return i;
  98              		.loc 1 23 13 is_stmt 1 view .LVU25
  99 006a 4038F2   		cmpb	%sil, %dl
 100 006d 740A     		je	.L13
  25:Src/strbase.cpp ****         }
 101              		.loc 1 25 13 view .LVU26
  25:Src/strbase.cpp ****         }
 102              		.loc 1 25 14 is_stmt 0 view .LVU27
 103 006f 83C001   		addl	$1, %eax
 104              	.LVL9:
  21:Src/strbase.cpp ****         {
 105              		.loc 1 21 9 view .LVU28
 106 0072 EBEC     		jmp	.L15
 107              	.L16:
  27:Src/strbase.cpp ****     }
 108              		.loc 1 27 16 view .LVU29
 109 0074 B8FFFFFF 		movl	$-1, %eax
 109      FF
 110              	.LVL10:
 111              	.L13:
  28:Src/strbase.cpp **** 
 112              		.loc 1 28 5 view .LVU30
 113 0079 C3       		ret
 114              		.cfi_endproc
 115              	.LFE1504:
 117              		.globl	_ZN10translator10lastCharAtEPcc
 119              	_ZN10translator10lastCharAtEPcc:
 120              	.LVL11:
GAS LISTING /tmp/cc8uUIEp.s 			page 7


 121              	.LFB1505:
  32:Src/strbase.cpp ****         bool contains = false;
 122              		.loc 1 32 5 is_stmt 1 view -0
 123              		.cfi_startproc
  33:Src/strbase.cpp ****         STR_LEN_DTYPE i = 0;
 124              		.loc 1 33 9 view .LVU32
  34:Src/strbase.cpp ****         while(c[i])
 125              		.loc 1 34 9 view .LVU33
  34:Src/strbase.cpp ****         while(c[i])
 126              		.loc 1 34 23 is_stmt 0 view .LVU34
 127 007a B8000000 		movl	$0, %eax
 127      00
  33:Src/strbase.cpp ****         STR_LEN_DTYPE i = 0;
 128              		.loc 1 33 14 view .LVU35
 129 007f B9000000 		movl	$0, %ecx
 129      00
 130 0084 EB03     		jmp	.L20
 131              	.LVL12:
 132              	.L19:
  39:Src/strbase.cpp ****         }
 133              		.loc 1 39 13 is_stmt 1 view .LVU36
  39:Src/strbase.cpp ****         }
 134              		.loc 1 39 14 is_stmt 0 view .LVU37
 135 0086 83C001   		addl	$1, %eax
 136              	.LVL13:
 137              	.L20:
  35:Src/strbase.cpp ****         {
 138              		.loc 1 35 9 is_stmt 1 view .LVU38
  35:Src/strbase.cpp ****         {
 139              		.loc 1 35 17 is_stmt 0 view .LVU39
 140 0089 89C2     		movl	%eax, %edx
  35:Src/strbase.cpp ****         {
 141              		.loc 1 35 18 view .LVU40
 142 008b 0FB61417 		movzbl	(%rdi,%rdx), %edx
 143 008f 84D2     		testb	%dl, %dl
 144 0091 740C     		je	.L18
  37:Src/strbase.cpp ****                 contains = true;
 145              		.loc 1 37 13 is_stmt 1 view .LVU41
 146 0093 4038F2   		cmpb	%sil, %dl
 147 0096 75EE     		jne	.L19
  38:Src/strbase.cpp ****             i++;
 148              		.loc 1 38 26 is_stmt 0 view .LVU42
 149 0098 B9010000 		movl	$1, %ecx
 149      00
 150              	.LVL14:
  38:Src/strbase.cpp ****             i++;
 151              		.loc 1 38 26 view .LVU43
 152 009d EBE7     		jmp	.L19
 153              	.LVL15:
 154              	.L18:
  41:Src/strbase.cpp ****             return i - 1;
 155              		.loc 1 41 9 is_stmt 1 view .LVU44
 156 009f 84C9     		testb	%cl, %cl
 157 00a1 7404     		je	.L23
  42:Src/strbase.cpp ****         else
 158              		.loc 1 42 13 view .LVU45
  42:Src/strbase.cpp ****         else
GAS LISTING /tmp/cc8uUIEp.s 			page 8


 159              		.loc 1 42 24 is_stmt 0 view .LVU46
 160 00a3 83E801   		subl	$1, %eax
 161              	.LVL16:
  42:Src/strbase.cpp ****         else
 162              		.loc 1 42 24 view .LVU47
 163 00a6 C3       		ret
 164              	.LVL17:
 165              	.L23:
  44:Src/strbase.cpp ****     }
 166              		.loc 1 44 20 view .LVU48
 167 00a7 B8FFFFFF 		movl	$-1, %eax
 167      FF
 168              	.LVL18:
  45:Src/strbase.cpp **** 
 169              		.loc 1 45 5 view .LVU49
 170 00ac C3       		ret
 171              		.cfi_endproc
 172              	.LFE1505:
 174              		.globl	_ZN10translator6equalsEPcS0_
 176              	_ZN10translator6equalsEPcS0_:
 177              	.LVL19:
 178              	.LFB1506:
  50:Src/strbase.cpp ****         if(c1 == c2)
 179              		.loc 1 50 5 is_stmt 1 view -0
 180              		.cfi_startproc
  51:Src/strbase.cpp ****             return true;
 181              		.loc 1 51 9 view .LVU51
 182 00ad 4839F7   		cmpq	%rsi, %rdi
 183 00b0 742E     		je	.L28
  53:Src/strbase.cpp ****         while (c1[i] && c2[i] && c1[i] == c2[i])
 184              		.loc 1 53 23 is_stmt 0 view .LVU52
 185 00b2 B9000000 		movl	$0, %ecx
 185      00
 186 00b7 EB03     		jmp	.L27
 187              	.LVL20:
 188              	.L31:
  56:Src/strbase.cpp ****         }
 189              		.loc 1 56 13 is_stmt 1 view .LVU53
  56:Src/strbase.cpp ****         }
 190              		.loc 1 56 14 is_stmt 0 view .LVU54
 191 00b9 83C101   		addl	$1, %ecx
 192              	.LVL21:
 193              	.L27:
  54:Src/strbase.cpp ****         {
 194              		.loc 1 54 9 is_stmt 1 view .LVU55
  54:Src/strbase.cpp ****         {
 195              		.loc 1 54 19 is_stmt 0 view .LVU56
 196 00bc 89CA     		movl	%ecx, %edx
  54:Src/strbase.cpp ****         {
 197              		.loc 1 54 20 view .LVU57
 198 00be 0FB60417 		movzbl	(%rdi,%rdx), %eax
  54:Src/strbase.cpp ****         {
 199              		.loc 1 54 31 view .LVU58
 200 00c2 84C0     		testb	%al, %al
 201 00c4 740F     		je	.L26
  54:Src/strbase.cpp ****         {
 202              		.loc 1 54 29 discriminator 1 view .LVU59
GAS LISTING /tmp/cc8uUIEp.s 			page 9


 203 00c6 440FB604 		movzbl	(%rsi,%rdx), %r8d
 203      16
  54:Src/strbase.cpp ****         {
 204              		.loc 1 54 22 discriminator 1 view .LVU60
 205 00cb 4584C0   		testb	%r8b, %r8b
 206 00ce 7405     		je	.L26
  54:Src/strbase.cpp ****         {
 207              		.loc 1 54 31 discriminator 2 view .LVU61
 208 00d0 4438C0   		cmpb	%r8b, %al
 209 00d3 74E4     		je	.L31
 210              	.L26:
  58:Src/strbase.cpp ****     }
 211              		.loc 1 58 9 is_stmt 1 view .LVU62
  58:Src/strbase.cpp ****     }
 212              		.loc 1 58 28 is_stmt 0 view .LVU63
 213 00d5 84C0     		testb	%al, %al
 214 00d7 750D     		jne	.L29
  58:Src/strbase.cpp ****     }
 215              		.loc 1 58 28 discriminator 1 view .LVU64
 216 00d9 803C1600 		cmpb	$0, (%rsi,%rdx)
 217 00dd 740D     		je	.L30
 218 00df C3       		ret
 219              	.LVL22:
 220              	.L28:
  52:Src/strbase.cpp ****         STR_LEN_DTYPE i = 0;
 221              		.loc 1 52 20 view .LVU65
 222 00e0 B8010000 		movl	$1, %eax
 222      00
 223 00e5 C3       		ret
 224              	.LVL23:
 225              	.L29:
  58:Src/strbase.cpp ****     }
 226              		.loc 1 58 28 view .LVU66
 227 00e6 B8000000 		movl	$0, %eax
 227      00
 228 00eb C3       		ret
 229              	.L30:
  58:Src/strbase.cpp ****     }
 230              		.loc 1 58 28 view .LVU67
 231 00ec B8010000 		movl	$1, %eax
 231      00
  59:Src/strbase.cpp **** 
 232              		.loc 1 59 5 view .LVU68
 233 00f1 C3       		ret
 234              		.cfi_endproc
 235              	.LFE1506:
 237              		.globl	_ZN10translator6substrEPcS0_j
 239              	_ZN10translator6substrEPcS0_j:
 240              	.LVL24:
 241              	.LFB1507:
  64:Src/strbase.cpp ****         from += start;
 242              		.loc 1 64 5 is_stmt 1 view -0
 243              		.cfi_startproc
  65:Src/strbase.cpp ****         while(*from)
 244              		.loc 1 65 9 view .LVU70
  65:Src/strbase.cpp ****         while(*from)
 245              		.loc 1 65 17 is_stmt 0 view .LVU71
GAS LISTING /tmp/cc8uUIEp.s 			page 10


 246 00f2 89D2     		movl	%edx, %edx
  65:Src/strbase.cpp ****         while(*from)
 247              		.loc 1 65 14 view .LVU72
 248 00f4 4801D7   		addq	%rdx, %rdi
 249              	.LVL25:
 250              	.L34:
  66:Src/strbase.cpp ****         {
 251              		.loc 1 66 9 is_stmt 1 view .LVU73
  66:Src/strbase.cpp ****         {
 252              		.loc 1 66 15 is_stmt 0 view .LVU74
 253 00f7 0FB607   		movzbl	(%rdi), %eax
  66:Src/strbase.cpp ****         {
 254              		.loc 1 66 16 view .LVU75
 255 00fa 84C0     		testb	%al, %al
 256 00fc 740C     		je	.L33
  68:Src/strbase.cpp ****             from++;
 257              		.loc 1 68 13 is_stmt 1 view .LVU76
  68:Src/strbase.cpp ****             from++;
 258              		.loc 1 68 17 is_stmt 0 view .LVU77
 259 00fe 8806     		movb	%al, (%rsi)
  69:Src/strbase.cpp ****             to++;
 260              		.loc 1 69 13 is_stmt 1 view .LVU78
  69:Src/strbase.cpp ****             to++;
 261              		.loc 1 69 17 is_stmt 0 view .LVU79
 262 0100 4883C701 		addq	$1, %rdi
 263              	.LVL26:
  70:Src/strbase.cpp ****         }
 264              		.loc 1 70 13 is_stmt 1 view .LVU80
  70:Src/strbase.cpp ****         }
 265              		.loc 1 70 15 is_stmt 0 view .LVU81
 266 0104 4883C601 		addq	$1, %rsi
 267              	.LVL27:
  66:Src/strbase.cpp ****         {
 268              		.loc 1 66 9 view .LVU82
 269 0108 EBED     		jmp	.L34
 270              	.L33:
  72:Src/strbase.cpp ****     }
 271              		.loc 1 72 9 is_stmt 1 view .LVU83
  72:Src/strbase.cpp ****     }
 272              		.loc 1 72 13 is_stmt 0 view .LVU84
 273 010a C60600   		movb	$0, (%rsi)
  73:Src/strbase.cpp **** 
 274              		.loc 1 73 5 view .LVU85
 275 010d C3       		ret
 276              		.cfi_endproc
 277              	.LFE1507:
 279              		.globl	_ZN10translator6substrEPcS0_jj
 281              	_ZN10translator6substrEPcS0_jj:
 282              	.LVL28:
 283              	.LFB1508:
  77:Src/strbase.cpp ****         from += start;
 284              		.loc 1 77 5 is_stmt 1 view -0
 285              		.cfi_startproc
  78:Src/strbase.cpp ****         end -= start;
 286              		.loc 1 78 9 view .LVU87
  78:Src/strbase.cpp ****         end -= start;
 287              		.loc 1 78 17 is_stmt 0 view .LVU88
GAS LISTING /tmp/cc8uUIEp.s 			page 11


 288 010e 89D0     		movl	%edx, %eax
  78:Src/strbase.cpp ****         end -= start;
 289              		.loc 1 78 14 view .LVU89
 290 0110 4801C7   		addq	%rax, %rdi
 291              	.LVL29:
  79:Src/strbase.cpp ****         end++;
 292              		.loc 1 79 9 is_stmt 1 view .LVU90
  79:Src/strbase.cpp ****         end++;
 293              		.loc 1 79 13 is_stmt 0 view .LVU91
 294 0113 29D1     		subl	%edx, %ecx
 295              	.LVL30:
  80:Src/strbase.cpp ****         while(*from && end)
 296              		.loc 1 80 9 is_stmt 1 view .LVU92
  80:Src/strbase.cpp ****         while(*from && end)
 297              		.loc 1 80 12 is_stmt 0 view .LVU93
 298 0115 83C101   		addl	$1, %ecx
 299              	.LVL31:
 300              	.L37:
  81:Src/strbase.cpp ****         {
 301              		.loc 1 81 9 is_stmt 1 view .LVU94
  81:Src/strbase.cpp ****         {
 302              		.loc 1 81 15 is_stmt 0 view .LVU95
 303 0118 0FB607   		movzbl	(%rdi), %eax
  81:Src/strbase.cpp ****         {
 304              		.loc 1 81 21 view .LVU96
 305 011b 84C0     		testb	%al, %al
 306 011d 7413     		je	.L36
  81:Src/strbase.cpp ****         {
 307              		.loc 1 81 21 discriminator 1 view .LVU97
 308 011f 85C9     		testl	%ecx, %ecx
 309 0121 740F     		je	.L36
  83:Src/strbase.cpp ****             from++;
 310              		.loc 1 83 13 is_stmt 1 view .LVU98
  83:Src/strbase.cpp ****             from++;
 311              		.loc 1 83 17 is_stmt 0 view .LVU99
 312 0123 8806     		movb	%al, (%rsi)
  84:Src/strbase.cpp ****             to++;
 313              		.loc 1 84 13 is_stmt 1 view .LVU100
  84:Src/strbase.cpp ****             to++;
 314              		.loc 1 84 17 is_stmt 0 view .LVU101
 315 0125 4883C701 		addq	$1, %rdi
 316              	.LVL32:
  85:Src/strbase.cpp ****             end--;
 317              		.loc 1 85 13 is_stmt 1 view .LVU102
  85:Src/strbase.cpp ****             end--;
 318              		.loc 1 85 15 is_stmt 0 view .LVU103
 319 0129 4883C601 		addq	$1, %rsi
 320              	.LVL33:
  86:Src/strbase.cpp ****         }
 321              		.loc 1 86 13 is_stmt 1 view .LVU104
  86:Src/strbase.cpp ****         }
 322              		.loc 1 86 16 is_stmt 0 view .LVU105
 323 012d 83E901   		subl	$1, %ecx
 324              	.LVL34:
  81:Src/strbase.cpp ****         {
 325              		.loc 1 81 9 view .LVU106
 326 0130 EBE6     		jmp	.L37
GAS LISTING /tmp/cc8uUIEp.s 			page 12


 327              	.L36:
  88:Src/strbase.cpp ****     }
 328              		.loc 1 88 9 is_stmt 1 view .LVU107
  88:Src/strbase.cpp ****     }
 329              		.loc 1 88 13 is_stmt 0 view .LVU108
 330 0132 C60600   		movb	$0, (%rsi)
  89:Src/strbase.cpp **** 
 331              		.loc 1 89 5 view .LVU109
 332 0135 C3       		ret
 333              		.cfi_endproc
 334              	.LFE1508:
 336              		.globl	_ZN10translator5splitEPcS0_c
 338              	_ZN10translator5splitEPcS0_c:
 339              	.LVL35:
 340              	.LFB1509:
  93:Src/strbase.cpp ****         STR_LEN_DTYPE   start = charAt(from, sym),
 341              		.loc 1 93 5 is_stmt 1 view -0
 342              		.cfi_startproc
  93:Src/strbase.cpp ****         STR_LEN_DTYPE   start = charAt(from, sym),
 343              		.loc 1 93 5 is_stmt 0 view .LVU111
 344 0136 4155     		pushq	%r13
 345              		.cfi_def_cfa_offset 16
 346              		.cfi_offset 13, -16
 347 0138 4154     		pushq	%r12
 348              		.cfi_def_cfa_offset 24
 349              		.cfi_offset 12, -24
 350 013a 55       		pushq	%rbp
 351              		.cfi_def_cfa_offset 32
 352              		.cfi_offset 6, -32
 353 013b 53       		pushq	%rbx
 354              		.cfi_def_cfa_offset 40
 355              		.cfi_offset 3, -40
 356 013c 4889FD   		movq	%rdi, %rbp
 357 013f 4989F4   		movq	%rsi, %r12
  94:Src/strbase.cpp ****                         end = lastCharAt(from, sym);
 358              		.loc 1 94 9 is_stmt 1 view .LVU112
  94:Src/strbase.cpp ****                         end = lastCharAt(from, sym);
 359              		.loc 1 94 39 is_stmt 0 view .LVU113
 360 0142 440FBEEA 		movsbl	%dl, %r13d
 361 0146 4489EE   		movl	%r13d, %esi
 362              	.LVL36:
  94:Src/strbase.cpp ****                         end = lastCharAt(from, sym);
 363              		.loc 1 94 39 view .LVU114
 364 0149 E8000000 		call	_ZN10translator6charAtEPcc
 364      00
 365              	.LVL37:
  94:Src/strbase.cpp ****                         end = lastCharAt(from, sym);
 366              		.loc 1 94 39 view .LVU115
 367 014e 89C3     		movl	%eax, %ebx
 368              	.LVL38:
  95:Src/strbase.cpp ****         if(start == end)
 369              		.loc 1 95 41 view .LVU116
 370 0150 4489EE   		movl	%r13d, %esi
 371 0153 4889EF   		movq	%rbp, %rdi
 372 0156 E8000000 		call	_ZN10translator10lastCharAtEPcc
 372      00
 373              	.LVL39:
GAS LISTING /tmp/cc8uUIEp.s 			page 13


  96:Src/strbase.cpp ****             return;
 374              		.loc 1 96 9 is_stmt 1 view .LVU117
 375 015b 39C3     		cmpl	%eax, %ebx
 376 015d 7411     		je	.L38
  98:Src/strbase.cpp ****         end--;
 377              		.loc 1 98 9 view .LVU118
  98:Src/strbase.cpp ****         end--;
 378              		.loc 1 98 14 is_stmt 0 view .LVU119
 379 015f 8D5301   		leal	1(%rbx), %edx
 380              	.LVL40:
  99:Src/strbase.cpp **** 
 381              		.loc 1 99 9 is_stmt 1 view .LVU120
  99:Src/strbase.cpp **** 
 382              		.loc 1 99 12 is_stmt 0 view .LVU121
 383 0162 8D48FF   		leal	-1(%rax), %ecx
 384              	.LVL41:
 101:Src/strbase.cpp ****     }
 385              		.loc 1 101 9 is_stmt 1 view .LVU122
 101:Src/strbase.cpp ****     }
 386              		.loc 1 101 15 is_stmt 0 view .LVU123
 387 0165 4C89E6   		movq	%r12, %rsi
 388 0168 4889EF   		movq	%rbp, %rdi
 389 016b E8000000 		call	_ZN10translator6substrEPcS0_jj
 389      00
 390              	.LVL42:
 391              	.L38:
 102:Src/strbase.cpp **** 
 392              		.loc 1 102 5 view .LVU124
 393 0170 5B       		popq	%rbx
 394              		.cfi_def_cfa_offset 32
 395 0171 5D       		popq	%rbp
 396              		.cfi_def_cfa_offset 24
 397              	.LVL43:
 102:Src/strbase.cpp **** 
 398              		.loc 1 102 5 view .LVU125
 399 0172 415C     		popq	%r12
 400              		.cfi_def_cfa_offset 16
 401              	.LVL44:
 102:Src/strbase.cpp **** 
 402              		.loc 1 102 5 view .LVU126
 403 0174 415D     		popq	%r13
 404              		.cfi_def_cfa_offset 8
 405              	.LVL45:
 102:Src/strbase.cpp **** 
 406              		.loc 1 102 5 view .LVU127
 407 0176 C3       		ret
 408              		.cfi_endproc
 409              	.LFE1509:
 411              		.globl	_ZN10translator8parseCmdEPcPS0_PPFvvE
 413              	_ZN10translator8parseCmdEPcPS0_PPFvvE:
 414              	.LVL46:
 415              	.LFB1510:
 107:Src/strbase.cpp ****         char *cmd = (char*)alloca(sizeof(char) * strlen(from));
 416              		.loc 1 107 5 is_stmt 1 view -0
 417              		.cfi_startproc
 107:Src/strbase.cpp ****         char *cmd = (char*)alloca(sizeof(char) * strlen(from));
 418              		.loc 1 107 5 is_stmt 0 view .LVU129
GAS LISTING /tmp/cc8uUIEp.s 			page 14


 419 0177 55       		pushq	%rbp
 420              		.cfi_def_cfa_offset 16
 421              		.cfi_offset 6, -16
 422 0178 4889E5   		movq	%rsp, %rbp
 423              		.cfi_def_cfa_register 6
 424 017b 4155     		pushq	%r13
 425 017d 4154     		pushq	%r12
 426 017f 53       		pushq	%rbx
 427 0180 4883EC18 		subq	$24, %rsp
 428              		.cfi_offset 13, -24
 429              		.cfi_offset 12, -32
 430              		.cfi_offset 3, -40
 431 0184 4989F8   		movq	%rdi, %r8
 432 0187 4889F3   		movq	%rsi, %rbx
 433 018a 4989D4   		movq	%rdx, %r12
 107:Src/strbase.cpp ****         char *cmd = (char*)alloca(sizeof(char) * strlen(from));
 434              		.loc 1 107 5 view .LVU130
 435 018d 64488B04 		movq	%fs:40, %rax
 435      25280000 
 435      00
 436 0196 488945D8 		movq	%rax, -40(%rbp)
 437 019a 31C0     		xorl	%eax, %eax
 108:Src/strbase.cpp ****         split(from, cmd, '|');
 438              		.loc 1 108 9 is_stmt 1 view .LVU131
 108:Src/strbase.cpp ****         split(from, cmd, '|');
 439              		.loc 1 108 28 is_stmt 0 view .LVU132
 440 019c 48C7C1FF 		movq	$-1, %rcx
 440      FFFFFF
 441 01a3 F2AE     		repnz scasb
 442              	.LVL47:
 108:Src/strbase.cpp ****         split(from, cmd, '|');
 443              		.loc 1 108 28 view .LVU133
 444 01a5 4889C8   		movq	%rcx, %rax
 445 01a8 48F7D0   		notq	%rax
 446 01ab 4883C016 		addq	$22, %rax
 447 01af 4883E0F0 		andq	$-16, %rax
 448 01b3 4829C4   		subq	%rax, %rsp
 449 01b6 488D7424 		leaq	15(%rsp), %rsi
 449      0F
 450              	.LVL48:
 108:Src/strbase.cpp ****         split(from, cmd, '|');
 451              		.loc 1 108 28 view .LVU134
 452 01bb 4883E6F0 		andq	$-16, %rsi
 453 01bf 4989F5   		movq	%rsi, %r13
 454              	.LVL49:
 109:Src/strbase.cpp ****         while(names)
 455              		.loc 1 109 9 is_stmt 1 view .LVU135
 109:Src/strbase.cpp ****         while(names)
 456              		.loc 1 109 14 is_stmt 0 view .LVU136
 457 01c2 BA7C0000 		movl	$124, %edx
 457      00
 458              	.LVL50:
 109:Src/strbase.cpp ****         while(names)
 459              		.loc 1 109 14 view .LVU137
 460 01c7 4C89C7   		movq	%r8, %rdi
 461 01ca E8000000 		call	_ZN10translator5splitEPcS0_c
 461      00
GAS LISTING /tmp/cc8uUIEp.s 			page 15


 462              	.LVL51:
 463              	.L44:
 110:Src/strbase.cpp ****         {
 464              		.loc 1 110 9 is_stmt 1 view .LVU138
 110:Src/strbase.cpp ****         {
 465              		.loc 1 110 15 is_stmt 0 view .LVU139
 466 01cf 4885DB   		testq	%rbx, %rbx
 467 01d2 741D     		je	.L41
 112:Src/strbase.cpp ****             {
 468              		.loc 1 112 13 is_stmt 1 view .LVU140
 112:Src/strbase.cpp ****             {
 469              		.loc 1 112 22 is_stmt 0 view .LVU141
 470 01d4 4C89EE   		movq	%r13, %rsi
 471 01d7 488B3B   		movq	(%rbx), %rdi
 472 01da E8000000 		call	_ZN10translator6equalsEPcS0_
 472      00
 473              	.LVL52:
 112:Src/strbase.cpp ****             {
 474              		.loc 1 112 13 view .LVU142
 475 01df 84C0     		testb	%al, %al
 476 01e1 750A     		jne	.L47
 117:Src/strbase.cpp ****             names++;
 477              		.loc 1 117 13 is_stmt 1 view .LVU143
 117:Src/strbase.cpp ****             names++;
 478              		.loc 1 117 20 is_stmt 0 view .LVU144
 479 01e3 4983C408 		addq	$8, %r12
 480              	.LVL53:
 118:Src/strbase.cpp ****         }
 481              		.loc 1 118 13 is_stmt 1 view .LVU145
 118:Src/strbase.cpp ****         }
 482              		.loc 1 118 18 is_stmt 0 view .LVU146
 483 01e7 4883C308 		addq	$8, %rbx
 484              	.LVL54:
 110:Src/strbase.cpp ****         {
 485              		.loc 1 110 9 view .LVU147
 486 01eb EBE2     		jmp	.L44
 487              	.L47:
 114:Src/strbase.cpp ****                 return;
 488              		.loc 1 114 17 is_stmt 1 view .LVU148
 114:Src/strbase.cpp ****                 return;
 489              		.loc 1 114 27 is_stmt 0 view .LVU149
 490 01ed 41FF1424 		call	*(%r12)
 491              	.LVL55:
 115:Src/strbase.cpp ****             }
 492              		.loc 1 115 17 is_stmt 1 view .LVU150
 493              	.L41:
 120:Src/strbase.cpp **** }
 494              		.loc 1 120 5 is_stmt 0 view .LVU151
 495 01f1 488B45D8 		movq	-40(%rbp), %rax
 496 01f5 64483304 		xorq	%fs:40, %rax
 496      25280000 
 496      00
 497 01fe 750B     		jne	.L48
 498 0200 488D65E8 		leaq	-24(%rbp), %rsp
 499 0204 5B       		popq	%rbx
 500              	.LVL56:
 120:Src/strbase.cpp **** }
GAS LISTING /tmp/cc8uUIEp.s 			page 16


 501              		.loc 1 120 5 view .LVU152
 502 0205 415C     		popq	%r12
 503              	.LVL57:
 120:Src/strbase.cpp **** }
 504              		.loc 1 120 5 view .LVU153
 505 0207 415D     		popq	%r13
 506              	.LVL58:
 120:Src/strbase.cpp **** }
 507              		.loc 1 120 5 view .LVU154
 508 0209 5D       		popq	%rbp
 509              		.cfi_remember_state
 510              		.cfi_def_cfa 7, 8
 511 020a C3       		ret
 512              	.LVL59:
 513              	.L48:
 514              		.cfi_restore_state
 120:Src/strbase.cpp **** }
 515              		.loc 1 120 5 view .LVU155
 516 020b E8000000 		call	__stack_chk_fail@PLT
 516      00
 517              	.LVL60:
 518              		.cfi_endproc
 519              	.LFE1510:
 522              	_GLOBAL__sub_I__ZN10translator8containsEPcc:
 523              	.LFB1828:
 524              		.loc 1 121 1 is_stmt 1 view -0
 525              		.cfi_startproc
 526 0210 4883EC08 		subq	$8, %rsp
 527              		.cfi_def_cfa_offset 16
 528              		.loc 1 121 1 is_stmt 0 view .LVU157
 529 0214 BEFFFF00 		movl	$65535, %esi
 529      00
 530 0219 BF010000 		movl	$1, %edi
 530      00
 531 021e E8DDFDFF 		call	_Z41__static_initialization_and_destruction_0ii
 531      FF
 532              	.LVL61:
 533 0223 4883C408 		addq	$8, %rsp
 534              		.cfi_def_cfa_offset 8
 535 0227 C3       		ret
 536              		.cfi_endproc
 537              	.LFE1828:
 539              		.section	.init_array,"aw"
 540              		.align 8
 541 0000 00000000 		.quad	_GLOBAL__sub_I__ZN10translator8containsEPcc
 541      00000000 
 542              		.local	_ZStL8__ioinit
 543              		.comm	_ZStL8__ioinit,1,1
 544              		.text
 545              	.Letext0:
 546              		.file 3 "/usr/include/c++/9.1.0/cwchar"
 547              		.file 4 "/usr/include/c++/9.1.0/new"
 548              		.file 5 "/usr/include/c++/9.1.0/bits/exception_ptr.h"
 549              		.file 6 "/usr/include/c++/9.1.0/type_traits"
 550              		.file 7 "/usr/include/c++/9.1.0/x86_64-pc-linux-gnu/bits/c++config.h"
 551              		.file 8 "/usr/include/c++/9.1.0/bits/stl_pair.h"
 552              		.file 9 "/usr/include/c++/9.1.0/debug/debug.h"
GAS LISTING /tmp/cc8uUIEp.s 			page 17


 553              		.file 10 "/usr/include/c++/9.1.0/bits/char_traits.h"
 554              		.file 11 "/usr/include/c++/9.1.0/cstdint"
 555              		.file 12 "/usr/include/c++/9.1.0/clocale"
 556              		.file 13 "/usr/include/c++/9.1.0/cstdlib"
 557              		.file 14 "/usr/include/c++/9.1.0/cstdio"
 558              		.file 15 "/usr/include/c++/9.1.0/system_error"
 559              		.file 16 "/usr/include/c++/9.1.0/bits/ios_base.h"
 560              		.file 17 "/usr/include/c++/9.1.0/cwctype"
 561              		.file 18 "/usr/include/c++/9.1.0/iosfwd"
 562              		.file 19 "/usr/include/c++/9.1.0/bits/predefined_ops.h"
 563              		.file 20 "/usr/include/c++/9.1.0/ext/new_allocator.h"
 564              		.file 21 "/usr/include/c++/9.1.0/ext/numeric_traits.h"
 565              		.file 22 "/usr/lib/gcc/x86_64-pc-linux-gnu/9.1.0/include/stddef.h"
 566              		.file 23 "<built-in>"
 567              		.file 24 "/usr/include/bits/types/wint_t.h"
 568              		.file 25 "/usr/include/bits/types/__mbstate_t.h"
 569              		.file 26 "/usr/include/bits/types/mbstate_t.h"
 570              		.file 27 "/usr/include/bits/types/__FILE.h"
 571              		.file 28 "/usr/include/bits/types/struct_FILE.h"
 572              		.file 29 "/usr/include/bits/types/FILE.h"
 573              		.file 30 "/usr/include/wchar.h"
 574              		.file 31 "/usr/include/bits/types/struct_tm.h"
 575              		.file 32 "/usr/include/bits/types.h"
 576              		.file 33 "/usr/include/bits/stdint-intn.h"
 577              		.file 34 "/usr/include/bits/stdint-uintn.h"
 578              		.file 35 "/usr/include/stdint.h"
 579              		.file 36 "/usr/include/locale.h"
 580              		.file 37 "/usr/include/time.h"
 581              		.file 38 "/usr/include/c++/9.1.0/x86_64-pc-linux-gnu/bits/atomic_word.h"
 582              		.file 39 "/usr/include/stdlib.h"
 583              		.file 40 "/usr/include/bits/stdlib-float.h"
 584              		.file 41 "/usr/include/bits/stdlib-bsearch.h"
 585              		.file 42 "/usr/include/bits/types/__fpos_t.h"
 586              		.file 43 "/usr/include/stdio.h"
 587              		.file 44 "/usr/include/bits/sys_errlist.h"
 588              		.file 45 "/usr/include/bits/stdio.h"
 589              		.file 46 "/usr/include/errno.h"
 590              		.file 47 "/usr/include/bits/wctype-wchar.h"
 591              		.file 48 "/usr/include/wctype.h"
 592              		.file 49 "Inc/strbase.hpp"
GAS LISTING /tmp/cc8uUIEp.s 			page 18


DEFINED SYMBOLS
                            *ABS*:0000000000000000 strbase.cpp
     /tmp/cc8uUIEp.s:5      .text:0000000000000000 _Z41__static_initialization_and_destruction_0ii
                             .bss:0000000000000000 _ZStL8__ioinit
     /tmp/cc8uUIEp.s:45     .text:000000000000003d _ZN10translator8containsEPcc
     /tmp/cc8uUIEp.s:81     .text:000000000000005b _ZN10translator6charAtEPcc
     /tmp/cc8uUIEp.s:119    .text:000000000000007a _ZN10translator10lastCharAtEPcc
     /tmp/cc8uUIEp.s:176    .text:00000000000000ad _ZN10translator6equalsEPcS0_
     /tmp/cc8uUIEp.s:239    .text:00000000000000f2 _ZN10translator6substrEPcS0_j
     /tmp/cc8uUIEp.s:281    .text:000000000000010e _ZN10translator6substrEPcS0_jj
     /tmp/cc8uUIEp.s:338    .text:0000000000000136 _ZN10translator5splitEPcS0_c
     /tmp/cc8uUIEp.s:413    .text:0000000000000177 _ZN10translator8parseCmdEPcPS0_PPFvvE
     /tmp/cc8uUIEp.s:522    .text:0000000000000210 _GLOBAL__sub_I__ZN10translator8containsEPcc

UNDEFINED SYMBOLS
_GLOBAL_OFFSET_TABLE_
_ZNSt8ios_base4InitC1Ev
__dso_handle
_ZNSt8ios_base4InitD1Ev
__cxa_atexit
__stack_chk_fail
