GAS LISTING /tmp/ccWzpZPI.s 			page 1


   1              		.file	"strbase.cpp"
   2              		.text
   3              	.Ltext0:
   4              		.globl	_ZN10translator8containsEPcc
   6              	_ZN10translator8containsEPcc:
   7              	.LFB14:
   8              		.file 1 "Src/strbase.cpp"
   1:Src/strbase.cpp **** #include "strbase.hpp"
   2:Src/strbase.cpp **** 
   3:Src/strbase.cpp **** namespace translator
   4:Src/strbase.cpp **** {
   5:Src/strbase.cpp ****     //checks if string c contains char cc
   6:Src/strbase.cpp ****     bool contains(char *c, const char cc)
   7:Src/strbase.cpp ****     {
   9              		.loc 1 7 5 view -0
  10              		.cfi_startproc
  11              	.LVL0:
  12              	.L3:
   8:Src/strbase.cpp ****         while(*c)
  13              		.loc 1 8 9 view .LVU1
  14              		.loc 1 8 15 is_stmt 0 view .LVU2
  15 0000 0FB607   		movzbl	(%rdi), %eax
  16              		.loc 1 8 16 view .LVU3
  17 0003 84C0     		testb	%al, %al
  18 0005 740B     		je	.L4
   9:Src/strbase.cpp ****         {
  10:Src/strbase.cpp ****             if(*c == cc)
  19              		.loc 1 10 13 is_stmt 1 view .LVU4
  20 0007 4038F0   		cmpb	%sil, %al
  21 000a 740C     		je	.L5
  11:Src/strbase.cpp ****                 return true;
  12:Src/strbase.cpp ****             c++;
  22              		.loc 1 12 13 view .LVU5
  23              		.loc 1 12 14 is_stmt 0 view .LVU6
  24 000c 4883C701 		addq	$1, %rdi
  25              	.LVL1:
   8:Src/strbase.cpp ****         {
  26              		.loc 1 8 9 view .LVU7
  27 0010 EBEE     		jmp	.L3
  28              	.LVL2:
  29              	.L4:
  13:Src/strbase.cpp ****         }
  14:Src/strbase.cpp ****         return false;
  30              		.loc 1 14 16 view .LVU8
  31 0012 B8000000 		movl	$0, %eax
  31      00
  32 0017 C3       		ret
  33              	.L5:
  11:Src/strbase.cpp ****             c++;
  34              		.loc 1 11 24 view .LVU9
  35 0018 B8010000 		movl	$1, %eax
  35      00
  15:Src/strbase.cpp ****     }
  36              		.loc 1 15 5 view .LVU10
  37 001d C3       		ret
  38              		.cfi_endproc
  39              	.LFE14:
GAS LISTING /tmp/ccWzpZPI.s 			page 2


  41              		.globl	_ZN10translator6charAtEPcc
  43              	_ZN10translator6charAtEPcc:
  44              	.LVL3:
  45              	.LFB15:
  16:Src/strbase.cpp **** 
  17:Src/strbase.cpp ****     //FIXME: bullshit because of native support
  18:Src/strbase.cpp ****     // //returns len of string c
  19:Src/strbase.cpp ****     // STR_LEN_DTYPE strlen(char *c)
  20:Src/strbase.cpp ****     // {
  21:Src/strbase.cpp ****     //     STR_LEN_DTYPE i = 0;
  22:Src/strbase.cpp ****     //     while(c[i])
  23:Src/strbase.cpp ****     //     {
  24:Src/strbase.cpp ****     //         i++;
  25:Src/strbase.cpp ****     //     }
  26:Src/strbase.cpp ****     //     return i;
  27:Src/strbase.cpp ****     // }
  28:Src/strbase.cpp **** 
  29:Src/strbase.cpp ****     //get first char, matching cc from string c
  30:Src/strbase.cpp ****     STR_LEN_DTYPE charAt(char *c, const char cc)
  31:Src/strbase.cpp ****     {
  46              		.loc 1 31 5 is_stmt 1 view -0
  47              		.cfi_startproc
  32:Src/strbase.cpp ****         STR_LEN_DTYPE i = 0;
  48              		.loc 1 32 9 view .LVU12
  49              		.loc 1 32 23 is_stmt 0 view .LVU13
  50 001e B8000000 		movl	$0, %eax
  50      00
  51              	.LVL4:
  52              	.L8:
  33:Src/strbase.cpp ****         while(c[i])
  53              		.loc 1 33 9 is_stmt 1 view .LVU14
  54              		.loc 1 33 17 is_stmt 0 view .LVU15
  55 0023 89C2     		movl	%eax, %edx
  56              		.loc 1 33 18 view .LVU16
  57 0025 0FB61417 		movzbl	(%rdi,%rdx), %edx
  58 0029 84D2     		testb	%dl, %dl
  59 002b 740A     		je	.L9
  34:Src/strbase.cpp ****         {
  35:Src/strbase.cpp ****             if(c[i] == cc)
  60              		.loc 1 35 13 is_stmt 1 view .LVU17
  61 002d 4038F2   		cmpb	%sil, %dl
  62 0030 740A     		je	.L6
  36:Src/strbase.cpp ****                 return i;
  37:Src/strbase.cpp ****             i++;
  63              		.loc 1 37 13 view .LVU18
  64              		.loc 1 37 14 is_stmt 0 view .LVU19
  65 0032 83C001   		addl	$1, %eax
  66              	.LVL5:
  33:Src/strbase.cpp ****         {
  67              		.loc 1 33 9 view .LVU20
  68 0035 EBEC     		jmp	.L8
  69              	.L9:
  38:Src/strbase.cpp ****         }
  39:Src/strbase.cpp ****         return str_NAN;
  70              		.loc 1 39 16 view .LVU21
  71 0037 B8FFFFFF 		movl	$-1, %eax
  71      FF
GAS LISTING /tmp/ccWzpZPI.s 			page 3


  72              	.LVL6:
  73              	.L6:
  40:Src/strbase.cpp ****     }
  74              		.loc 1 40 5 view .LVU22
  75 003c C3       		ret
  76              		.cfi_endproc
  77              	.LFE15:
  79              		.globl	_ZN10translator10lastCharAtEPcc
  81              	_ZN10translator10lastCharAtEPcc:
  82              	.LVL7:
  83              	.LFB16:
  41:Src/strbase.cpp **** 
  42:Src/strbase.cpp ****     //get last char, matching cc from string c
  43:Src/strbase.cpp ****     STR_LEN_DTYPE lastCharAt(char *c, const char cc)
  44:Src/strbase.cpp ****     {
  84              		.loc 1 44 5 is_stmt 1 view -0
  85              		.cfi_startproc
  86              		.loc 1 44 5 is_stmt 0 view .LVU24
  87 003d 4989F8   		movq	%rdi, %r8
  45:Src/strbase.cpp ****         STR_LEN_DTYPE i = strlen(c);
  88              		.loc 1 45 9 is_stmt 1 view .LVU25
  89              		.loc 1 45 33 is_stmt 0 view .LVU26
  90 0040 48C7C1FF 		movq	$-1, %rcx
  90      FFFFFF
  91 0047 B8000000 		movl	$0, %eax
  91      00
  92 004c F2AE     		repnz scasb
  93              	.LVL8:
  94              		.loc 1 45 33 view .LVU27
  95 004e 48F7D1   		notq	%rcx
  96              		.loc 1 45 23 view .LVU28
  97 0051 8D41FF   		leal	-1(%rcx), %eax
  98              	.LVL9:
  99              	.L12:
  46:Src/strbase.cpp ****         while(i && i != str_NAN)
 100              		.loc 1 46 9 is_stmt 1 view .LVU29
 101              		.loc 1 46 17 is_stmt 0 view .LVU30
 102 0054 83E801   		subl	$1, %eax
 103              	.LVL10:
 104              		.loc 1 46 17 view .LVU31
 105 0057 83F8FD   		cmpl	$-3, %eax
 106 005a 7709     		ja	.L13
  47:Src/strbase.cpp ****         {
  48:Src/strbase.cpp ****             i--;
 107              		.loc 1 48 13 is_stmt 1 view .LVU32
 108              	.LVL11:
  49:Src/strbase.cpp ****             if(c[i] == cc)
 109              		.loc 1 49 13 view .LVU33
 110              		.loc 1 49 18 is_stmt 0 view .LVU34
 111 005c 89C2     		movl	%eax, %edx
 112              		.loc 1 49 13 view .LVU35
 113 005e 41383410 		cmpb	%sil, (%r8,%rdx)
 114 0062 75F0     		jne	.L12
 115 0064 C3       		ret
 116              	.LVL12:
 117              	.L13:
  50:Src/strbase.cpp ****                 return i;
GAS LISTING /tmp/ccWzpZPI.s 			page 4


  51:Src/strbase.cpp ****         }
  52:Src/strbase.cpp ****         return str_NAN;
 118              		.loc 1 52 16 view .LVU36
 119 0065 B8FFFFFF 		movl	$-1, %eax
 119      FF
 120              	.LVL13:
  53:Src/strbase.cpp ****     }
 121              		.loc 1 53 5 view .LVU37
 122 006a C3       		ret
 123              		.cfi_endproc
 124              	.LFE16:
 126              	.Letext0:
 127              		.file 2 "/usr/include/bits/types.h"
 128              		.file 3 "/usr/include/bits/stdint-uintn.h"
 129              		.file 4 "Inc/strbase.hpp"
GAS LISTING /tmp/ccWzpZPI.s 			page 5


DEFINED SYMBOLS
                            *ABS*:0000000000000000 strbase.cpp
     /tmp/ccWzpZPI.s:6      .text:0000000000000000 _ZN10translator8containsEPcc
     /tmp/ccWzpZPI.s:43     .text:000000000000001e _ZN10translator6charAtEPcc
     /tmp/ccWzpZPI.s:81     .text:000000000000003d _ZN10translator10lastCharAtEPcc

NO UNDEFINED SYMBOLS
