GAS LISTING /tmp/cc6hL4kw.s 			page 1


   1              		.file	"translator.cpp"
   2              		.text
   3              	.Ltext0:
   5              	_Z41__static_initialization_and_destruction_0ii:
   6              	.LVL0:
   7              	.LFB1835:
   8              		.file 1 "Src/translator.cpp"
   1:Src/translator.cpp **** #include "translator.hpp"
   2:Src/translator.cpp **** 
   3:Src/translator.cpp **** namespace translator
   4:Src/translator.cpp **** {
   5:Src/translator.cpp ****     #ifdef USE_MULTIDEVICE
   6:Src/translator.cpp ****         const uint8_t SYS_LEN = 4;
   7:Src/translator.cpp ****     #else
   8:Src/translator.cpp ****         const uint8_t SYS_LEN = 3;
   9:Src/translator.cpp ****     #endif
  10:Src/translator.cpp ****     // using namespace std;
  11:Src/translator.cpp **** 
  12:Src/translator.cpp ****     //generate checksum for char array
  13:Src/translator.cpp ****     checksum_t genCheckSum(const uint8_t* c)
  14:Src/translator.cpp ****     {
  15:Src/translator.cpp ****         checksum_t ret = 1;
  16:Src/translator.cpp ****         uint8_t len = getLen(c);
  17:Src/translator.cpp ****         for(uint8_t i = 0; i < len + SYS_LEN; i++)
  18:Src/translator.cpp ****         {
  19:Src/translator.cpp ****             if(i != 1 && i != 2)
  20:Src/translator.cpp ****                 ret |= (c[i]) << (8 * ((i % 2) == 1));
  21:Src/translator.cpp ****         }
  22:Src/translator.cpp ****         return ret;
  23:Src/translator.cpp ****     }
  24:Src/translator.cpp **** 
  25:Src/translator.cpp ****     //get type of package
  26:Src/translator.cpp ****     uint8_t getType(const uint8_t* package)
  27:Src/translator.cpp ****     {
  28:Src/translator.cpp ****         return ((package[0] & (~LEN_MASK)) >> 6);
  29:Src/translator.cpp ****     }
  30:Src/translator.cpp **** 
  31:Src/translator.cpp **** 
  32:Src/translator.cpp ****     //parse input package, get payload, return type of package
  33:Src/translator.cpp ****     uint8_t parsePacket(uint8_t* package, uint8_t* payloadto)
  34:Src/translator.cpp ****     {
  35:Src/translator.cpp ****         uint8_t type = getType(package);
  36:Src/translator.cpp ****         if(type != TYPE_ARR && type != TYPE_CMD && type != TYPE_VAR)
  37:Src/translator.cpp ****             return TYPE_BAD_TYPE;
  38:Src/translator.cpp ****         uint8_t len = getLen(package);
  39:Src/translator.cpp ****         if(len == 0)
  40:Src/translator.cpp ****             return TYPE_BAD_LEN;
  41:Src/translator.cpp **** 
  42:Src/translator.cpp ****         if(genCheckSum(package) != getCheckSum(package))
  43:Src/translator.cpp ****             return TYPE_BAD_CHECKSUM;
  44:Src/translator.cpp **** 
  45:Src/translator.cpp **** 
  46:Src/translator.cpp ****         for(uint8_t i = 0; i < len; i++)
  47:Src/translator.cpp ****         {
  48:Src/translator.cpp ****             payloadto[i] = package[i + SYS_LEN];
  49:Src/translator.cpp ****         }
  50:Src/translator.cpp ****         return type;
GAS LISTING /tmp/cc6hL4kw.s 			page 2


  51:Src/translator.cpp ****     }
  52:Src/translator.cpp **** 
  53:Src/translator.cpp **** 
  54:Src/translator.cpp ****     //parse cmd from package, call funcArr[cmd], return type of package, max num of funcs - 255
  55:Src/translator.cpp ****     uint8_t parseCmd(uint8_t* package, void (*funcArr [])())
  56:Src/translator.cpp ****     {
  57:Src/translator.cpp ****         uint8_t var = getType(package);
  58:Src/translator.cpp ****         if(var != TYPE_CMD)
  59:Src/translator.cpp ****             return TYPE_BAD_TYPE;
  60:Src/translator.cpp **** 
  61:Src/translator.cpp ****         var = getLen(package);
  62:Src/translator.cpp ****         if(var != 1)
  63:Src/translator.cpp ****             return TYPE_BAD_LEN;
  64:Src/translator.cpp **** 
  65:Src/translator.cpp ****         checksum_t check = genCheckSum(package);
  66:Src/translator.cpp ****         if(check != getCheckSum(package))   
  67:Src/translator.cpp ****             return TYPE_BAD_CHECKSUM;
  68:Src/translator.cpp **** 
  69:Src/translator.cpp ****         if(funcArr[package[3]] != NULL)
  70:Src/translator.cpp ****             funcArr[package[3]]();
  71:Src/translator.cpp ****         return TYPE_CMD;
  72:Src/translator.cpp ****     }
  73:Src/translator.cpp **** 
  74:Src/translator.cpp ****     size_t parseCmd(uint8_t* package)
  75:Src/translator.cpp ****     {
  76:Src/translator.cpp ****         uint8_t var = getType(package);
  77:Src/translator.cpp ****         if(var != TYPE_CMD)
  78:Src/translator.cpp ****             return ~0;
  79:Src/translator.cpp **** 
  80:Src/translator.cpp ****         var = getLen(package);
  81:Src/translator.cpp ****         if(var != 1)
  82:Src/translator.cpp ****             return ~0;
  83:Src/translator.cpp **** 
  84:Src/translator.cpp ****         checksum_t check = genCheckSum(package);
  85:Src/translator.cpp ****         if(check != getCheckSum(package))
  86:Src/translator.cpp ****             return ~0;
  87:Src/translator.cpp ****         return package[3];
  88:Src/translator.cpp ****     }
  89:Src/translator.cpp **** 
  90:Src/translator.cpp **** 
  91:Src/translator.cpp ****     //get len of payload
  92:Src/translator.cpp ****     uint8_t getLen(const uint8_t* package)
  93:Src/translator.cpp ****     {
  94:Src/translator.cpp ****         return package[0] & LEN_MASK;
  95:Src/translator.cpp ****     }
  96:Src/translator.cpp **** 
  97:Src/translator.cpp ****     bool equals(const uint8_t* p1, const uint8_t* p2)
  98:Src/translator.cpp ****     {
  99:Src/translator.cpp ****         if(p1[0] != p2[0])
 100:Src/translator.cpp ****             return false;
 101:Src/translator.cpp **** 
 102:Src/translator.cpp ****         uint8_t len = getLen(p1);
 103:Src/translator.cpp ****         for(uint8_t i = 0; i < len; i++)
 104:Src/translator.cpp ****         {
 105:Src/translator.cpp ****             if(p1[i] != p2[i])
 106:Src/translator.cpp ****                 return false;
 107:Src/translator.cpp ****         }
GAS LISTING /tmp/cc6hL4kw.s 			page 3


 108:Src/translator.cpp ****         return true;
 109:Src/translator.cpp ****     }
 110:Src/translator.cpp **** 
 111:Src/translator.cpp ****     uint8_t getZeroByte(const uint8_t type, const uint8_t len)
 112:Src/translator.cpp ****     {
 113:Src/translator.cpp ****         return (uint8_t)(((type & 0b11) << 6) | (len & LEN_MASK));
 114:Src/translator.cpp ****     }
 115:Src/translator.cpp **** 
 116:Src/translator.cpp **** 
 117:Src/translator.cpp ****     checksum_t getCheckSum(const uint8_t* package)
 118:Src/translator.cpp ****     {
 119:Src/translator.cpp ****         return (package[1] << 8) | package[2];
 120:Src/translator.cpp ****     }
 121:Src/translator.cpp **** 
 122:Src/translator.cpp **** 
 123:Src/translator.cpp ****     //gets cmd num at 'cmd', returns final package into target pointer
 124:Src/translator.cpp ****     void generateCmd(const uint8_t cmd, uint8_t* tgt)
 125:Src/translator.cpp ****     {
 126:Src/translator.cpp ****         tgt[0] = getZeroByte(TYPE_CMD, 1);
 127:Src/translator.cpp ****         tgt[3] = cmd;
 128:Src/translator.cpp ****         checksum_t check = genCheckSum(tgt);
 129:Src/translator.cpp ****         tgt[1] = check >> 8;
 130:Src/translator.cpp ****         tgt[2] = check & 0xFF;
 131:Src/translator.cpp ****     }
 132:Src/translator.cpp **** 
 133:Src/translator.cpp **** 
 134:Src/translator.cpp ****     //validate checksum, type, len
 135:Src/translator.cpp ****     bool validate(const uint8_t* package)
 136:Src/translator.cpp ****     {
 137:Src/translator.cpp ****         uint8_t type = getType(package);
 138:Src/translator.cpp ****         switch (type)
 139:Src/translator.cpp ****         {
 140:Src/translator.cpp ****             case TYPE_CMD:
 141:Src/translator.cpp ****             {
 142:Src/translator.cpp ****                 if(getLen(package) != 1)
 143:Src/translator.cpp ****                     return false;
 144:Src/translator.cpp ****                 break;
 145:Src/translator.cpp ****             }
 146:Src/translator.cpp ****             case TYPE_VAR:
 147:Src/translator.cpp ****             case TYPE_ARR:
 148:Src/translator.cpp ****             {
 149:Src/translator.cpp ****                 if(getLen(package) <= 1)
 150:Src/translator.cpp ****                     return false;
 151:Src/translator.cpp ****                 break;
 152:Src/translator.cpp ****             }
 153:Src/translator.cpp ****             default:
 154:Src/translator.cpp ****                 return false;
 155:Src/translator.cpp ****         }
 156:Src/translator.cpp ****         return (getCheckSum(package) == genCheckSum(package));
 157:Src/translator.cpp ****     }
 158:Src/translator.cpp **** 
 159:Src/translator.cpp ****     //create var package
 160:Src/translator.cpp ****     void generateVar(const uint8_t id, const uint8_t varlen, const uint8_t* var, uint8_t* tgt)
 161:Src/translator.cpp ****     {
 162:Src/translator.cpp ****         tgt[0] = getZeroByte(TYPE_VAR, varlen + 1);
 163:Src/translator.cpp ****         tgt[3] = id;
 164:Src/translator.cpp ****         for(uint8_t i = 0; i < varlen; i++)
GAS LISTING /tmp/cc6hL4kw.s 			page 4


 165:Src/translator.cpp ****         {
 166:Src/translator.cpp ****             tgt[4 + i] = var[varlen - i - 1];
 167:Src/translator.cpp ****             // std::cout << "from " << (int)(i) << " to " << (int)(i + 4) << " set 0x" << std::hex 
 168:Src/translator.cpp ****         }
 169:Src/translator.cpp ****         checksum_t check = genCheckSum(tgt);
 170:Src/translator.cpp ****         tgt[1] = check >> 8;
 171:Src/translator.cpp ****         tgt[2] = check & 0xFF;
 172:Src/translator.cpp ****     }
 173:Src/translator.cpp **** 
 174:Src/translator.cpp **** 
 175:Src/translator.cpp ****     //parse var from var package and write into toArr[id], return type of package
 176:Src/translator.cpp ****     uint8_t parseVar(uint8_t* package, uint8_t* toArr, uint8_t elsize)
 177:Src/translator.cpp ****     {
 178:Src/translator.cpp ****         uint8_t type = getType(package);
 179:Src/translator.cpp ****         if(type != TYPE_VAR)
 180:Src/translator.cpp ****             return TYPE_BAD_TYPE;
 181:Src/translator.cpp ****         uint8_t len = getLen(package);
 182:Src/translator.cpp ****         if(len < 2)
 183:Src/translator.cpp ****             return TYPE_BAD_LEN;
 184:Src/translator.cpp ****         checksum_t  check = genCheckSum(package),
 185:Src/translator.cpp ****                     thischeck = getCheckSum(package);
 186:Src/translator.cpp ****         if(check != thischeck)
 187:Src/translator.cpp ****             return TYPE_BAD_CHECKSUM;
 188:Src/translator.cpp **** 
 189:Src/translator.cpp ****         uint8_t id = package[3];
 190:Src/translator.cpp ****         for(uint8_t i = 0; i < len - 1; i++)
 191:Src/translator.cpp ****         {
 192:Src/translator.cpp ****             toArr[(id + i) * elsize] = package[i + 4];
 193:Src/translator.cpp ****             // std::cout << "from " << (int)((id + i) * elsize) << " to " << (int)(i + 4) << std::e
 194:Src/translator.cpp ****         }
 195:Src/translator.cpp ****         return TYPE_VAR;
 196:Src/translator.cpp ****     }
 197:Src/translator.cpp ****     
 198:Src/translator.cpp ****     
 199:Src/translator.cpp ****     //create array package
 200:Src/translator.cpp ****     void generateArr(const uint8_t id, const uint8_t arrlen, const uint8_t elsize, const uint8_t* a
 201:Src/translator.cpp ****     {
 202:Src/translator.cpp ****         tgt[0] = getZeroByte(TYPE_ARR, (arrlen * elsize) + 1);
 203:Src/translator.cpp ****         tgt[3] = id;
 204:Src/translator.cpp ****         for(uint8_t i = 0; i < arrlen; i++)
 205:Src/translator.cpp ****         {
 206:Src/translator.cpp ****             for(uint8_t j = 0; j < elsize; j++)
 207:Src/translator.cpp ****             {
 208:Src/translator.cpp ****                 tgt[4 + (i * elsize) + j] = arr[(i * elsize) + (elsize - j - 1)];
 209:Src/translator.cpp ****             }
 210:Src/translator.cpp ****         }
 211:Src/translator.cpp ****         checksum_t check = genCheckSum(tgt);
 212:Src/translator.cpp ****         tgt[1] = check >> 8;
 213:Src/translator.cpp ****         tgt[2] = check & 0xFF;
 214:Src/translator.cpp ****     }
 215:Src/translator.cpp ****     
 216:Src/translator.cpp ****     
 217:Src/translator.cpp ****     //parse array from array package and write into toArr[id], return type of package
 218:Src/translator.cpp ****     uint8_t parseArr(uint8_t* package, uint8_t** toArr)
 219:Src/translator.cpp ****     {
 220:Src/translator.cpp ****         uint8_t type = getType(package);
 221:Src/translator.cpp ****         if(type != TYPE_ARR)
GAS LISTING /tmp/cc6hL4kw.s 			page 5


 222:Src/translator.cpp ****             return TYPE_BAD_TYPE;
 223:Src/translator.cpp ****         uint8_t len = getLen(package);
 224:Src/translator.cpp ****         if(len < 2)
 225:Src/translator.cpp ****             return TYPE_BAD_LEN;
 226:Src/translator.cpp ****         checksum_t  check = genCheckSum(package),
 227:Src/translator.cpp ****                     thischeck = getCheckSum(package);
 228:Src/translator.cpp ****         if(check != thischeck)
 229:Src/translator.cpp ****             return TYPE_BAD_CHECKSUM;
 230:Src/translator.cpp **** 
 231:Src/translator.cpp ****         uint8_t id = package[3];
 232:Src/translator.cpp ****         for(uint8_t i = 0; i < len - 1; i++)
 233:Src/translator.cpp ****         {
 234:Src/translator.cpp ****             toArr[id][i] = package[4 + i];
 235:Src/translator.cpp ****         }
 236:Src/translator.cpp ****         return TYPE_ARR;
 237:Src/translator.cpp ****     }
 238:Src/translator.cpp ****     
 239:Src/translator.cpp ****     
 240:Src/translator.cpp ****     //check for package is full
 241:Src/translator.cpp ****     bool isFull(uint8_t* package, const uint8_t len)
 242:Src/translator.cpp ****     {
 243:Src/translator.cpp ****         if(len < 3)
 244:Src/translator.cpp ****             return false;
 245:Src/translator.cpp ****         if((getLen(package) + 3) != len)
 246:Src/translator.cpp ****             return false;
 247:Src/translator.cpp ****         switch (getType(package))
 248:Src/translator.cpp ****         {
 249:Src/translator.cpp ****             case TYPE_CMD:
 250:Src/translator.cpp ****             {
 251:Src/translator.cpp ****                 if(getLen(package) != 1)
 252:Src/translator.cpp ****                     return false;
 253:Src/translator.cpp ****                 break;
 254:Src/translator.cpp ****             }
 255:Src/translator.cpp ****             case TYPE_VAR:
 256:Src/translator.cpp ****             case TYPE_ARR:
 257:Src/translator.cpp ****             {
 258:Src/translator.cpp ****                 if(getLen(package) <= 1)
 259:Src/translator.cpp ****                     return false;
 260:Src/translator.cpp ****                 break;
 261:Src/translator.cpp ****             }
 262:Src/translator.cpp ****             default:
 263:Src/translator.cpp ****                 return false;
 264:Src/translator.cpp ****         }
 265:Src/translator.cpp ****         return true;
 266:Src/translator.cpp ****     }
 267:Src/translator.cpp **** }
   9              		.loc 1 267 1 view -0
  10              		.cfi_startproc
  11              		.loc 1 267 1 is_stmt 0 view .LVU1
  12 0000 83FF01   		cmpl	$1, %edi
  13 0003 7401     		je	.L7
  14              	.L4:
  15 0005 C3       		ret
  16              	.L7:
  17              		.loc 1 267 1 discriminator 1 view .LVU2
  18 0006 81FEFFFF 		cmpl	$65535, %esi
  18      0000
GAS LISTING /tmp/cc6hL4kw.s 			page 6


  19 000c 75F7     		jne	.L4
  20              		.loc 1 267 1 view .LVU3
  21 000e 4883EC08 		subq	$8, %rsp
  22              		.cfi_def_cfa_offset 16
  23              		.file 2 "/usr/include/c++/9.2.0/iostream"
   1:/usr/include/c++/9.2.0/iostream **** // Standard iostream objects -*- C++ -*-
   2:/usr/include/c++/9.2.0/iostream **** 
   3:/usr/include/c++/9.2.0/iostream **** // Copyright (C) 1997-2019 Free Software Foundation, Inc.
   4:/usr/include/c++/9.2.0/iostream **** //
   5:/usr/include/c++/9.2.0/iostream **** // This file is part of the GNU ISO C++ Library.  This library is free
   6:/usr/include/c++/9.2.0/iostream **** // software; you can redistribute it and/or modify it under the
   7:/usr/include/c++/9.2.0/iostream **** // terms of the GNU General Public License as published by the
   8:/usr/include/c++/9.2.0/iostream **** // Free Software Foundation; either version 3, or (at your option)
   9:/usr/include/c++/9.2.0/iostream **** // any later version.
  10:/usr/include/c++/9.2.0/iostream **** 
  11:/usr/include/c++/9.2.0/iostream **** // This library is distributed in the hope that it will be useful,
  12:/usr/include/c++/9.2.0/iostream **** // but WITHOUT ANY WARRANTY; without even the implied warranty of
  13:/usr/include/c++/9.2.0/iostream **** // MERCHANTABILITY or FITNESS FOR A PARTICULAR PURPOSE.  See the
  14:/usr/include/c++/9.2.0/iostream **** // GNU General Public License for more details.
  15:/usr/include/c++/9.2.0/iostream **** 
  16:/usr/include/c++/9.2.0/iostream **** // Under Section 7 of GPL version 3, you are granted additional
  17:/usr/include/c++/9.2.0/iostream **** // permissions described in the GCC Runtime Library Exception, version
  18:/usr/include/c++/9.2.0/iostream **** // 3.1, as published by the Free Software Foundation.
  19:/usr/include/c++/9.2.0/iostream **** 
  20:/usr/include/c++/9.2.0/iostream **** // You should have received a copy of the GNU General Public License and
  21:/usr/include/c++/9.2.0/iostream **** // a copy of the GCC Runtime Library Exception along with this program;
  22:/usr/include/c++/9.2.0/iostream **** // see the files COPYING3 and COPYING.RUNTIME respectively.  If not, see
  23:/usr/include/c++/9.2.0/iostream **** // <http://www.gnu.org/licenses/>.
  24:/usr/include/c++/9.2.0/iostream **** 
  25:/usr/include/c++/9.2.0/iostream **** /** @file include/iostream
  26:/usr/include/c++/9.2.0/iostream ****  *  This is a Standard C++ Library header.
  27:/usr/include/c++/9.2.0/iostream ****  */
  28:/usr/include/c++/9.2.0/iostream **** 
  29:/usr/include/c++/9.2.0/iostream **** //
  30:/usr/include/c++/9.2.0/iostream **** // ISO C++ 14882: 27.3  Standard iostream objects
  31:/usr/include/c++/9.2.0/iostream **** //
  32:/usr/include/c++/9.2.0/iostream **** 
  33:/usr/include/c++/9.2.0/iostream **** #ifndef _GLIBCXX_IOSTREAM
  34:/usr/include/c++/9.2.0/iostream **** #define _GLIBCXX_IOSTREAM 1
  35:/usr/include/c++/9.2.0/iostream **** 
  36:/usr/include/c++/9.2.0/iostream **** #pragma GCC system_header
  37:/usr/include/c++/9.2.0/iostream **** 
  38:/usr/include/c++/9.2.0/iostream **** #include <bits/c++config.h>
  39:/usr/include/c++/9.2.0/iostream **** #include <ostream>
  40:/usr/include/c++/9.2.0/iostream **** #include <istream>
  41:/usr/include/c++/9.2.0/iostream **** 
  42:/usr/include/c++/9.2.0/iostream **** namespace std _GLIBCXX_VISIBILITY(default)
  43:/usr/include/c++/9.2.0/iostream **** {
  44:/usr/include/c++/9.2.0/iostream **** _GLIBCXX_BEGIN_NAMESPACE_VERSION
  45:/usr/include/c++/9.2.0/iostream **** 
  46:/usr/include/c++/9.2.0/iostream ****   /**
  47:/usr/include/c++/9.2.0/iostream ****    *  @name Standard Stream Objects
  48:/usr/include/c++/9.2.0/iostream ****    *
  49:/usr/include/c++/9.2.0/iostream ****    *  The &lt;iostream&gt; header declares the eight <em>standard stream
  50:/usr/include/c++/9.2.0/iostream ****    *  objects</em>.  For other declarations, see
  51:/usr/include/c++/9.2.0/iostream ****    *  http://gcc.gnu.org/onlinedocs/libstdc++/manual/io.html
  52:/usr/include/c++/9.2.0/iostream ****    *  and the @link iosfwd I/O forward declarations @endlink
GAS LISTING /tmp/cc6hL4kw.s 			page 7


  53:/usr/include/c++/9.2.0/iostream ****    *
  54:/usr/include/c++/9.2.0/iostream ****    *  They are required by default to cooperate with the global C
  55:/usr/include/c++/9.2.0/iostream ****    *  library's @c FILE streams, and to be available during program
  56:/usr/include/c++/9.2.0/iostream ****    *  startup and termination. For more information, see the section of the
  57:/usr/include/c++/9.2.0/iostream ****    *  manual linked to above.
  58:/usr/include/c++/9.2.0/iostream ****   */
  59:/usr/include/c++/9.2.0/iostream ****   //@{
  60:/usr/include/c++/9.2.0/iostream ****   extern istream cin;		/// Linked to standard input
  61:/usr/include/c++/9.2.0/iostream ****   extern ostream cout;		/// Linked to standard output
  62:/usr/include/c++/9.2.0/iostream ****   extern ostream cerr;		/// Linked to standard error (unbuffered)
  63:/usr/include/c++/9.2.0/iostream ****   extern ostream clog;		/// Linked to standard error (buffered)
  64:/usr/include/c++/9.2.0/iostream **** 
  65:/usr/include/c++/9.2.0/iostream **** #ifdef _GLIBCXX_USE_WCHAR_T
  66:/usr/include/c++/9.2.0/iostream ****   extern wistream wcin;		/// Linked to standard input
  67:/usr/include/c++/9.2.0/iostream ****   extern wostream wcout;	/// Linked to standard output
  68:/usr/include/c++/9.2.0/iostream ****   extern wostream wcerr;	/// Linked to standard error (unbuffered)
  69:/usr/include/c++/9.2.0/iostream ****   extern wostream wclog;	/// Linked to standard error (buffered)
  70:/usr/include/c++/9.2.0/iostream **** #endif
  71:/usr/include/c++/9.2.0/iostream ****   //@}
  72:/usr/include/c++/9.2.0/iostream **** 
  73:/usr/include/c++/9.2.0/iostream ****   // For construction of filebuffers for cout, cin, cerr, clog et. al.
  74:/usr/include/c++/9.2.0/iostream ****   static ios_base::Init __ioinit;
  24              		.loc 2 74 25 view .LVU4
  25 0012 488D3D00 		leaq	_ZStL8__ioinit(%rip), %rdi
  25      000000
  26              	.LVL1:
  27              		.loc 2 74 25 view .LVU5
  28 0019 E8000000 		call	_ZNSt8ios_base4InitC1Ev@PLT
  28      00
  29              	.LVL2:
  30              		.loc 2 74 25 view .LVU6
  31 001e 488D1500 		leaq	__dso_handle(%rip), %rdx
  31      000000
  32 0025 488D3500 		leaq	_ZStL8__ioinit(%rip), %rsi
  32      000000
  33 002c 488B3D00 		movq	_ZNSt8ios_base4InitD1Ev@GOTPCREL(%rip), %rdi
  33      000000
  34 0033 E8000000 		call	__cxa_atexit@PLT
  34      00
  35              	.LVL3:
  36              		.loc 1 267 1 view .LVU7
  37 0038 4883C408 		addq	$8, %rsp
  38              		.cfi_def_cfa_offset 8
  39 003c C3       		ret
  40              		.cfi_endproc
  41              	.LFE1835:
  43              		.globl	_ZN10translator7getTypeEPKh
  45              	_ZN10translator7getTypeEPKh:
  46              	.LVL4:
  47              	.LFB1504:
  27:Src/translator.cpp ****         return ((package[0] & (~LEN_MASK)) >> 6);
  48              		.loc 1 27 5 is_stmt 1 view -0
  49              		.cfi_startproc
  28:Src/translator.cpp ****     }
  50              		.loc 1 28 9 view .LVU9
  28:Src/translator.cpp ****     }
  51              		.loc 1 28 27 is_stmt 0 view .LVU10
GAS LISTING /tmp/cc6hL4kw.s 			page 8


  52 003d 0FB607   		movzbl	(%rdi), %eax
  28:Src/translator.cpp ****     }
  53              		.loc 1 28 44 view .LVU11
  54 0040 C1F806   		sarl	$6, %eax
  29:Src/translator.cpp **** 
  55              		.loc 1 29 5 view .LVU12
  56 0043 C3       		ret
  57              		.cfi_endproc
  58              	.LFE1504:
  60              		.globl	_ZN10translator6getLenEPKh
  62              	_ZN10translator6getLenEPKh:
  63              	.LVL5:
  64              	.LFB1508:
  93:Src/translator.cpp ****         return package[0] & LEN_MASK;
  65              		.loc 1 93 5 is_stmt 1 view -0
  66              		.cfi_startproc
  94:Src/translator.cpp ****     }
  67              		.loc 1 94 9 view .LVU14
  94:Src/translator.cpp ****     }
  68              		.loc 1 94 27 is_stmt 0 view .LVU15
  69 0044 0FB607   		movzbl	(%rdi), %eax
  94:Src/translator.cpp ****     }
  70              		.loc 1 94 29 view .LVU16
  71 0047 83E03F   		andl	$63, %eax
  95:Src/translator.cpp **** 
  72              		.loc 1 95 5 view .LVU17
  73 004a C3       		ret
  74              		.cfi_endproc
  75              	.LFE1508:
  77              		.globl	_ZN10translator11genCheckSumEPKh
  79              	_ZN10translator11genCheckSumEPKh:
  80              	.LVL6:
  81              	.LFB1503:
  14:Src/translator.cpp ****         checksum_t ret = 1;
  82              		.loc 1 14 5 is_stmt 1 view -0
  83              		.cfi_startproc
  14:Src/translator.cpp ****         checksum_t ret = 1;
  84              		.loc 1 14 5 is_stmt 0 view .LVU19
  85 004b 53       		pushq	%rbx
  86              		.cfi_def_cfa_offset 16
  87              		.cfi_offset 3, -16
  88 004c 4889FB   		movq	%rdi, %rbx
  15:Src/translator.cpp ****         uint8_t len = getLen(c);
  89              		.loc 1 15 9 is_stmt 1 view .LVU20
  90              	.LVL7:
  16:Src/translator.cpp ****         for(uint8_t i = 0; i < len + SYS_LEN; i++)
  91              		.loc 1 16 9 view .LVU21
  16:Src/translator.cpp ****         for(uint8_t i = 0; i < len + SYS_LEN; i++)
  92              		.loc 1 16 29 is_stmt 0 view .LVU22
  93 004f E8000000 		call	_ZN10translator6getLenEPKh
  93      00
  94              	.LVL8:
  17:Src/translator.cpp ****         {
  95              		.loc 1 17 9 is_stmt 1 view .LVU23
  96              	.LBB2:
  17:Src/translator.cpp ****         {
  97              		.loc 1 17 21 is_stmt 0 view .LVU24
GAS LISTING /tmp/cc6hL4kw.s 			page 9


  98 0054 BE000000 		movl	$0, %esi
  98      00
  99              	.LBE2:
  15:Src/translator.cpp ****         uint8_t len = getLen(c);
 100              		.loc 1 15 20 view .LVU25
 101 0059 BF010000 		movl	$1, %edi
 101      00
 102 005e EB03     		jmp	.L13
 103              	.LVL9:
 104              	.L12:
 105              	.LBB3:
  17:Src/translator.cpp ****         {
 106              		.loc 1 17 9 is_stmt 1 discriminator 2 view .LVU26
 107 0060 83C601   		addl	$1, %esi
 108              	.LVL10:
 109              	.L13:
  17:Src/translator.cpp ****         {
 110              		.loc 1 17 30 discriminator 1 view .LVU27
  17:Src/translator.cpp ****         {
 111              		.loc 1 17 32 is_stmt 0 discriminator 1 view .LVU28
 112 0063 0FB6D0   		movzbl	%al, %edx
  17:Src/translator.cpp ****         {
 113              		.loc 1 17 28 discriminator 1 view .LVU29
 114 0066 400FB6CE 		movzbl	%sil, %ecx
  17:Src/translator.cpp ****         {
 115              		.loc 1 17 30 discriminator 1 view .LVU30
 116 006a 83C202   		addl	$2, %edx
 117 006d 39CA     		cmpl	%ecx, %edx
 118 006f 7C1C     		jl	.L10
  19:Src/translator.cpp ****                 ret |= (c[i]) << (8 * ((i % 2) == 1));
 119              		.loc 1 19 13 is_stmt 1 view .LVU31
  19:Src/translator.cpp ****                 ret |= (c[i]) << (8 * ((i % 2) == 1));
 120              		.loc 1 19 23 is_stmt 0 view .LVU32
 121 0071 8D56FF   		leal	-1(%rsi), %edx
  19:Src/translator.cpp ****                 ret |= (c[i]) << (8 * ((i % 2) == 1));
 122              		.loc 1 19 13 view .LVU33
 123 0074 80FA01   		cmpb	$1, %dl
 124 0077 76E7     		jbe	.L12
  20:Src/translator.cpp ****         }
 125              		.loc 1 20 17 is_stmt 1 view .LVU34
  20:Src/translator.cpp ****         }
 126              		.loc 1 20 27 is_stmt 0 view .LVU35
 127 0079 400FB6D6 		movzbl	%sil, %edx
  20:Src/translator.cpp ****         }
 128              		.loc 1 20 28 view .LVU36
 129 007d 0FB61413 		movzbl	(%rbx,%rdx), %edx
  20:Src/translator.cpp ****         }
 130              		.loc 1 20 37 view .LVU37
 131 0081 C1E103   		sall	$3, %ecx
 132 0084 83E108   		andl	$8, %ecx
  20:Src/translator.cpp ****         }
 133              		.loc 1 20 31 view .LVU38
 134 0087 D3E2     		sall	%cl, %edx
  20:Src/translator.cpp ****         }
 135              		.loc 1 20 21 view .LVU39
 136 0089 09D7     		orl	%edx, %edi
 137              	.LVL11:
GAS LISTING /tmp/cc6hL4kw.s 			page 10


  20:Src/translator.cpp ****         }
 138              		.loc 1 20 21 view .LVU40
 139 008b EBD3     		jmp	.L12
 140              	.LVL12:
 141              	.L10:
  20:Src/translator.cpp ****         }
 142              		.loc 1 20 21 view .LVU41
 143              	.LBE3:
  23:Src/translator.cpp **** 
 144              		.loc 1 23 5 view .LVU42
 145 008d 89F8     		movl	%edi, %eax
 146              	.LVL13:
  23:Src/translator.cpp **** 
 147              		.loc 1 23 5 view .LVU43
 148 008f 5B       		popq	%rbx
 149              		.cfi_def_cfa_offset 8
 150              	.LVL14:
  23:Src/translator.cpp **** 
 151              		.loc 1 23 5 view .LVU44
 152 0090 C3       		ret
 153              		.cfi_endproc
 154              	.LFE1503:
 156              		.globl	_ZN10translator6equalsEPKhS1_
 158              	_ZN10translator6equalsEPKhS1_:
 159              	.LVL15:
 160              	.LFB1509:
  98:Src/translator.cpp ****         if(p1[0] != p2[0])
 161              		.loc 1 98 5 is_stmt 1 view -0
 162              		.cfi_startproc
  99:Src/translator.cpp ****             return false;
 163              		.loc 1 99 9 view .LVU46
 164 0091 0FB606   		movzbl	(%rsi), %eax
 165 0094 3807     		cmpb	%al, (%rdi)
 166 0096 7529     		jne	.L18
  98:Src/translator.cpp ****         if(p1[0] != p2[0])
 167              		.loc 1 98 5 is_stmt 0 view .LVU47
 168 0098 55       		pushq	%rbp
 169              		.cfi_def_cfa_offset 16
 170              		.cfi_offset 6, -16
 171 0099 53       		pushq	%rbx
 172              		.cfi_def_cfa_offset 24
 173              		.cfi_offset 3, -24
 174 009a 4889FB   		movq	%rdi, %rbx
 175 009d 4889F5   		movq	%rsi, %rbp
 102:Src/translator.cpp ****         for(uint8_t i = 0; i < len; i++)
 176              		.loc 1 102 9 is_stmt 1 view .LVU48
 102:Src/translator.cpp ****         for(uint8_t i = 0; i < len; i++)
 177              		.loc 1 102 29 is_stmt 0 view .LVU49
 178 00a0 E8000000 		call	_ZN10translator6getLenEPKh
 178      00
 179              	.LVL16:
 103:Src/translator.cpp ****         {
 180              		.loc 1 103 9 is_stmt 1 view .LVU50
 181              	.LBB4:
 103:Src/translator.cpp ****         {
 182              		.loc 1 103 21 is_stmt 0 view .LVU51
 183 00a5 BA000000 		movl	$0, %edx
GAS LISTING /tmp/cc6hL4kw.s 			page 11


 183      00
 184              	.LVL17:
 185              	.L17:
 103:Src/translator.cpp ****         {
 186              		.loc 1 103 30 is_stmt 1 discriminator 1 view .LVU52
 187 00aa 38C2     		cmpb	%al, %dl
 188 00ac 7319     		jnb	.L19
 105:Src/translator.cpp ****                 return false;
 189              		.loc 1 105 13 view .LVU53
 105:Src/translator.cpp ****                 return false;
 190              		.loc 1 105 19 is_stmt 0 view .LVU54
 191 00ae 0FB6CA   		movzbl	%dl, %ecx
 105:Src/translator.cpp ****                 return false;
 192              		.loc 1 105 13 view .LVU55
 193 00b1 0FB6740D 		movzbl	0(%rbp,%rcx), %esi
 193      00
 194 00b6 4038340B 		cmpb	%sil, (%rbx,%rcx)
 195 00ba 7513     		jne	.L20
 103:Src/translator.cpp ****         {
 196              		.loc 1 103 9 is_stmt 1 discriminator 2 view .LVU56
 197 00bc 83C201   		addl	$1, %edx
 198              	.LVL18:
 103:Src/translator.cpp ****         {
 199              		.loc 1 103 9 is_stmt 0 discriminator 2 view .LVU57
 200 00bf EBE9     		jmp	.L17
 201              	.LVL19:
 202              	.L18:
 203              		.cfi_def_cfa_offset 8
 204              		.cfi_restore 3
 205              		.cfi_restore 6
 103:Src/translator.cpp ****         {
 206              		.loc 1 103 9 discriminator 2 view .LVU58
 207              	.LBE4:
 100:Src/translator.cpp **** 
 208              		.loc 1 100 20 view .LVU59
 209 00c1 B8000000 		movl	$0, %eax
 209      00
 109:Src/translator.cpp **** 
 210              		.loc 1 109 5 view .LVU60
 211 00c6 C3       		ret
 212              	.LVL20:
 213              	.L19:
 214              		.cfi_def_cfa_offset 24
 215              		.cfi_offset 3, -24
 216              		.cfi_offset 6, -16
 108:Src/translator.cpp ****     }
 217              		.loc 1 108 16 view .LVU61
 218 00c7 B8010000 		movl	$1, %eax
 218      00
 219              	.LVL21:
 220              	.L15:
 109:Src/translator.cpp **** 
 221              		.loc 1 109 5 view .LVU62
 222 00cc 5B       		popq	%rbx
 223              		.cfi_remember_state
 224              		.cfi_def_cfa_offset 16
 225              	.LVL22:
GAS LISTING /tmp/cc6hL4kw.s 			page 12


 109:Src/translator.cpp **** 
 226              		.loc 1 109 5 view .LVU63
 227 00cd 5D       		popq	%rbp
 228              		.cfi_def_cfa_offset 8
 229              	.LVL23:
 109:Src/translator.cpp **** 
 230              		.loc 1 109 5 view .LVU64
 231 00ce C3       		ret
 232              	.LVL24:
 233              	.L20:
 234              		.cfi_restore_state
 235              	.LBB5:
 106:Src/translator.cpp ****         }
 236              		.loc 1 106 24 view .LVU65
 237 00cf B8000000 		movl	$0, %eax
 237      00
 238              	.LVL25:
 106:Src/translator.cpp ****         }
 239              		.loc 1 106 24 view .LVU66
 240 00d4 EBF6     		jmp	.L15
 241              	.LBE5:
 242              		.cfi_endproc
 243              	.LFE1509:
 245              		.globl	_ZN10translator11getZeroByteEhh
 247              	_ZN10translator11getZeroByteEhh:
 248              	.LVL26:
 249              	.LFB1510:
 112:Src/translator.cpp ****         return (uint8_t)(((type & 0b11) << 6) | (len & LEN_MASK));
 250              		.loc 1 112 5 is_stmt 1 view -0
 251              		.cfi_startproc
 113:Src/translator.cpp ****     }
 252              		.loc 1 113 9 view .LVU68
 113:Src/translator.cpp ****     }
 253              		.loc 1 113 33 is_stmt 0 view .LVU69
 254 00d6 400FB6C7 		movzbl	%dil, %eax
 113:Src/translator.cpp ****     }
 255              		.loc 1 113 41 view .LVU70
 256 00da C1E006   		sall	$6, %eax
 113:Src/translator.cpp ****     }
 257              		.loc 1 113 54 view .LVU71
 258 00dd 83E63F   		andl	$63, %esi
 259              	.LVL27:
 113:Src/translator.cpp ****     }
 260              		.loc 1 113 47 view .LVU72
 261 00e0 09F0     		orl	%esi, %eax
 114:Src/translator.cpp **** 
 262              		.loc 1 114 5 view .LVU73
 263 00e2 C3       		ret
 264              		.cfi_endproc
 265              	.LFE1510:
 267              		.globl	_ZN10translator11getCheckSumEPKh
 269              	_ZN10translator11getCheckSumEPKh:
 270              	.LVL28:
 271              	.LFB1511:
 118:Src/translator.cpp ****         return (package[1] << 8) | package[2];
 272              		.loc 1 118 5 is_stmt 1 view -0
 273              		.cfi_startproc
GAS LISTING /tmp/cc6hL4kw.s 			page 13


 119:Src/translator.cpp ****     }
 274              		.loc 1 119 9 view .LVU75
 119:Src/translator.cpp ****     }
 275              		.loc 1 119 26 is_stmt 0 view .LVU76
 276 00e3 0FB64701 		movzbl	1(%rdi), %eax
 119:Src/translator.cpp ****     }
 277              		.loc 1 119 28 view .LVU77
 278 00e7 C1E008   		sall	$8, %eax
 279 00ea 89C2     		movl	%eax, %edx
 119:Src/translator.cpp ****     }
 280              		.loc 1 119 45 view .LVU78
 281 00ec 0FB64702 		movzbl	2(%rdi), %eax
 119:Src/translator.cpp ****     }
 282              		.loc 1 119 34 view .LVU79
 283 00f0 09D0     		orl	%edx, %eax
 120:Src/translator.cpp **** 
 284              		.loc 1 120 5 view .LVU80
 285 00f2 C3       		ret
 286              		.cfi_endproc
 287              	.LFE1511:
 289              		.globl	_ZN10translator11parsePacketEPhS0_
 291              	_ZN10translator11parsePacketEPhS0_:
 292              	.LVL29:
 293              	.LFB1505:
  34:Src/translator.cpp ****         uint8_t type = getType(package);
 294              		.loc 1 34 5 is_stmt 1 view -0
 295              		.cfi_startproc
  34:Src/translator.cpp ****         uint8_t type = getType(package);
 296              		.loc 1 34 5 is_stmt 0 view .LVU82
 297 00f3 4156     		pushq	%r14
 298              		.cfi_def_cfa_offset 16
 299              		.cfi_offset 14, -16
 300 00f5 4155     		pushq	%r13
 301              		.cfi_def_cfa_offset 24
 302              		.cfi_offset 13, -24
 303 00f7 4154     		pushq	%r12
 304              		.cfi_def_cfa_offset 32
 305              		.cfi_offset 12, -32
 306 00f9 55       		pushq	%rbp
 307              		.cfi_def_cfa_offset 40
 308              		.cfi_offset 6, -40
 309 00fa 53       		pushq	%rbx
 310              		.cfi_def_cfa_offset 48
 311              		.cfi_offset 3, -48
 312 00fb 4889FB   		movq	%rdi, %rbx
 313 00fe 4989F5   		movq	%rsi, %r13
  35:Src/translator.cpp ****         if(type != TYPE_ARR && type != TYPE_CMD && type != TYPE_VAR)
 314              		.loc 1 35 9 is_stmt 1 view .LVU83
  35:Src/translator.cpp ****         if(type != TYPE_ARR && type != TYPE_CMD && type != TYPE_VAR)
 315              		.loc 1 35 31 is_stmt 0 view .LVU84
 316 0101 E8000000 		call	_ZN10translator7getTypeEPKh
 316      00
 317              	.LVL30:
  35:Src/translator.cpp ****         if(type != TYPE_ARR && type != TYPE_CMD && type != TYPE_VAR)
 318              		.loc 1 35 31 view .LVU85
 319 0106 89C5     		movl	%eax, %ebp
 320              	.LVL31:
GAS LISTING /tmp/cc6hL4kw.s 			page 14


  36:Src/translator.cpp ****             return TYPE_BAD_TYPE;
 321              		.loc 1 36 9 is_stmt 1 view .LVU86
  36:Src/translator.cpp ****             return TYPE_BAD_TYPE;
 322              		.loc 1 36 17 is_stmt 0 view .LVU87
 323 0108 3C03     		cmpb	$3, %al
 324 010a 0F95C2   		setne	%dl
  36:Src/translator.cpp ****             return TYPE_BAD_TYPE;
 325              		.loc 1 36 37 view .LVU88
 326 010d 3C01     		cmpb	$1, %al
 327 010f 0F95C0   		setne	%al
 328              	.LVL32:
  36:Src/translator.cpp ****             return TYPE_BAD_TYPE;
 329              		.loc 1 36 9 view .LVU89
 330 0112 84C2     		testb	%al, %dl
 331 0114 7406     		je	.L28
  36:Src/translator.cpp ****             return TYPE_BAD_TYPE;
 332              		.loc 1 36 49 discriminator 1 view .LVU90
 333 0116 4080FD02 		cmpb	$2, %bpl
 334 011a 7544     		jne	.L31
 335              	.L28:
  38:Src/translator.cpp ****         if(len == 0)
 336              		.loc 1 38 9 is_stmt 1 view .LVU91
  38:Src/translator.cpp ****         if(len == 0)
 337              		.loc 1 38 29 is_stmt 0 view .LVU92
 338 011c 4889DF   		movq	%rbx, %rdi
 339 011f E8000000 		call	_ZN10translator6getLenEPKh
 339      00
 340              	.LVL33:
 341 0124 4189C4   		movl	%eax, %r12d
 342              	.LVL34:
  39:Src/translator.cpp ****             return TYPE_BAD_LEN;
 343              		.loc 1 39 9 is_stmt 1 view .LVU93
 344 0127 84C0     		testb	%al, %al
 345 0129 743C     		je	.L32
  42:Src/translator.cpp ****             return TYPE_BAD_CHECKSUM;
 346              		.loc 1 42 9 view .LVU94
  42:Src/translator.cpp ****             return TYPE_BAD_CHECKSUM;
 347              		.loc 1 42 23 is_stmt 0 view .LVU95
 348 012b 4889DF   		movq	%rbx, %rdi
 349 012e E8000000 		call	_ZN10translator11genCheckSumEPKh
 349      00
 350              	.LVL35:
  42:Src/translator.cpp ****             return TYPE_BAD_CHECKSUM;
 351              		.loc 1 42 23 view .LVU96
 352 0133 4189C6   		movl	%eax, %r14d
  42:Src/translator.cpp ****             return TYPE_BAD_CHECKSUM;
 353              		.loc 1 42 47 view .LVU97
 354 0136 4889DF   		movq	%rbx, %rdi
 355 0139 E8000000 		call	_ZN10translator11getCheckSumEPKh
 355      00
 356              	.LVL36:
  42:Src/translator.cpp ****             return TYPE_BAD_CHECKSUM;
 357              		.loc 1 42 9 view .LVU98
 358 013e 664439F0 		cmpw	%r14w, %ax
 359 0142 7533     		jne	.L33
 360              	.LBB6:
  46:Src/translator.cpp ****         {
GAS LISTING /tmp/cc6hL4kw.s 			page 15


 361              		.loc 1 46 21 view .LVU99
 362 0144 B8000000 		movl	$0, %eax
 362      00
 363              	.L30:
 364              	.LVL37:
  46:Src/translator.cpp ****         {
 365              		.loc 1 46 30 is_stmt 1 discriminator 3 view .LVU100
 366 0149 4438E0   		cmpb	%r12b, %al
 367 014c 731E     		jnb	.L27
  48:Src/translator.cpp ****         }
 368              		.loc 1 48 13 discriminator 2 view .LVU101
  48:Src/translator.cpp ****         }
 369              		.loc 1 48 36 is_stmt 0 discriminator 2 view .LVU102
 370 014e 0FB6D0   		movzbl	%al, %edx
  48:Src/translator.cpp ****         }
 371              		.loc 1 48 47 discriminator 2 view .LVU103
 372 0151 0FB64C13 		movzbl	3(%rbx,%rdx), %ecx
 372      03
  48:Src/translator.cpp ****         }
 373              		.loc 1 48 26 discriminator 2 view .LVU104
 374 0156 41884C15 		movb	%cl, 0(%r13,%rdx)
 374      00
  46:Src/translator.cpp ****         {
 375              		.loc 1 46 9 is_stmt 1 discriminator 2 view .LVU105
 376 015b 83C001   		addl	$1, %eax
 377              	.LVL38:
  46:Src/translator.cpp ****         {
 378              		.loc 1 46 9 is_stmt 0 discriminator 2 view .LVU106
 379 015e EBE9     		jmp	.L30
 380              	.LVL39:
 381              	.L31:
  46:Src/translator.cpp ****         {
 382              		.loc 1 46 9 discriminator 2 view .LVU107
 383              	.LBE6:
  37:Src/translator.cpp ****         uint8_t len = getLen(package);
 384              		.loc 1 37 20 view .LVU108
 385 0160 BD650000 		movl	$101, %ebp
 385      00
 386              	.LVL40:
  37:Src/translator.cpp ****         uint8_t len = getLen(package);
 387              		.loc 1 37 20 view .LVU109
 388 0165 EB05     		jmp	.L27
 389              	.LVL41:
 390              	.L32:
  40:Src/translator.cpp **** 
 391              		.loc 1 40 20 view .LVU110
 392 0167 BD640000 		movl	$100, %ebp
 392      00
 393              	.LVL42:
 394              	.L27:
  51:Src/translator.cpp **** 
 395              		.loc 1 51 5 view .LVU111
 396 016c 89E8     		movl	%ebp, %eax
 397 016e 5B       		popq	%rbx
 398              		.cfi_remember_state
 399              		.cfi_def_cfa_offset 40
 400              	.LVL43:
GAS LISTING /tmp/cc6hL4kw.s 			page 16


  51:Src/translator.cpp **** 
 401              		.loc 1 51 5 view .LVU112
 402 016f 5D       		popq	%rbp
 403              		.cfi_def_cfa_offset 32
 404 0170 415C     		popq	%r12
 405              		.cfi_def_cfa_offset 24
 406 0172 415D     		popq	%r13
 407              		.cfi_def_cfa_offset 16
 408              	.LVL44:
  51:Src/translator.cpp **** 
 409              		.loc 1 51 5 view .LVU113
 410 0174 415E     		popq	%r14
 411              		.cfi_def_cfa_offset 8
 412 0176 C3       		ret
 413              	.LVL45:
 414              	.L33:
 415              		.cfi_restore_state
  43:Src/translator.cpp **** 
 416              		.loc 1 43 20 view .LVU114
 417 0177 BD660000 		movl	$102, %ebp
 417      00
 418              	.LVL46:
  43:Src/translator.cpp **** 
 419              		.loc 1 43 20 view .LVU115
 420 017c EBEE     		jmp	.L27
 421              		.cfi_endproc
 422              	.LFE1505:
 424              		.globl	_ZN10translator8parseCmdEPhPPFvvE
 426              	_ZN10translator8parseCmdEPhPPFvvE:
 427              	.LVL47:
 428              	.LFB1506:
  56:Src/translator.cpp ****         uint8_t var = getType(package);
 429              		.loc 1 56 5 is_stmt 1 view -0
 430              		.cfi_startproc
  56:Src/translator.cpp ****         uint8_t var = getType(package);
 431              		.loc 1 56 5 is_stmt 0 view .LVU117
 432 017e 4155     		pushq	%r13
 433              		.cfi_def_cfa_offset 16
 434              		.cfi_offset 13, -16
 435 0180 4154     		pushq	%r12
 436              		.cfi_def_cfa_offset 24
 437              		.cfi_offset 12, -24
 438 0182 55       		pushq	%rbp
 439              		.cfi_def_cfa_offset 32
 440              		.cfi_offset 6, -32
 441 0183 53       		pushq	%rbx
 442              		.cfi_def_cfa_offset 40
 443              		.cfi_offset 3, -40
 444 0184 4883EC08 		subq	$8, %rsp
 445              		.cfi_def_cfa_offset 48
 446 0188 4889FB   		movq	%rdi, %rbx
 447 018b 4989F4   		movq	%rsi, %r12
  57:Src/translator.cpp ****         if(var != TYPE_CMD)
 448              		.loc 1 57 9 is_stmt 1 view .LVU118
  57:Src/translator.cpp ****         if(var != TYPE_CMD)
 449              		.loc 1 57 30 is_stmt 0 view .LVU119
 450 018e E8000000 		call	_ZN10translator7getTypeEPKh
GAS LISTING /tmp/cc6hL4kw.s 			page 17


 450      00
 451              	.LVL48:
  58:Src/translator.cpp ****             return TYPE_BAD_TYPE;
 452              		.loc 1 58 9 is_stmt 1 view .LVU120
 453 0193 3C01     		cmpb	$1, %al
 454 0195 753F     		jne	.L37
  61:Src/translator.cpp ****         if(var != 1)
 455              		.loc 1 61 9 view .LVU121
  61:Src/translator.cpp ****         if(var != 1)
 456              		.loc 1 61 21 is_stmt 0 view .LVU122
 457 0197 4889DF   		movq	%rbx, %rdi
 458 019a E8000000 		call	_ZN10translator6getLenEPKh
 458      00
 459              	.LVL49:
  61:Src/translator.cpp ****         if(var != 1)
 460              		.loc 1 61 21 view .LVU123
 461 019f 89C5     		movl	%eax, %ebp
 462              	.LVL50:
  62:Src/translator.cpp ****             return TYPE_BAD_LEN;
 463              		.loc 1 62 9 is_stmt 1 view .LVU124
 464 01a1 3C01     		cmpb	$1, %al
 465 01a3 7407     		je	.L41
  63:Src/translator.cpp **** 
 466              		.loc 1 63 20 is_stmt 0 view .LVU125
 467 01a5 BD640000 		movl	$100, %ebp
 467      00
 468 01aa EB2F     		jmp	.L35
 469              	.L41:
  65:Src/translator.cpp ****         if(check != getCheckSum(package))   
 470              		.loc 1 65 9 is_stmt 1 view .LVU126
  65:Src/translator.cpp ****         if(check != getCheckSum(package))   
 471              		.loc 1 65 39 is_stmt 0 view .LVU127
 472 01ac 4889DF   		movq	%rbx, %rdi
 473 01af E8000000 		call	_ZN10translator11genCheckSumEPKh
 473      00
 474              	.LVL51:
  65:Src/translator.cpp ****         if(check != getCheckSum(package))   
 475              		.loc 1 65 39 view .LVU128
 476 01b4 4189C5   		movl	%eax, %r13d
 477              	.LVL52:
  66:Src/translator.cpp ****             return TYPE_BAD_CHECKSUM;
 478              		.loc 1 66 9 is_stmt 1 view .LVU129
  66:Src/translator.cpp ****             return TYPE_BAD_CHECKSUM;
 479              		.loc 1 66 32 is_stmt 0 view .LVU130
 480 01b7 4889DF   		movq	%rbx, %rdi
 481 01ba E8000000 		call	_ZN10translator11getCheckSumEPKh
 481      00
 482              	.LVL53:
  66:Src/translator.cpp ****             return TYPE_BAD_CHECKSUM;
 483              		.loc 1 66 9 view .LVU131
 484 01bf 664439E8 		cmpw	%r13w, %ax
 485 01c3 7523     		jne	.L39
  69:Src/translator.cpp ****             funcArr[package[3]]();
 486              		.loc 1 69 9 is_stmt 1 view .LVU132
  69:Src/translator.cpp ****             funcArr[package[3]]();
 487              		.loc 1 69 29 is_stmt 0 view .LVU133
 488 01c5 0FB64303 		movzbl	3(%rbx), %eax
GAS LISTING /tmp/cc6hL4kw.s 			page 18


  69:Src/translator.cpp ****             funcArr[package[3]]();
 489              		.loc 1 69 30 view .LVU134
 490 01c9 498B04C4 		movq	(%r12,%rax,8), %rax
  69:Src/translator.cpp ****             funcArr[package[3]]();
 491              		.loc 1 69 9 view .LVU135
 492 01cd 4885C0   		testq	%rax, %rax
 493 01d0 7409     		je	.L35
  70:Src/translator.cpp ****         return TYPE_CMD;
 494              		.loc 1 70 13 is_stmt 1 view .LVU136
  70:Src/translator.cpp ****         return TYPE_CMD;
 495              		.loc 1 70 32 is_stmt 0 view .LVU137
 496 01d2 FFD0     		call	*%rax
 497              	.LVL54:
 498 01d4 EB05     		jmp	.L35
 499              	.LVL55:
 500              	.L37:
  59:Src/translator.cpp **** 
 501              		.loc 1 59 20 view .LVU138
 502 01d6 BD650000 		movl	$101, %ebp
 502      00
 503              	.LVL56:
 504              	.L35:
  72:Src/translator.cpp **** 
 505              		.loc 1 72 5 view .LVU139
 506 01db 89E8     		movl	%ebp, %eax
 507 01dd 4883C408 		addq	$8, %rsp
 508              		.cfi_remember_state
 509              		.cfi_def_cfa_offset 40
 510 01e1 5B       		popq	%rbx
 511              		.cfi_def_cfa_offset 32
 512              	.LVL57:
  72:Src/translator.cpp **** 
 513              		.loc 1 72 5 view .LVU140
 514 01e2 5D       		popq	%rbp
 515              		.cfi_def_cfa_offset 24
 516 01e3 415C     		popq	%r12
 517              		.cfi_def_cfa_offset 16
 518              	.LVL58:
  72:Src/translator.cpp **** 
 519              		.loc 1 72 5 view .LVU141
 520 01e5 415D     		popq	%r13
 521              		.cfi_def_cfa_offset 8
 522 01e7 C3       		ret
 523              	.LVL59:
 524              	.L39:
 525              		.cfi_restore_state
  67:Src/translator.cpp **** 
 526              		.loc 1 67 20 view .LVU142
 527 01e8 BD660000 		movl	$102, %ebp
 527      00
 528              	.LVL60:
  67:Src/translator.cpp **** 
 529              		.loc 1 67 20 view .LVU143
 530 01ed EBEC     		jmp	.L35
 531              		.cfi_endproc
 532              	.LFE1506:
 534              		.globl	_ZN10translator8parseCmdEPh
GAS LISTING /tmp/cc6hL4kw.s 			page 19


 536              	_ZN10translator8parseCmdEPh:
 537              	.LVL61:
 538              	.LFB1507:
  75:Src/translator.cpp ****         uint8_t var = getType(package);
 539              		.loc 1 75 5 is_stmt 1 view -0
 540              		.cfi_startproc
  75:Src/translator.cpp ****         uint8_t var = getType(package);
 541              		.loc 1 75 5 is_stmt 0 view .LVU145
 542 01ef 55       		pushq	%rbp
 543              		.cfi_def_cfa_offset 16
 544              		.cfi_offset 6, -16
 545 01f0 53       		pushq	%rbx
 546              		.cfi_def_cfa_offset 24
 547              		.cfi_offset 3, -24
 548 01f1 4889FB   		movq	%rdi, %rbx
  76:Src/translator.cpp ****         if(var != TYPE_CMD)
 549              		.loc 1 76 9 is_stmt 1 view .LVU146
  76:Src/translator.cpp ****         if(var != TYPE_CMD)
 550              		.loc 1 76 30 is_stmt 0 view .LVU147
 551 01f4 E8000000 		call	_ZN10translator7getTypeEPKh
 551      00
 552              	.LVL62:
  77:Src/translator.cpp ****             return ~0;
 553              		.loc 1 77 9 is_stmt 1 view .LVU148
 554 01f9 3C01     		cmpb	$1, %al
 555 01fb 7532     		jne	.L44
  80:Src/translator.cpp ****         if(var != 1)
 556              		.loc 1 80 9 view .LVU149
  80:Src/translator.cpp ****         if(var != 1)
 557              		.loc 1 80 21 is_stmt 0 view .LVU150
 558 01fd 4889DF   		movq	%rbx, %rdi
 559 0200 E8000000 		call	_ZN10translator6getLenEPKh
 559      00
 560              	.LVL63:
  81:Src/translator.cpp ****             return ~0;
 561              		.loc 1 81 9 is_stmt 1 view .LVU151
 562 0205 3C01     		cmpb	$1, %al
 563 0207 7409     		je	.L48
  82:Src/translator.cpp **** 
 564              		.loc 1 82 21 is_stmt 0 view .LVU152
 565 0209 48C7C0FF 		movq	$-1, %rax
 565      FFFFFF
 566              	.LVL64:
  82:Src/translator.cpp **** 
 567              		.loc 1 82 21 view .LVU153
 568 0210 EB24     		jmp	.L42
 569              	.LVL65:
 570              	.L48:
  84:Src/translator.cpp ****         if(check != getCheckSum(package))
 571              		.loc 1 84 9 is_stmt 1 view .LVU154
  84:Src/translator.cpp ****         if(check != getCheckSum(package))
 572              		.loc 1 84 39 is_stmt 0 view .LVU155
 573 0212 4889DF   		movq	%rbx, %rdi
 574 0215 E8000000 		call	_ZN10translator11genCheckSumEPKh
 574      00
 575              	.LVL66:
  84:Src/translator.cpp ****         if(check != getCheckSum(package))
GAS LISTING /tmp/cc6hL4kw.s 			page 20


 576              		.loc 1 84 39 view .LVU156
 577 021a 89C5     		movl	%eax, %ebp
 578              	.LVL67:
  85:Src/translator.cpp ****             return ~0;
 579              		.loc 1 85 9 is_stmt 1 view .LVU157
  85:Src/translator.cpp ****             return ~0;
 580              		.loc 1 85 32 is_stmt 0 view .LVU158
 581 021c 4889DF   		movq	%rbx, %rdi
 582 021f E8000000 		call	_ZN10translator11getCheckSumEPKh
 582      00
 583              	.LVL68:
  85:Src/translator.cpp ****             return ~0;
 584              		.loc 1 85 9 view .LVU159
 585 0224 6639E8   		cmpw	%bp, %ax
 586 0227 7510     		jne	.L46
  87:Src/translator.cpp ****     }
 587              		.loc 1 87 9 is_stmt 1 view .LVU160
  87:Src/translator.cpp ****     }
 588              		.loc 1 87 25 is_stmt 0 view .LVU161
 589 0229 0FB64303 		movzbl	3(%rbx), %eax
 590 022d EB07     		jmp	.L42
 591              	.LVL69:
 592              	.L44:
  78:Src/translator.cpp **** 
 593              		.loc 1 78 21 view .LVU162
 594 022f 48C7C0FF 		movq	$-1, %rax
 594      FFFFFF
 595              	.LVL70:
 596              	.L42:
  88:Src/translator.cpp **** 
 597              		.loc 1 88 5 view .LVU163
 598 0236 5B       		popq	%rbx
 599              		.cfi_remember_state
 600              		.cfi_def_cfa_offset 16
 601              	.LVL71:
  88:Src/translator.cpp **** 
 602              		.loc 1 88 5 view .LVU164
 603 0237 5D       		popq	%rbp
 604              		.cfi_def_cfa_offset 8
 605 0238 C3       		ret
 606              	.LVL72:
 607              	.L46:
 608              		.cfi_restore_state
  86:Src/translator.cpp ****         return package[3];
 609              		.loc 1 86 21 view .LVU165
 610 0239 48C7C0FF 		movq	$-1, %rax
 610      FFFFFF
 611 0240 EBF4     		jmp	.L42
 612              		.cfi_endproc
 613              	.LFE1507:
 615              		.globl	_ZN10translator11generateCmdEhPh
 617              	_ZN10translator11generateCmdEhPh:
 618              	.LVL73:
 619              	.LFB1512:
 125:Src/translator.cpp ****         tgt[0] = getZeroByte(TYPE_CMD, 1);
 620              		.loc 1 125 5 is_stmt 1 view -0
 621              		.cfi_startproc
GAS LISTING /tmp/cc6hL4kw.s 			page 21


 125:Src/translator.cpp ****         tgt[0] = getZeroByte(TYPE_CMD, 1);
 622              		.loc 1 125 5 is_stmt 0 view .LVU167
 623 0242 55       		pushq	%rbp
 624              		.cfi_def_cfa_offset 16
 625              		.cfi_offset 6, -16
 626 0243 53       		pushq	%rbx
 627              		.cfi_def_cfa_offset 24
 628              		.cfi_offset 3, -24
 629 0244 89FD     		movl	%edi, %ebp
 630 0246 4889F3   		movq	%rsi, %rbx
 126:Src/translator.cpp ****         tgt[3] = cmd;
 631              		.loc 1 126 9 is_stmt 1 view .LVU168
 126:Src/translator.cpp ****         tgt[3] = cmd;
 632              		.loc 1 126 29 is_stmt 0 view .LVU169
 633 0249 BE010000 		movl	$1, %esi
 633      00
 634              	.LVL74:
 126:Src/translator.cpp ****         tgt[3] = cmd;
 635              		.loc 1 126 29 view .LVU170
 636 024e BF010000 		movl	$1, %edi
 636      00
 637              	.LVL75:
 126:Src/translator.cpp ****         tgt[3] = cmd;
 638              		.loc 1 126 29 view .LVU171
 639 0253 E8000000 		call	_ZN10translator11getZeroByteEhh
 639      00
 640              	.LVL76:
 126:Src/translator.cpp ****         tgt[3] = cmd;
 641              		.loc 1 126 16 view .LVU172
 642 0258 8803     		movb	%al, (%rbx)
 127:Src/translator.cpp ****         checksum_t check = genCheckSum(tgt);
 643              		.loc 1 127 9 is_stmt 1 view .LVU173
 127:Src/translator.cpp ****         checksum_t check = genCheckSum(tgt);
 644              		.loc 1 127 16 is_stmt 0 view .LVU174
 645 025a 40886B03 		movb	%bpl, 3(%rbx)
 128:Src/translator.cpp ****         tgt[1] = check >> 8;
 646              		.loc 1 128 9 is_stmt 1 view .LVU175
 128:Src/translator.cpp ****         tgt[1] = check >> 8;
 647              		.loc 1 128 39 is_stmt 0 view .LVU176
 648 025e 4889DF   		movq	%rbx, %rdi
 649 0261 E8000000 		call	_ZN10translator11genCheckSumEPKh
 649      00
 650              	.LVL77:
 129:Src/translator.cpp ****         tgt[2] = check & 0xFF;
 651              		.loc 1 129 9 is_stmt 1 view .LVU177
 129:Src/translator.cpp ****         tgt[2] = check & 0xFF;
 652              		.loc 1 129 24 is_stmt 0 view .LVU178
 653 0266 0FB6D4   		movzbl	%ah, %edx
 129:Src/translator.cpp ****         tgt[2] = check & 0xFF;
 654              		.loc 1 129 16 view .LVU179
 655 0269 885301   		movb	%dl, 1(%rbx)
 130:Src/translator.cpp ****     }
 656              		.loc 1 130 9 is_stmt 1 view .LVU180
 130:Src/translator.cpp ****     }
 657              		.loc 1 130 16 is_stmt 0 view .LVU181
 658 026c 884302   		movb	%al, 2(%rbx)
 131:Src/translator.cpp **** 
GAS LISTING /tmp/cc6hL4kw.s 			page 22


 659              		.loc 1 131 5 view .LVU182
 660 026f 5B       		popq	%rbx
 661              		.cfi_def_cfa_offset 16
 662              	.LVL78:
 131:Src/translator.cpp **** 
 663              		.loc 1 131 5 view .LVU183
 664 0270 5D       		popq	%rbp
 665              		.cfi_def_cfa_offset 8
 666 0271 C3       		ret
 667              		.cfi_endproc
 668              	.LFE1512:
 670              		.globl	_ZN10translator8validateEPKh
 672              	_ZN10translator8validateEPKh:
 673              	.LVL79:
 674              	.LFB1513:
 136:Src/translator.cpp ****         uint8_t type = getType(package);
 675              		.loc 1 136 5 is_stmt 1 view -0
 676              		.cfi_startproc
 136:Src/translator.cpp ****         uint8_t type = getType(package);
 677              		.loc 1 136 5 is_stmt 0 view .LVU185
 678 0272 55       		pushq	%rbp
 679              		.cfi_def_cfa_offset 16
 680              		.cfi_offset 6, -16
 681 0273 53       		pushq	%rbx
 682              		.cfi_def_cfa_offset 24
 683              		.cfi_offset 3, -24
 684 0274 4889FB   		movq	%rdi, %rbx
 137:Src/translator.cpp ****         switch (type)
 685              		.loc 1 137 9 is_stmt 1 view .LVU186
 137:Src/translator.cpp ****         switch (type)
 686              		.loc 1 137 31 is_stmt 0 view .LVU187
 687 0277 E8000000 		call	_ZN10translator7getTypeEPKh
 687      00
 688              	.LVL80:
 138:Src/translator.cpp ****         {
 689              		.loc 1 138 9 is_stmt 1 view .LVU188
 690 027c 3C01     		cmpb	$1, %al
 691 027e 7432     		je	.L52
 692 0280 84C0     		testb	%al, %al
 693 0282 7441     		je	.L56
 694 0284 83E802   		subl	$2, %eax
 695              	.LVL81:
 138:Src/translator.cpp ****         {
 696              		.loc 1 138 9 is_stmt 0 view .LVU189
 697 0287 3C01     		cmpb	$1, %al
 698 0289 7741     		ja	.L62
 146:Src/translator.cpp ****             case TYPE_ARR:
 699              		.loc 1 146 13 is_stmt 1 view .LVU190
 147:Src/translator.cpp ****             {
 700              		.loc 1 147 13 view .LVU191
 148:Src/translator.cpp ****                 if(getLen(package) <= 1)
 701              		.loc 1 148 13 view .LVU192
 149:Src/translator.cpp ****                     return false;
 702              		.loc 1 149 17 view .LVU193
 149:Src/translator.cpp ****                     return false;
 703              		.loc 1 149 26 is_stmt 0 view .LVU194
 704 028b 4889DF   		movq	%rbx, %rdi
GAS LISTING /tmp/cc6hL4kw.s 			page 23


 705 028e E8000000 		call	_ZN10translator6getLenEPKh
 705      00
 706              	.LVL82:
 149:Src/translator.cpp ****                     return false;
 707              		.loc 1 149 17 view .LVU195
 708 0293 3C01     		cmpb	$1, %al
 709 0295 763C     		jbe	.L59
 710              	.L55:
 156:Src/translator.cpp ****     }
 711              		.loc 1 156 9 is_stmt 1 view .LVU196
 156:Src/translator.cpp ****     }
 712              		.loc 1 156 28 is_stmt 0 view .LVU197
 713 0297 4889DF   		movq	%rbx, %rdi
 714 029a E8000000 		call	_ZN10translator11getCheckSumEPKh
 714      00
 715              	.LVL83:
 716 029f 89C5     		movl	%eax, %ebp
 156:Src/translator.cpp ****     }
 717              		.loc 1 156 52 view .LVU198
 718 02a1 4889DF   		movq	%rbx, %rdi
 719 02a4 E8000000 		call	_ZN10translator11genCheckSumEPKh
 719      00
 720              	.LVL84:
 156:Src/translator.cpp ****     }
 721              		.loc 1 156 61 view .LVU199
 722 02a9 6639C5   		cmpw	%ax, %bp
 723 02ac 0F94C0   		sete	%al
 724              	.L51:
 157:Src/translator.cpp **** 
 725              		.loc 1 157 5 view .LVU200
 726 02af 5B       		popq	%rbx
 727              		.cfi_remember_state
 728              		.cfi_def_cfa_offset 16
 729              	.LVL85:
 157:Src/translator.cpp **** 
 730              		.loc 1 157 5 view .LVU201
 731 02b0 5D       		popq	%rbp
 732              		.cfi_def_cfa_offset 8
 733 02b1 C3       		ret
 734              	.LVL86:
 735              	.L52:
 736              		.cfi_restore_state
 140:Src/translator.cpp ****             {
 737              		.loc 1 140 13 is_stmt 1 view .LVU202
 141:Src/translator.cpp ****                 if(getLen(package) != 1)
 738              		.loc 1 141 13 view .LVU203
 142:Src/translator.cpp ****                     return false;
 739              		.loc 1 142 17 view .LVU204
 142:Src/translator.cpp ****                     return false;
 740              		.loc 1 142 26 is_stmt 0 view .LVU205
 741 02b2 4889DF   		movq	%rbx, %rdi
 742 02b5 E8000000 		call	_ZN10translator6getLenEPKh
 742      00
 743              	.LVL87:
 142:Src/translator.cpp ****                     return false;
 744              		.loc 1 142 17 view .LVU206
 745 02ba 3C01     		cmpb	$1, %al
GAS LISTING /tmp/cc6hL4kw.s 			page 24


 746 02bc 74D9     		je	.L55
 143:Src/translator.cpp ****                 break;
 747              		.loc 1 143 28 view .LVU207
 748 02be B8000000 		movl	$0, %eax
 748      00
 749 02c3 EBEA     		jmp	.L51
 750              	.LVL88:
 751              	.L56:
 138:Src/translator.cpp ****         {
 752              		.loc 1 138 9 view .LVU208
 753 02c5 B8000000 		movl	$0, %eax
 753      00
 754              	.LVL89:
 138:Src/translator.cpp ****         {
 755              		.loc 1 138 9 view .LVU209
 756 02ca EBE3     		jmp	.L51
 757              	.L62:
 758 02cc B8000000 		movl	$0, %eax
 758      00
 759 02d1 EBDC     		jmp	.L51
 760              	.L59:
 150:Src/translator.cpp ****                 break;
 761              		.loc 1 150 28 view .LVU210
 762 02d3 B8000000 		movl	$0, %eax
 762      00
 763 02d8 EBD5     		jmp	.L51
 764              		.cfi_endproc
 765              	.LFE1513:
 767              		.globl	_ZN10translator11generateVarEhhPKhPh
 769              	_ZN10translator11generateVarEhhPKhPh:
 770              	.LVL90:
 771              	.LFB1514:
 161:Src/translator.cpp ****         tgt[0] = getZeroByte(TYPE_VAR, varlen + 1);
 772              		.loc 1 161 5 is_stmt 1 view -0
 773              		.cfi_startproc
 161:Src/translator.cpp ****         tgt[0] = getZeroByte(TYPE_VAR, varlen + 1);
 774              		.loc 1 161 5 is_stmt 0 view .LVU212
 775 02da 4155     		pushq	%r13
 776              		.cfi_def_cfa_offset 16
 777              		.cfi_offset 13, -16
 778 02dc 4154     		pushq	%r12
 779              		.cfi_def_cfa_offset 24
 780              		.cfi_offset 12, -24
 781 02de 55       		pushq	%rbp
 782              		.cfi_def_cfa_offset 32
 783              		.cfi_offset 6, -32
 784 02df 53       		pushq	%rbx
 785              		.cfi_def_cfa_offset 40
 786              		.cfi_offset 3, -40
 787 02e0 4189FD   		movl	%edi, %r13d
 788 02e3 4989D4   		movq	%rdx, %r12
 789 02e6 4889CD   		movq	%rcx, %rbp
 790 02e9 89F3     		movl	%esi, %ebx
 162:Src/translator.cpp ****         tgt[3] = id;
 791              		.loc 1 162 9 is_stmt 1 view .LVU213
 162:Src/translator.cpp ****         tgt[3] = id;
 792              		.loc 1 162 47 is_stmt 0 view .LVU214
GAS LISTING /tmp/cc6hL4kw.s 			page 25


 793 02eb 83C601   		addl	$1, %esi
 794              	.LVL91:
 162:Src/translator.cpp ****         tgt[3] = id;
 795              		.loc 1 162 29 view .LVU215
 796 02ee 400FB6F6 		movzbl	%sil, %esi
 797 02f2 BF020000 		movl	$2, %edi
 797      00
 798              	.LVL92:
 162:Src/translator.cpp ****         tgt[3] = id;
 799              		.loc 1 162 29 view .LVU216
 800 02f7 E8000000 		call	_ZN10translator11getZeroByteEhh
 800      00
 801              	.LVL93:
 162:Src/translator.cpp ****         tgt[3] = id;
 802              		.loc 1 162 16 view .LVU217
 803 02fc 884500   		movb	%al, 0(%rbp)
 163:Src/translator.cpp ****         for(uint8_t i = 0; i < varlen; i++)
 804              		.loc 1 163 9 is_stmt 1 view .LVU218
 163:Src/translator.cpp ****         for(uint8_t i = 0; i < varlen; i++)
 805              		.loc 1 163 16 is_stmt 0 view .LVU219
 806 02ff 44886D03 		movb	%r13b, 3(%rbp)
 164:Src/translator.cpp ****         {
 807              		.loc 1 164 9 is_stmt 1 view .LVU220
 808              	.LVL94:
 809              	.LBB7:
 164:Src/translator.cpp ****         {
 810              		.loc 1 164 21 is_stmt 0 view .LVU221
 811 0303 B9000000 		movl	$0, %ecx
 811      00
 812              	.LVL95:
 813              	.L65:
 164:Src/translator.cpp ****         {
 814              		.loc 1 164 30 is_stmt 1 discriminator 3 view .LVU222
 815 0308 38D9     		cmpb	%bl, %cl
 816 030a 731F     		jnb	.L64
 166:Src/translator.cpp ****             // std::cout << "from " << (int)(i) << " to " << (int)(i + 4) << " set 0x" << std::hex 
 817              		.loc 1 166 13 discriminator 2 view .LVU223
 166:Src/translator.cpp ****             // std::cout << "from " << (int)(i) << " to " << (int)(i + 4) << " set 0x" << std::hex 
 818              		.loc 1 166 30 is_stmt 0 discriminator 2 view .LVU224
 819 030c 0FB6C3   		movzbl	%bl, %eax
 166:Src/translator.cpp ****             // std::cout << "from " << (int)(i) << " to " << (int)(i + 4) << " set 0x" << std::hex 
 820              		.loc 1 166 39 discriminator 2 view .LVU225
 821 030f 0FB6D1   		movzbl	%cl, %edx
 166:Src/translator.cpp ****             // std::cout << "from " << (int)(i) << " to " << (int)(i + 4) << " set 0x" << std::hex 
 822              		.loc 1 166 37 discriminator 2 view .LVU226
 823 0312 29D0     		subl	%edx, %eax
 824 0314 4898     		cltq
 166:Src/translator.cpp ****             // std::cout << "from " << (int)(i) << " to " << (int)(i + 4) << " set 0x" << std::hex 
 825              		.loc 1 166 19 discriminator 2 view .LVU227
 826 0316 83C204   		addl	$4, %edx
 827 0319 4863D2   		movslq	%edx, %rdx
 166:Src/translator.cpp ****             // std::cout << "from " << (int)(i) << " to " << (int)(i + 4) << " set 0x" << std::hex 
 828              		.loc 1 166 44 discriminator 2 view .LVU228
 829 031c 410FB644 		movzbl	-1(%r12,%rax), %eax
 829      04FF
 166:Src/translator.cpp ****             // std::cout << "from " << (int)(i) << " to " << (int)(i + 4) << " set 0x" << std::hex 
 830              		.loc 1 166 24 discriminator 2 view .LVU229
GAS LISTING /tmp/cc6hL4kw.s 			page 26


 831 0322 88441500 		movb	%al, 0(%rbp,%rdx)
 164:Src/translator.cpp ****         {
 832              		.loc 1 164 9 is_stmt 1 discriminator 2 view .LVU230
 833 0326 83C101   		addl	$1, %ecx
 834              	.LVL96:
 164:Src/translator.cpp ****         {
 835              		.loc 1 164 9 is_stmt 0 discriminator 2 view .LVU231
 836 0329 EBDD     		jmp	.L65
 837              	.L64:
 164:Src/translator.cpp ****         {
 838              		.loc 1 164 9 discriminator 2 view .LVU232
 839              	.LBE7:
 169:Src/translator.cpp ****         tgt[1] = check >> 8;
 840              		.loc 1 169 9 is_stmt 1 view .LVU233
 169:Src/translator.cpp ****         tgt[1] = check >> 8;
 841              		.loc 1 169 39 is_stmt 0 view .LVU234
 842 032b 4889EF   		movq	%rbp, %rdi
 843 032e E8000000 		call	_ZN10translator11genCheckSumEPKh
 843      00
 844              	.LVL97:
 170:Src/translator.cpp ****         tgt[2] = check & 0xFF;
 845              		.loc 1 170 9 is_stmt 1 view .LVU235
 170:Src/translator.cpp ****         tgt[2] = check & 0xFF;
 846              		.loc 1 170 24 is_stmt 0 view .LVU236
 847 0333 0FB6D4   		movzbl	%ah, %edx
 170:Src/translator.cpp ****         tgt[2] = check & 0xFF;
 848              		.loc 1 170 16 view .LVU237
 849 0336 885501   		movb	%dl, 1(%rbp)
 171:Src/translator.cpp ****     }
 850              		.loc 1 171 9 is_stmt 1 view .LVU238
 171:Src/translator.cpp ****     }
 851              		.loc 1 171 16 is_stmt 0 view .LVU239
 852 0339 884502   		movb	%al, 2(%rbp)
 172:Src/translator.cpp **** 
 853              		.loc 1 172 5 view .LVU240
 854 033c 5B       		popq	%rbx
 855              		.cfi_def_cfa_offset 32
 856              	.LVL98:
 172:Src/translator.cpp **** 
 857              		.loc 1 172 5 view .LVU241
 858 033d 5D       		popq	%rbp
 859              		.cfi_def_cfa_offset 24
 860              	.LVL99:
 172:Src/translator.cpp **** 
 861              		.loc 1 172 5 view .LVU242
 862 033e 415C     		popq	%r12
 863              		.cfi_def_cfa_offset 16
 864              	.LVL100:
 172:Src/translator.cpp **** 
 865              		.loc 1 172 5 view .LVU243
 866 0340 415D     		popq	%r13
 867              		.cfi_def_cfa_offset 8
 868 0342 C3       		ret
 869              		.cfi_endproc
 870              	.LFE1514:
 872              		.globl	_ZN10translator8parseVarEPhS0_h
 874              	_ZN10translator8parseVarEPhS0_h:
GAS LISTING /tmp/cc6hL4kw.s 			page 27


 875              	.LVL101:
 876              	.LFB1515:
 177:Src/translator.cpp ****         uint8_t type = getType(package);
 877              		.loc 1 177 5 is_stmt 1 view -0
 878              		.cfi_startproc
 177:Src/translator.cpp ****         uint8_t type = getType(package);
 879              		.loc 1 177 5 is_stmt 0 view .LVU245
 880 0343 4157     		pushq	%r15
 881              		.cfi_def_cfa_offset 16
 882              		.cfi_offset 15, -16
 883 0345 4156     		pushq	%r14
 884              		.cfi_def_cfa_offset 24
 885              		.cfi_offset 14, -24
 886 0347 4155     		pushq	%r13
 887              		.cfi_def_cfa_offset 32
 888              		.cfi_offset 13, -32
 889 0349 4154     		pushq	%r12
 890              		.cfi_def_cfa_offset 40
 891              		.cfi_offset 12, -40
 892 034b 55       		pushq	%rbp
 893              		.cfi_def_cfa_offset 48
 894              		.cfi_offset 6, -48
 895 034c 53       		pushq	%rbx
 896              		.cfi_def_cfa_offset 56
 897              		.cfi_offset 3, -56
 898 034d 4889FB   		movq	%rdi, %rbx
 899 0350 4989F4   		movq	%rsi, %r12
 900 0353 4189D5   		movl	%edx, %r13d
 178:Src/translator.cpp ****         if(type != TYPE_VAR)
 901              		.loc 1 178 9 is_stmt 1 view .LVU246
 178:Src/translator.cpp ****         if(type != TYPE_VAR)
 902              		.loc 1 178 31 is_stmt 0 view .LVU247
 903 0356 E8000000 		call	_ZN10translator7getTypeEPKh
 903      00
 904              	.LVL102:
 179:Src/translator.cpp ****             return TYPE_BAD_TYPE;
 905              		.loc 1 179 9 is_stmt 1 view .LVU248
 906 035b 3C02     		cmpb	$2, %al
 907 035d 7561     		jne	.L70
 908 035f 89C5     		movl	%eax, %ebp
 181:Src/translator.cpp ****         if(len < 2)
 909              		.loc 1 181 9 view .LVU249
 181:Src/translator.cpp ****         if(len < 2)
 910              		.loc 1 181 29 is_stmt 0 view .LVU250
 911 0361 4889DF   		movq	%rbx, %rdi
 912 0364 E8000000 		call	_ZN10translator6getLenEPKh
 912      00
 913              	.LVL103:
 181:Src/translator.cpp ****         if(len < 2)
 914              		.loc 1 181 29 view .LVU251
 915 0369 4189C6   		movl	%eax, %r14d
 916              	.LVL104:
 182:Src/translator.cpp ****             return TYPE_BAD_LEN;
 917              		.loc 1 182 9 is_stmt 1 view .LVU252
 918 036c 3C01     		cmpb	$1, %al
 919 036e 7662     		jbe	.L71
 184:Src/translator.cpp ****                     thischeck = getCheckSum(package);
GAS LISTING /tmp/cc6hL4kw.s 			page 28


 920              		.loc 1 184 9 view .LVU253
 184:Src/translator.cpp ****                     thischeck = getCheckSum(package);
 921              		.loc 1 184 40 is_stmt 0 view .LVU254
 922 0370 4889DF   		movq	%rbx, %rdi
 923 0373 E8000000 		call	_ZN10translator11genCheckSumEPKh
 923      00
 924              	.LVL105:
 184:Src/translator.cpp ****                     thischeck = getCheckSum(package);
 925              		.loc 1 184 40 view .LVU255
 926 0378 4189C7   		movl	%eax, %r15d
 927              	.LVL106:
 185:Src/translator.cpp ****         if(check != thischeck)
 928              		.loc 1 185 44 view .LVU256
 929 037b 4889DF   		movq	%rbx, %rdi
 930 037e E8000000 		call	_ZN10translator11getCheckSumEPKh
 930      00
 931              	.LVL107:
 186:Src/translator.cpp ****             return TYPE_BAD_CHECKSUM;
 932              		.loc 1 186 9 is_stmt 1 view .LVU257
 933 0383 664139C7 		cmpw	%ax, %r15w
 934 0387 7550     		jne	.L72
 189:Src/translator.cpp ****         for(uint8_t i = 0; i < len - 1; i++)
 935              		.loc 1 189 9 view .LVU258
 189:Src/translator.cpp ****         for(uint8_t i = 0; i < len - 1; i++)
 936              		.loc 1 189 17 is_stmt 0 view .LVU259
 937 0389 0FB67303 		movzbl	3(%rbx), %esi
 938              	.LVL108:
 190:Src/translator.cpp ****         {
 939              		.loc 1 190 9 is_stmt 1 view .LVU260
 940              	.LBB8:
 190:Src/translator.cpp ****         {
 941              		.loc 1 190 21 is_stmt 0 view .LVU261
 942 038d B9000000 		movl	$0, %ecx
 942      00
 943              	.LVL109:
 944              	.L69:
 190:Src/translator.cpp ****         {
 945              		.loc 1 190 30 is_stmt 1 discriminator 3 view .LVU262
 190:Src/translator.cpp ****         {
 946              		.loc 1 190 28 is_stmt 0 discriminator 3 view .LVU263
 947 0392 0FB6C1   		movzbl	%cl, %eax
 190:Src/translator.cpp ****         {
 948              		.loc 1 190 32 discriminator 3 view .LVU264
 949 0395 410FB6D6 		movzbl	%r14b, %edx
 190:Src/translator.cpp ****         {
 950              		.loc 1 190 36 discriminator 3 view .LVU265
 951 0399 83EA01   		subl	$1, %edx
 190:Src/translator.cpp ****         {
 952              		.loc 1 190 30 discriminator 3 view .LVU266
 953 039c 39D0     		cmpl	%edx, %eax
 954 039e 7D25     		jge	.L67
 192:Src/translator.cpp ****             // std::cout << "from " << (int)((id + i) * elsize) << " to " << (int)(i + 4) << std::e
 955              		.loc 1 192 13 is_stmt 1 discriminator 2 view .LVU267
 192:Src/translator.cpp ****             // std::cout << "from " << (int)((id + i) * elsize) << " to " << (int)(i + 4) << std::e
 956              		.loc 1 192 48 is_stmt 0 discriminator 2 view .LVU268
 957 03a0 0FB6D1   		movzbl	%cl, %edx
 192:Src/translator.cpp ****             // std::cout << "from " << (int)((id + i) * elsize) << " to " << (int)(i + 4) << std::e
GAS LISTING /tmp/cc6hL4kw.s 			page 29


 958              		.loc 1 192 20 discriminator 2 view .LVU269
 959 03a3 400FB6FE 		movzbl	%sil, %edi
 192:Src/translator.cpp ****             // std::cout << "from " << (int)((id + i) * elsize) << " to " << (int)(i + 4) << std::e
 960              		.loc 1 192 23 discriminator 2 view .LVU270
 961 03a7 01F8     		addl	%edi, %eax
 192:Src/translator.cpp ****             // std::cout << "from " << (int)((id + i) * elsize) << " to " << (int)(i + 4) << std::e
 962              		.loc 1 192 30 discriminator 2 view .LVU271
 963 03a9 410FB6FD 		movzbl	%r13b, %edi
 192:Src/translator.cpp ****             // std::cout << "from " << (int)((id + i) * elsize) << " to " << (int)(i + 4) << std::e
 964              		.loc 1 192 28 discriminator 2 view .LVU272
 965 03ad 0FAFC7   		imull	%edi, %eax
 966 03b0 4898     		cltq
 192:Src/translator.cpp ****             // std::cout << "from " << (int)((id + i) * elsize) << " to " << (int)(i + 4) << std::e
 967              		.loc 1 192 53 discriminator 2 view .LVU273
 968 03b2 0FB65413 		movzbl	4(%rbx,%rdx), %edx
 968      04
 192:Src/translator.cpp ****             // std::cout << "from " << (int)((id + i) * elsize) << " to " << (int)(i + 4) << std::e
 969              		.loc 1 192 38 discriminator 2 view .LVU274
 970 03b7 41881404 		movb	%dl, (%r12,%rax)
 190:Src/translator.cpp ****         {
 971              		.loc 1 190 9 is_stmt 1 discriminator 2 view .LVU275
 972 03bb 83C101   		addl	$1, %ecx
 973              	.LVL110:
 190:Src/translator.cpp ****         {
 974              		.loc 1 190 9 is_stmt 0 discriminator 2 view .LVU276
 975 03be EBD2     		jmp	.L69
 976              	.LVL111:
 977              	.L70:
 190:Src/translator.cpp ****         {
 978              		.loc 1 190 9 discriminator 2 view .LVU277
 979              	.LBE8:
 180:Src/translator.cpp ****         uint8_t len = getLen(package);
 980              		.loc 1 180 20 view .LVU278
 981 03c0 BD650000 		movl	$101, %ebp
 981      00
 982              	.LVL112:
 983              	.L67:
 196:Src/translator.cpp ****     
 984              		.loc 1 196 5 view .LVU279
 985 03c5 89E8     		movl	%ebp, %eax
 986 03c7 5B       		popq	%rbx
 987              		.cfi_remember_state
 988              		.cfi_def_cfa_offset 48
 989              	.LVL113:
 196:Src/translator.cpp ****     
 990              		.loc 1 196 5 view .LVU280
 991 03c8 5D       		popq	%rbp
 992              		.cfi_def_cfa_offset 40
 993 03c9 415C     		popq	%r12
 994              		.cfi_def_cfa_offset 32
 995              	.LVL114:
 196:Src/translator.cpp ****     
 996              		.loc 1 196 5 view .LVU281
 997 03cb 415D     		popq	%r13
 998              		.cfi_def_cfa_offset 24
 999              	.LVL115:
 196:Src/translator.cpp ****     
GAS LISTING /tmp/cc6hL4kw.s 			page 30


 1000              		.loc 1 196 5 view .LVU282
 1001 03cd 415E     		popq	%r14
 1002              		.cfi_def_cfa_offset 16
 1003 03cf 415F     		popq	%r15
 1004              		.cfi_def_cfa_offset 8
 1005 03d1 C3       		ret
 1006              	.LVL116:
 1007              	.L71:
 1008              		.cfi_restore_state
 183:Src/translator.cpp ****         checksum_t  check = genCheckSum(package),
 1009              		.loc 1 183 20 view .LVU283
 1010 03d2 BD640000 		movl	$100, %ebp
 1010      00
 1011              	.LVL117:
 183:Src/translator.cpp ****         checksum_t  check = genCheckSum(package),
 1012              		.loc 1 183 20 view .LVU284
 1013 03d7 EBEC     		jmp	.L67
 1014              	.LVL118:
 1015              	.L72:
 187:Src/translator.cpp **** 
 1016              		.loc 1 187 20 view .LVU285
 1017 03d9 BD660000 		movl	$102, %ebp
 1017      00
 1018              	.LVL119:
 187:Src/translator.cpp **** 
 1019              		.loc 1 187 20 view .LVU286
 1020 03de EBE5     		jmp	.L67
 1021              		.cfi_endproc
 1022              	.LFE1515:
 1024              		.globl	_ZN10translator11generateArrEhhhPKhPh
 1026              	_ZN10translator11generateArrEhhhPKhPh:
 1027              	.LVL120:
 1028              	.LFB1516:
 201:Src/translator.cpp ****         tgt[0] = getZeroByte(TYPE_ARR, (arrlen * elsize) + 1);
 1029              		.loc 1 201 5 is_stmt 1 view -0
 1030              		.cfi_startproc
 201:Src/translator.cpp ****         tgt[0] = getZeroByte(TYPE_ARR, (arrlen * elsize) + 1);
 1031              		.loc 1 201 5 is_stmt 0 view .LVU288
 1032 03e0 4156     		pushq	%r14
 1033              		.cfi_def_cfa_offset 16
 1034              		.cfi_offset 14, -16
 1035 03e2 4155     		pushq	%r13
 1036              		.cfi_def_cfa_offset 24
 1037              		.cfi_offset 13, -24
 1038 03e4 4154     		pushq	%r12
 1039              		.cfi_def_cfa_offset 32
 1040              		.cfi_offset 12, -32
 1041 03e6 55       		pushq	%rbp
 1042              		.cfi_def_cfa_offset 40
 1043              		.cfi_offset 6, -40
 1044 03e7 53       		pushq	%rbx
 1045              		.cfi_def_cfa_offset 48
 1046              		.cfi_offset 3, -48
 1047 03e8 4189FE   		movl	%edi, %r14d
 1048 03eb 89D0     		movl	%edx, %eax
 1049 03ed 4989CC   		movq	%rcx, %r12
 1050 03f0 4C89C5   		movq	%r8, %rbp
GAS LISTING /tmp/cc6hL4kw.s 			page 31


 1051 03f3 4189F5   		movl	%esi, %r13d
 1052 03f6 89D3     		movl	%edx, %ebx
 202:Src/translator.cpp ****         tgt[3] = id;
 1053              		.loc 1 202 9 is_stmt 1 view .LVU289
 202:Src/translator.cpp ****         tgt[3] = id;
 1054              		.loc 1 202 48 is_stmt 0 view .LVU290
 1055 03f8 0FAFC6   		imull	%esi, %eax
 202:Src/translator.cpp ****         tgt[3] = id;
 1056              		.loc 1 202 58 view .LVU291
 1057 03fb 8D7001   		leal	1(%rax), %esi
 1058              	.LVL121:
 202:Src/translator.cpp ****         tgt[3] = id;
 1059              		.loc 1 202 29 view .LVU292
 1060 03fe 400FB6F6 		movzbl	%sil, %esi
 1061 0402 BF030000 		movl	$3, %edi
 1061      00
 1062              	.LVL122:
 202:Src/translator.cpp ****         tgt[3] = id;
 1063              		.loc 1 202 29 view .LVU293
 1064 0407 E8000000 		call	_ZN10translator11getZeroByteEhh
 1064      00
 1065              	.LVL123:
 202:Src/translator.cpp ****         tgt[3] = id;
 1066              		.loc 1 202 16 view .LVU294
 1067 040c 884500   		movb	%al, 0(%rbp)
 203:Src/translator.cpp ****         for(uint8_t i = 0; i < arrlen; i++)
 1068              		.loc 1 203 9 is_stmt 1 view .LVU295
 203:Src/translator.cpp ****         for(uint8_t i = 0; i < arrlen; i++)
 1069              		.loc 1 203 16 is_stmt 0 view .LVU296
 1070 040f 44887503 		movb	%r14b, 3(%rbp)
 204:Src/translator.cpp ****         {
 1071              		.loc 1 204 9 is_stmt 1 view .LVU297
 1072              	.LVL124:
 1073              	.LBB9:
 204:Src/translator.cpp ****         {
 1074              		.loc 1 204 21 is_stmt 0 view .LVU298
 1075 0413 BE000000 		movl	$0, %esi
 1075      00
 1076 0418 EB03     		jmp	.L78
 1077              	.LVL125:
 1078              	.L76:
 204:Src/translator.cpp ****         {
 1079              		.loc 1 204 9 is_stmt 1 discriminator 2 view .LVU299
 1080 041a 83C601   		addl	$1, %esi
 1081              	.LVL126:
 1082              	.L78:
 204:Src/translator.cpp ****         {
 1083              		.loc 1 204 30 discriminator 1 view .LVU300
 1084 041d 4438EE   		cmpb	%r13b, %sil
 1085 0420 7333     		jnb	.L75
 1086              	.LBB10:
 206:Src/translator.cpp ****             {
 1087              		.loc 1 206 25 is_stmt 0 view .LVU301
 1088 0422 B9000000 		movl	$0, %ecx
 1088      00
 1089              	.L77:
 1090              	.LVL127:
GAS LISTING /tmp/cc6hL4kw.s 			page 32


 206:Src/translator.cpp ****             {
 1091              		.loc 1 206 34 is_stmt 1 discriminator 3 view .LVU302
 1092 0427 38D9     		cmpb	%bl, %cl
 1093 0429 73EF     		jnb	.L76
 208:Src/translator.cpp ****             }
 1094              		.loc 1 208 17 discriminator 2 view .LVU303
 208:Src/translator.cpp ****             }
 1095              		.loc 1 208 50 is_stmt 0 discriminator 2 view .LVU304
 1096 042b 400FB6C6 		movzbl	%sil, %eax
 208:Src/translator.cpp ****             }
 1097              		.loc 1 208 54 discriminator 2 view .LVU305
 1098 042f 0FB6D3   		movzbl	%bl, %edx
 208:Src/translator.cpp ****             }
 1099              		.loc 1 208 52 discriminator 2 view .LVU306
 1100 0432 0FAFC2   		imull	%edx, %eax
 208:Src/translator.cpp ****             }
 1101              		.loc 1 208 74 discriminator 2 view .LVU307
 1102 0435 0FB6F9   		movzbl	%cl, %edi
 208:Src/translator.cpp ****             }
 1103              		.loc 1 208 72 discriminator 2 view .LVU308
 1104 0438 29FA     		subl	%edi, %edx
 208:Src/translator.cpp ****             }
 1105              		.loc 1 208 62 discriminator 2 view .LVU309
 1106 043a 8D5410FF 		leal	-1(%rax,%rdx), %edx
 1107 043e 4863D2   		movslq	%edx, %rdx
 208:Src/translator.cpp ****             }
 1108              		.loc 1 208 38 discriminator 2 view .LVU310
 1109 0441 8D443804 		leal	4(%rax,%rdi), %eax
 1110 0445 4898     		cltq
 208:Src/translator.cpp ****             }
 1111              		.loc 1 208 80 discriminator 2 view .LVU311
 1112 0447 410FB614 		movzbl	(%r12,%rdx), %edx
 1112      14
 208:Src/translator.cpp ****             }
 1113              		.loc 1 208 43 discriminator 2 view .LVU312
 1114 044c 88540500 		movb	%dl, 0(%rbp,%rax)
 206:Src/translator.cpp ****             {
 1115              		.loc 1 206 13 is_stmt 1 discriminator 2 view .LVU313
 1116 0450 83C101   		addl	$1, %ecx
 1117              	.LVL128:
 206:Src/translator.cpp ****             {
 1118              		.loc 1 206 13 is_stmt 0 discriminator 2 view .LVU314
 1119 0453 EBD2     		jmp	.L77
 1120              	.LVL129:
 1121              	.L75:
 206:Src/translator.cpp ****             {
 1122              		.loc 1 206 13 discriminator 2 view .LVU315
 1123              	.LBE10:
 1124              	.LBE9:
 211:Src/translator.cpp ****         tgt[1] = check >> 8;
 1125              		.loc 1 211 9 is_stmt 1 view .LVU316
 211:Src/translator.cpp ****         tgt[1] = check >> 8;
 1126              		.loc 1 211 39 is_stmt 0 view .LVU317
 1127 0455 4889EF   		movq	%rbp, %rdi
 1128 0458 E8000000 		call	_ZN10translator11genCheckSumEPKh
 1128      00
 1129              	.LVL130:
GAS LISTING /tmp/cc6hL4kw.s 			page 33


 212:Src/translator.cpp ****         tgt[2] = check & 0xFF;
 1130              		.loc 1 212 9 is_stmt 1 view .LVU318
 212:Src/translator.cpp ****         tgt[2] = check & 0xFF;
 1131              		.loc 1 212 24 is_stmt 0 view .LVU319
 1132 045d 0FB6D4   		movzbl	%ah, %edx
 212:Src/translator.cpp ****         tgt[2] = check & 0xFF;
 1133              		.loc 1 212 16 view .LVU320
 1134 0460 885501   		movb	%dl, 1(%rbp)
 213:Src/translator.cpp ****     }
 1135              		.loc 1 213 9 is_stmt 1 view .LVU321
 213:Src/translator.cpp ****     }
 1136              		.loc 1 213 16 is_stmt 0 view .LVU322
 1137 0463 884502   		movb	%al, 2(%rbp)
 214:Src/translator.cpp ****     
 1138              		.loc 1 214 5 view .LVU323
 1139 0466 5B       		popq	%rbx
 1140              		.cfi_def_cfa_offset 40
 1141              	.LVL131:
 214:Src/translator.cpp ****     
 1142              		.loc 1 214 5 view .LVU324
 1143 0467 5D       		popq	%rbp
 1144              		.cfi_def_cfa_offset 32
 1145              	.LVL132:
 214:Src/translator.cpp ****     
 1146              		.loc 1 214 5 view .LVU325
 1147 0468 415C     		popq	%r12
 1148              		.cfi_def_cfa_offset 24
 1149              	.LVL133:
 214:Src/translator.cpp ****     
 1150              		.loc 1 214 5 view .LVU326
 1151 046a 415D     		popq	%r13
 1152              		.cfi_def_cfa_offset 16
 1153              	.LVL134:
 214:Src/translator.cpp ****     
 1154              		.loc 1 214 5 view .LVU327
 1155 046c 415E     		popq	%r14
 1156              		.cfi_def_cfa_offset 8
 1157 046e C3       		ret
 1158              		.cfi_endproc
 1159              	.LFE1516:
 1161              		.globl	_ZN10translator8parseArrEPhPS0_
 1163              	_ZN10translator8parseArrEPhPS0_:
 1164              	.LVL135:
 1165              	.LFB1517:
 219:Src/translator.cpp ****         uint8_t type = getType(package);
 1166              		.loc 1 219 5 is_stmt 1 view -0
 1167              		.cfi_startproc
 219:Src/translator.cpp ****         uint8_t type = getType(package);
 1168              		.loc 1 219 5 is_stmt 0 view .LVU329
 1169 046f 4156     		pushq	%r14
 1170              		.cfi_def_cfa_offset 16
 1171              		.cfi_offset 14, -16
 1172 0471 4155     		pushq	%r13
 1173              		.cfi_def_cfa_offset 24
 1174              		.cfi_offset 13, -24
 1175 0473 4154     		pushq	%r12
 1176              		.cfi_def_cfa_offset 32
GAS LISTING /tmp/cc6hL4kw.s 			page 34


 1177              		.cfi_offset 12, -32
 1178 0475 55       		pushq	%rbp
 1179              		.cfi_def_cfa_offset 40
 1180              		.cfi_offset 6, -40
 1181 0476 53       		pushq	%rbx
 1182              		.cfi_def_cfa_offset 48
 1183              		.cfi_offset 3, -48
 1184 0477 4889FB   		movq	%rdi, %rbx
 1185 047a 4989F4   		movq	%rsi, %r12
 220:Src/translator.cpp ****         if(type != TYPE_ARR)
 1186              		.loc 1 220 9 is_stmt 1 view .LVU330
 220:Src/translator.cpp ****         if(type != TYPE_ARR)
 1187              		.loc 1 220 31 is_stmt 0 view .LVU331
 1188 047d E8000000 		call	_ZN10translator7getTypeEPKh
 1188      00
 1189              	.LVL136:
 221:Src/translator.cpp ****             return TYPE_BAD_TYPE;
 1190              		.loc 1 221 9 is_stmt 1 view .LVU332
 1191 0482 3C03     		cmpb	$3, %al
 1192 0484 755C     		jne	.L83
 1193 0486 89C5     		movl	%eax, %ebp
 223:Src/translator.cpp ****         if(len < 2)
 1194              		.loc 1 223 9 view .LVU333
 223:Src/translator.cpp ****         if(len < 2)
 1195              		.loc 1 223 29 is_stmt 0 view .LVU334
 1196 0488 4889DF   		movq	%rbx, %rdi
 1197 048b E8000000 		call	_ZN10translator6getLenEPKh
 1197      00
 1198              	.LVL137:
 223:Src/translator.cpp ****         if(len < 2)
 1199              		.loc 1 223 29 view .LVU335
 1200 0490 4189C5   		movl	%eax, %r13d
 1201              	.LVL138:
 224:Src/translator.cpp ****             return TYPE_BAD_LEN;
 1202              		.loc 1 224 9 is_stmt 1 view .LVU336
 1203 0493 3C01     		cmpb	$1, %al
 1204 0495 765B     		jbe	.L84
 226:Src/translator.cpp ****                     thischeck = getCheckSum(package);
 1205              		.loc 1 226 9 view .LVU337
 226:Src/translator.cpp ****                     thischeck = getCheckSum(package);
 1206              		.loc 1 226 40 is_stmt 0 view .LVU338
 1207 0497 4889DF   		movq	%rbx, %rdi
 1208 049a E8000000 		call	_ZN10translator11genCheckSumEPKh
 1208      00
 1209              	.LVL139:
 226:Src/translator.cpp ****                     thischeck = getCheckSum(package);
 1210              		.loc 1 226 40 view .LVU339
 1211 049f 4189C6   		movl	%eax, %r14d
 1212              	.LVL140:
 227:Src/translator.cpp ****         if(check != thischeck)
 1213              		.loc 1 227 44 view .LVU340
 1214 04a2 4889DF   		movq	%rbx, %rdi
 1215 04a5 E8000000 		call	_ZN10translator11getCheckSumEPKh
 1215      00
 1216              	.LVL141:
 228:Src/translator.cpp ****             return TYPE_BAD_CHECKSUM;
 1217              		.loc 1 228 9 is_stmt 1 view .LVU341
GAS LISTING /tmp/cc6hL4kw.s 			page 35


 1218 04aa 664139C6 		cmpw	%ax, %r14w
 1219 04ae 7549     		jne	.L85
 231:Src/translator.cpp ****         for(uint8_t i = 0; i < len - 1; i++)
 1220              		.loc 1 231 9 view .LVU342
 231:Src/translator.cpp ****         for(uint8_t i = 0; i < len - 1; i++)
 1221              		.loc 1 231 17 is_stmt 0 view .LVU343
 1222 04b0 0FB67B03 		movzbl	3(%rbx), %edi
 1223              	.LVL142:
 232:Src/translator.cpp ****         {
 1224              		.loc 1 232 9 is_stmt 1 view .LVU344
 1225              	.LBB11:
 232:Src/translator.cpp ****         {
 1226              		.loc 1 232 21 is_stmt 0 view .LVU345
 1227 04b4 B9000000 		movl	$0, %ecx
 1227      00
 1228              	.LVL143:
 1229              	.L82:
 232:Src/translator.cpp ****         {
 1230              		.loc 1 232 30 is_stmt 1 discriminator 3 view .LVU346
 232:Src/translator.cpp ****         {
 1231              		.loc 1 232 28 is_stmt 0 discriminator 3 view .LVU347
 1232 04b9 0FB6C1   		movzbl	%cl, %eax
 232:Src/translator.cpp ****         {
 1233              		.loc 1 232 32 discriminator 3 view .LVU348
 1234 04bc 410FB6D5 		movzbl	%r13b, %edx
 232:Src/translator.cpp ****         {
 1235              		.loc 1 232 36 discriminator 3 view .LVU349
 1236 04c0 83EA01   		subl	$1, %edx
 232:Src/translator.cpp ****         {
 1237              		.loc 1 232 30 discriminator 3 view .LVU350
 1238 04c3 39D0     		cmpl	%edx, %eax
 1239 04c5 7D20     		jge	.L80
 234:Src/translator.cpp ****         }
 1240              		.loc 1 234 13 is_stmt 1 discriminator 2 view .LVU351
 234:Src/translator.cpp ****         }
 1241              		.loc 1 234 38 is_stmt 0 discriminator 2 view .LVU352
 1242 04c7 83C004   		addl	$4, %eax
 1243 04ca 4898     		cltq
 234:Src/translator.cpp ****         }
 1244              		.loc 1 234 19 discriminator 2 view .LVU353
 1245 04cc 400FB6F7 		movzbl	%dil, %esi
 234:Src/translator.cpp ****         }
 1246              		.loc 1 234 23 discriminator 2 view .LVU354
 1247 04d0 0FB6D1   		movzbl	%cl, %edx
 234:Src/translator.cpp ****         }
 1248              		.loc 1 234 24 discriminator 2 view .LVU355
 1249 04d3 490314F4 		addq	(%r12,%rsi,8), %rdx
 234:Src/translator.cpp ****         }
 1250              		.loc 1 234 41 discriminator 2 view .LVU356
 1251 04d7 0FB60403 		movzbl	(%rbx,%rax), %eax
 234:Src/translator.cpp ****         }
 1252              		.loc 1 234 26 discriminator 2 view .LVU357
 1253 04db 8802     		movb	%al, (%rdx)
 232:Src/translator.cpp ****         {
 1254              		.loc 1 232 9 is_stmt 1 discriminator 2 view .LVU358
 1255 04dd 83C101   		addl	$1, %ecx
 1256              	.LVL144:
GAS LISTING /tmp/cc6hL4kw.s 			page 36


 232:Src/translator.cpp ****         {
 1257              		.loc 1 232 9 is_stmt 0 discriminator 2 view .LVU359
 1258 04e0 EBD7     		jmp	.L82
 1259              	.LVL145:
 1260              	.L83:
 232:Src/translator.cpp ****         {
 1261              		.loc 1 232 9 discriminator 2 view .LVU360
 1262              	.LBE11:
 222:Src/translator.cpp ****         uint8_t len = getLen(package);
 1263              		.loc 1 222 20 view .LVU361
 1264 04e2 BD650000 		movl	$101, %ebp
 1264      00
 1265              	.LVL146:
 1266              	.L80:
 237:Src/translator.cpp ****     
 1267              		.loc 1 237 5 view .LVU362
 1268 04e7 89E8     		movl	%ebp, %eax
 1269 04e9 5B       		popq	%rbx
 1270              		.cfi_remember_state
 1271              		.cfi_def_cfa_offset 40
 1272              	.LVL147:
 237:Src/translator.cpp ****     
 1273              		.loc 1 237 5 view .LVU363
 1274 04ea 5D       		popq	%rbp
 1275              		.cfi_def_cfa_offset 32
 1276 04eb 415C     		popq	%r12
 1277              		.cfi_def_cfa_offset 24
 1278              	.LVL148:
 237:Src/translator.cpp ****     
 1279              		.loc 1 237 5 view .LVU364
 1280 04ed 415D     		popq	%r13
 1281              		.cfi_def_cfa_offset 16
 1282 04ef 415E     		popq	%r14
 1283              		.cfi_def_cfa_offset 8
 1284 04f1 C3       		ret
 1285              	.LVL149:
 1286              	.L84:
 1287              		.cfi_restore_state
 225:Src/translator.cpp ****         checksum_t  check = genCheckSum(package),
 1288              		.loc 1 225 20 view .LVU365
 1289 04f2 BD640000 		movl	$100, %ebp
 1289      00
 1290              	.LVL150:
 225:Src/translator.cpp ****         checksum_t  check = genCheckSum(package),
 1291              		.loc 1 225 20 view .LVU366
 1292 04f7 EBEE     		jmp	.L80
 1293              	.LVL151:
 1294              	.L85:
 229:Src/translator.cpp **** 
 1295              		.loc 1 229 20 view .LVU367
 1296 04f9 BD660000 		movl	$102, %ebp
 1296      00
 1297              	.LVL152:
 229:Src/translator.cpp **** 
 1298              		.loc 1 229 20 view .LVU368
 1299 04fe EBE7     		jmp	.L80
 1300              		.cfi_endproc
GAS LISTING /tmp/cc6hL4kw.s 			page 37


 1301              	.LFE1517:
 1303              		.globl	_ZN10translator6isFullEPhh
 1305              	_ZN10translator6isFullEPhh:
 1306              	.LVL153:
 1307              	.LFB1518:
 242:Src/translator.cpp ****         if(len < 3)
 1308              		.loc 1 242 5 is_stmt 1 view -0
 1309              		.cfi_startproc
 243:Src/translator.cpp ****             return false;
 1310              		.loc 1 243 9 view .LVU370
 1311 0500 4080FE02 		cmpb	$2, %sil
 1312 0504 764F     		jbe	.L91
 242:Src/translator.cpp ****         if(len < 3)
 1313              		.loc 1 242 5 is_stmt 0 view .LVU371
 1314 0506 4154     		pushq	%r12
 1315              		.cfi_def_cfa_offset 16
 1316              		.cfi_offset 12, -16
 1317 0508 55       		pushq	%rbp
 1318              		.cfi_def_cfa_offset 24
 1319              		.cfi_offset 6, -24
 1320 0509 53       		pushq	%rbx
 1321              		.cfi_def_cfa_offset 32
 1322              		.cfi_offset 3, -32
 1323 050a 4889FD   		movq	%rdi, %rbp
 1324 050d 89F3     		movl	%esi, %ebx
 245:Src/translator.cpp ****             return false;
 1325              		.loc 1 245 9 is_stmt 1 view .LVU372
 245:Src/translator.cpp ****             return false;
 1326              		.loc 1 245 19 is_stmt 0 view .LVU373
 1327 050f E8000000 		call	_ZN10translator6getLenEPKh
 1327      00
 1328              	.LVL154:
 245:Src/translator.cpp ****             return false;
 1329              		.loc 1 245 19 view .LVU374
 1330 0514 4189C4   		movl	%eax, %r12d
 1331 0517 0FB6C0   		movzbl	%al, %eax
 245:Src/translator.cpp ****             return false;
 1332              		.loc 1 245 29 view .LVU375
 1333 051a 83C003   		addl	$3, %eax
 245:Src/translator.cpp ****             return false;
 1334              		.loc 1 245 37 view .LVU376
 1335 051d 0FB6DB   		movzbl	%bl, %ebx
 245:Src/translator.cpp ****             return false;
 1336              		.loc 1 245 9 view .LVU377
 1337 0520 39D8     		cmpl	%ebx, %eax
 1338 0522 7537     		jne	.L92
 247:Src/translator.cpp ****         {
 1339              		.loc 1 247 9 is_stmt 1 view .LVU378
 247:Src/translator.cpp ****         {
 1340              		.loc 1 247 24 is_stmt 0 view .LVU379
 1341 0524 4889EF   		movq	%rbp, %rdi
 1342 0527 E8000000 		call	_ZN10translator7getTypeEPKh
 1342      00
 1343              	.LVL155:
 247:Src/translator.cpp ****         {
 1344              		.loc 1 247 9 view .LVU380
 1345 052c 3C01     		cmpb	$1, %al
GAS LISTING /tmp/cc6hL4kw.s 			page 38


 1346 052e 7418     		je	.L89
 1347 0530 84C0     		testb	%al, %al
 1348 0532 7431     		je	.L93
 1349 0534 83E802   		subl	$2, %eax
 1350 0537 3C01     		cmpb	$1, %al
 1351 0539 7731     		ja	.L102
 255:Src/translator.cpp ****             case TYPE_ARR:
 1352              		.loc 1 255 13 is_stmt 1 view .LVU381
 256:Src/translator.cpp ****             {
 1353              		.loc 1 256 13 view .LVU382
 257:Src/translator.cpp ****                 if(getLen(package) <= 1)
 1354              		.loc 1 257 13 view .LVU383
 258:Src/translator.cpp ****                     return false;
 1355              		.loc 1 258 17 view .LVU384
 1356 053b 4180FC01 		cmpb	$1, %r12b
 1357 053f 7639     		jbe	.L96
 265:Src/translator.cpp ****     }
 1358              		.loc 1 265 16 is_stmt 0 view .LVU385
 1359 0541 B8010000 		movl	$1, %eax
 1359      00
 1360 0546 EB18     		jmp	.L87
 1361              	.L89:
 249:Src/translator.cpp ****             {
 1362              		.loc 1 249 13 is_stmt 1 view .LVU386
 250:Src/translator.cpp ****                 if(getLen(package) != 1)
 1363              		.loc 1 250 13 view .LVU387
 251:Src/translator.cpp ****                     return false;
 1364              		.loc 1 251 17 view .LVU388
 1365 0548 4180FC01 		cmpb	$1, %r12b
 1366 054c 7525     		jne	.L95
 265:Src/translator.cpp ****     }
 1367              		.loc 1 265 16 is_stmt 0 view .LVU389
 1368 054e B8010000 		movl	$1, %eax
 1368      00
 1369 0553 EB0B     		jmp	.L87
 1370              	.LVL156:
 1371              	.L91:
 1372              		.cfi_def_cfa_offset 8
 1373              		.cfi_restore 3
 1374              		.cfi_restore 6
 1375              		.cfi_restore 12
 244:Src/translator.cpp ****         if((getLen(package) + 3) != len)
 1376              		.loc 1 244 20 view .LVU390
 1377 0555 B8000000 		movl	$0, %eax
 1377      00
 266:Src/translator.cpp **** }
 1378              		.loc 1 266 5 view .LVU391
 1379 055a C3       		ret
 1380              	.LVL157:
 1381              	.L92:
 1382              		.cfi_def_cfa_offset 32
 1383              		.cfi_offset 3, -32
 1384              		.cfi_offset 6, -24
 1385              		.cfi_offset 12, -16
 246:Src/translator.cpp ****         switch (getType(package))
 1386              		.loc 1 246 20 view .LVU392
 1387 055b B8000000 		movl	$0, %eax
GAS LISTING /tmp/cc6hL4kw.s 			page 39


 1387      00
 1388              	.L87:
 266:Src/translator.cpp **** }
 1389              		.loc 1 266 5 view .LVU393
 1390 0560 5B       		popq	%rbx
 1391              		.cfi_remember_state
 1392              		.cfi_def_cfa_offset 24
 1393 0561 5D       		popq	%rbp
 1394              		.cfi_def_cfa_offset 16
 1395              	.LVL158:
 266:Src/translator.cpp **** }
 1396              		.loc 1 266 5 view .LVU394
 1397 0562 415C     		popq	%r12
 1398              		.cfi_def_cfa_offset 8
 1399 0564 C3       		ret
 1400              	.LVL159:
 1401              	.L93:
 1402              		.cfi_restore_state
 247:Src/translator.cpp ****         {
 1403              		.loc 1 247 9 view .LVU395
 1404 0565 B8000000 		movl	$0, %eax
 1404      00
 1405 056a EBF4     		jmp	.L87
 1406              	.L102:
 1407 056c B8000000 		movl	$0, %eax
 1407      00
 1408 0571 EBED     		jmp	.L87
 1409              	.L95:
 252:Src/translator.cpp ****                 break;
 1410              		.loc 1 252 28 view .LVU396
 1411 0573 B8000000 		movl	$0, %eax
 1411      00
 1412 0578 EBE6     		jmp	.L87
 1413              	.L96:
 259:Src/translator.cpp ****                 break;
 1414              		.loc 1 259 28 view .LVU397
 1415 057a B8000000 		movl	$0, %eax
 1415      00
 1416 057f EBDF     		jmp	.L87
 1417              		.cfi_endproc
 1418              	.LFE1518:
 1421              	_GLOBAL__sub_I__ZN10translator11genCheckSumEPKh:
 1422              	.LFB1836:
 1423              		.loc 1 267 1 is_stmt 1 view -0
 1424              		.cfi_startproc
 1425 0581 4883EC08 		subq	$8, %rsp
 1426              		.cfi_def_cfa_offset 16
 1427              		.loc 1 267 1 is_stmt 0 view .LVU399
 1428 0585 BEFFFF00 		movl	$65535, %esi
 1428      00
 1429 058a BF010000 		movl	$1, %edi
 1429      00
 1430 058f E86CFAFF 		call	_Z41__static_initialization_and_destruction_0ii
 1430      FF
 1431              	.LVL160:
 1432 0594 4883C408 		addq	$8, %rsp
 1433              		.cfi_def_cfa_offset 8
GAS LISTING /tmp/cc6hL4kw.s 			page 40


 1434 0598 C3       		ret
 1435              		.cfi_endproc
 1436              	.LFE1836:
 1438              		.section	.init_array,"aw"
 1439              		.align 8
 1440 0000 00000000 		.quad	_GLOBAL__sub_I__ZN10translator11genCheckSumEPKh
 1440      00000000 
 1441              		.local	_ZStL8__ioinit
 1442              		.comm	_ZStL8__ioinit,1,1
 1443              		.text
 1444              	.Letext0:
 1445              		.file 3 "/usr/include/c++/9.2.0/cwchar"
 1446              		.file 4 "/usr/include/c++/9.2.0/new"
 1447              		.file 5 "/usr/include/c++/9.2.0/bits/exception_ptr.h"
 1448              		.file 6 "/usr/include/c++/9.2.0/type_traits"
 1449              		.file 7 "/usr/include/c++/9.2.0/x86_64-pc-linux-gnu/bits/c++config.h"
 1450              		.file 8 "/usr/include/c++/9.2.0/bits/stl_pair.h"
 1451              		.file 9 "/usr/include/c++/9.2.0/debug/debug.h"
 1452              		.file 10 "/usr/include/c++/9.2.0/bits/char_traits.h"
 1453              		.file 11 "/usr/include/c++/9.2.0/cstdint"
 1454              		.file 12 "/usr/include/c++/9.2.0/clocale"
 1455              		.file 13 "/usr/include/c++/9.2.0/cstdlib"
 1456              		.file 14 "/usr/include/c++/9.2.0/cstdio"
 1457              		.file 15 "/usr/include/c++/9.2.0/system_error"
 1458              		.file 16 "/usr/include/c++/9.2.0/bits/ios_base.h"
 1459              		.file 17 "/usr/include/c++/9.2.0/cwctype"
 1460              		.file 18 "/usr/include/c++/9.2.0/iosfwd"
 1461              		.file 19 "/usr/include/c++/9.2.0/bits/predefined_ops.h"
 1462              		.file 20 "/usr/include/c++/9.2.0/ext/new_allocator.h"
 1463              		.file 21 "/usr/include/c++/9.2.0/ext/numeric_traits.h"
 1464              		.file 22 "/usr/lib/gcc/x86_64-pc-linux-gnu/9.2.0/include/stddef.h"
 1465              		.file 23 "<built-in>"
 1466              		.file 24 "/usr/include/bits/types/wint_t.h"
 1467              		.file 25 "/usr/include/bits/types/__mbstate_t.h"
 1468              		.file 26 "/usr/include/bits/types/mbstate_t.h"
 1469              		.file 27 "/usr/include/bits/types/__FILE.h"
 1470              		.file 28 "/usr/include/bits/types/struct_FILE.h"
 1471              		.file 29 "/usr/include/bits/types/FILE.h"
 1472              		.file 30 "/usr/include/wchar.h"
 1473              		.file 31 "/usr/include/bits/types/struct_tm.h"
 1474              		.file 32 "/usr/include/bits/types.h"
 1475              		.file 33 "/usr/include/bits/stdint-intn.h"
 1476              		.file 34 "/usr/include/bits/stdint-uintn.h"
 1477              		.file 35 "/usr/include/stdint.h"
 1478              		.file 36 "/usr/include/locale.h"
 1479              		.file 37 "/usr/include/time.h"
 1480              		.file 38 "/usr/include/c++/9.2.0/x86_64-pc-linux-gnu/bits/atomic_word.h"
 1481              		.file 39 "/usr/include/stdlib.h"
 1482              		.file 40 "/usr/include/bits/stdlib-float.h"
 1483              		.file 41 "/usr/include/bits/stdlib-bsearch.h"
 1484              		.file 42 "/usr/include/bits/types/__fpos_t.h"
 1485              		.file 43 "/usr/include/stdio.h"
 1486              		.file 44 "/usr/include/bits/sys_errlist.h"
 1487              		.file 45 "/usr/include/bits/stdio.h"
 1488              		.file 46 "/usr/include/errno.h"
 1489              		.file 47 "/usr/include/bits/wctype-wchar.h"
 1490              		.file 48 "/usr/include/wctype.h"
GAS LISTING /tmp/cc6hL4kw.s 			page 41


 1491              		.file 49 "Inc/translator.hpp"
GAS LISTING /tmp/cc6hL4kw.s 			page 42


DEFINED SYMBOLS
                            *ABS*:0000000000000000 translator.cpp
     /tmp/cc6hL4kw.s:5      .text:0000000000000000 _Z41__static_initialization_and_destruction_0ii
                             .bss:0000000000000000 _ZStL8__ioinit
     /tmp/cc6hL4kw.s:45     .text:000000000000003d _ZN10translator7getTypeEPKh
     /tmp/cc6hL4kw.s:62     .text:0000000000000044 _ZN10translator6getLenEPKh
     /tmp/cc6hL4kw.s:79     .text:000000000000004b _ZN10translator11genCheckSumEPKh
     /tmp/cc6hL4kw.s:158    .text:0000000000000091 _ZN10translator6equalsEPKhS1_
     /tmp/cc6hL4kw.s:247    .text:00000000000000d6 _ZN10translator11getZeroByteEhh
     /tmp/cc6hL4kw.s:269    .text:00000000000000e3 _ZN10translator11getCheckSumEPKh
     /tmp/cc6hL4kw.s:291    .text:00000000000000f3 _ZN10translator11parsePacketEPhS0_
     /tmp/cc6hL4kw.s:426    .text:000000000000017e _ZN10translator8parseCmdEPhPPFvvE
     /tmp/cc6hL4kw.s:536    .text:00000000000001ef _ZN10translator8parseCmdEPh
     /tmp/cc6hL4kw.s:617    .text:0000000000000242 _ZN10translator11generateCmdEhPh
     /tmp/cc6hL4kw.s:672    .text:0000000000000272 _ZN10translator8validateEPKh
     /tmp/cc6hL4kw.s:769    .text:00000000000002da _ZN10translator11generateVarEhhPKhPh
     /tmp/cc6hL4kw.s:874    .text:0000000000000343 _ZN10translator8parseVarEPhS0_h
     /tmp/cc6hL4kw.s:1026   .text:00000000000003e0 _ZN10translator11generateArrEhhhPKhPh
     /tmp/cc6hL4kw.s:1163   .text:000000000000046f _ZN10translator8parseArrEPhPS0_
     /tmp/cc6hL4kw.s:1305   .text:0000000000000500 _ZN10translator6isFullEPhh
     /tmp/cc6hL4kw.s:1421   .text:0000000000000581 _GLOBAL__sub_I__ZN10translator11genCheckSumEPKh

UNDEFINED SYMBOLS
_GLOBAL_OFFSET_TABLE_
_ZNSt8ios_base4InitC1Ev
__dso_handle
_ZNSt8ios_base4InitD1Ev
__cxa_atexit
