GAS LISTING /tmp/ccqR45hH.s 			page 1


   1              		.file	"translator.cpp"
   2              		.text
   3              	.Ltext0:
   5              	_Z41__static_initialization_and_destruction_0ii:
   6              	.LVL0:
   7              	.LFB1830:
   8              		.file 1 "Src/translator.cpp"
   1:Src/translator.cpp **** #include "translator.hpp"
   2:Src/translator.cpp **** 
   3:Src/translator.cpp **** namespace translator
   4:Src/translator.cpp **** {
   5:Src/translator.cpp **** 
   6:Src/translator.cpp ****     using namespace std;
   7:Src/translator.cpp **** 
   8:Src/translator.cpp ****     //generate checksum for char array
   9:Src/translator.cpp ****     checksum_t genCheckSum(const uint8_t* c)
  10:Src/translator.cpp ****     {
  11:Src/translator.cpp ****         checksum_t ret = 0;
  12:Src/translator.cpp ****         uint8_t len = getLen(c);
  13:Src/translator.cpp ****         // cout << "len: " << (int)len << endl;
  14:Src/translator.cpp ****         // for(int i = 0; i < len + 3; i++)
  15:Src/translator.cpp ****         // {
  16:Src/translator.cpp ****         //     cout << (int)c[i];
  17:Src/translator.cpp ****         // }
  18:Src/translator.cpp ****         // cout << endl;
  19:Src/translator.cpp ****         for(uint8_t i = 0; i < len; i++)
  20:Src/translator.cpp ****         {
  21:Src/translator.cpp ****             ret |= (c[3 + i]) << (8 * ((i % 2) == 1));
  22:Src/translator.cpp ****             // cout << "\nAdding: " << (int)c[3 + i] << endl;
  23:Src/translator.cpp ****         }
  24:Src/translator.cpp ****         return ret;
  25:Src/translator.cpp ****     }
  26:Src/translator.cpp **** 
  27:Src/translator.cpp ****     //get type of package
  28:Src/translator.cpp ****     uint8_t getType(uint8_t *package)
  29:Src/translator.cpp ****     {
  30:Src/translator.cpp ****         return ((package[0] & (~LEN_MASK)) >> 6);
  31:Src/translator.cpp ****     }
  32:Src/translator.cpp **** 
  33:Src/translator.cpp **** 
  34:Src/translator.cpp ****     //parse input package, get payload, return type of package
  35:Src/translator.cpp ****     uint8_t parsePacket(uint8_t *package, uint8_t *payloadto)
  36:Src/translator.cpp ****     {
  37:Src/translator.cpp ****         uint8_t type = getType(package);
  38:Src/translator.cpp ****         if(type != TYPE_ARR && type != TYPE_CMD && type != TYPE_VAR)
  39:Src/translator.cpp ****             return TYPE_BAD_TYPE;
  40:Src/translator.cpp **** 
  41:Src/translator.cpp ****         uint8_t len = getLen(package);
  42:Src/translator.cpp ****         if(len == 0)
  43:Src/translator.cpp ****             return TYPE_BAD_LEN;
  44:Src/translator.cpp **** 
  45:Src/translator.cpp ****         checksum_t checksum = getCheckSum(package);
  46:Src/translator.cpp ****         if(genCheckSum(package) != checksum)
  47:Src/translator.cpp ****             return TYPE_BAD_CHECKSUM;
  48:Src/translator.cpp **** 
  49:Src/translator.cpp ****         package += 3;
  50:Src/translator.cpp ****         while(len > 0)
GAS LISTING /tmp/ccqR45hH.s 			page 2


  51:Src/translator.cpp ****         {
  52:Src/translator.cpp ****             *payloadto = *package;
  53:Src/translator.cpp ****             payloadto++;
  54:Src/translator.cpp ****             package++;
  55:Src/translator.cpp ****         }
  56:Src/translator.cpp ****         *payloadto = *package;
  57:Src/translator.cpp ****         return type;
  58:Src/translator.cpp ****     }
  59:Src/translator.cpp **** 
  60:Src/translator.cpp **** 
  61:Src/translator.cpp ****     //parse cmd from package, call funcArr[cmd], return type of package, max num of funcs - 255
  62:Src/translator.cpp ****     uint8_t parseCmd(uint8_t *package, void (*funcArr [])())
  63:Src/translator.cpp ****     {
  64:Src/translator.cpp ****         uint8_t var = getType(package);
  65:Src/translator.cpp ****         if(var != TYPE_CMD)
  66:Src/translator.cpp ****             return TYPE_BAD_TYPE;
  67:Src/translator.cpp **** 
  68:Src/translator.cpp ****         var = getLen(package);
  69:Src/translator.cpp ****         if(var != 1)
  70:Src/translator.cpp ****             return TYPE_BAD_LEN;
  71:Src/translator.cpp **** 
  72:Src/translator.cpp ****         checksum_t check = genCheckSum(package);
  73:Src/translator.cpp ****         if(check != getCheckSum(package))
  74:Src/translator.cpp ****             return TYPE_BAD_CHECKSUM;
  75:Src/translator.cpp **** 
  76:Src/translator.cpp ****         if(funcArr[package[3]] != NULL)
  77:Src/translator.cpp ****             funcArr[package[3]]();
  78:Src/translator.cpp ****         return TYPE_CMD;
  79:Src/translator.cpp ****     }
  80:Src/translator.cpp **** 
  81:Src/translator.cpp **** 
  82:Src/translator.cpp ****     //get payload from package to addr
  83:Src/translator.cpp ****     void getPayload(const uint8_t *package, uint8_t *to)
  84:Src/translator.cpp ****     {
  85:Src/translator.cpp ****         uint8_t len = getLen(package);
  86:Src/translator.cpp ****         for(uint8_t i = 0; i < len; i++)
  87:Src/translator.cpp ****         {
  88:Src/translator.cpp ****             to[i] = package[i + 3];
  89:Src/translator.cpp ****         }
  90:Src/translator.cpp ****     }
  91:Src/translator.cpp **** 
  92:Src/translator.cpp ****     //get len of payload
  93:Src/translator.cpp ****     uint8_t getLen(const uint8_t* package)
  94:Src/translator.cpp ****     {
  95:Src/translator.cpp ****         return package[0] & LEN_MASK;
  96:Src/translator.cpp ****     }
  97:Src/translator.cpp **** 
  98:Src/translator.cpp ****     bool equals(const uint8_t* p1, const uint8_t* p2)
  99:Src/translator.cpp ****     {
 100:Src/translator.cpp ****         if(p1[0] != p2[0])
 101:Src/translator.cpp ****             return false;
 102:Src/translator.cpp **** 
 103:Src/translator.cpp ****         uint8_t len = getLen(p1);
 104:Src/translator.cpp ****         for(uint8_t i = 0; i < len; i++)
 105:Src/translator.cpp ****         {
 106:Src/translator.cpp ****             if(p1[i] != p2[i])
 107:Src/translator.cpp ****                 return false;
GAS LISTING /tmp/ccqR45hH.s 			page 3


 108:Src/translator.cpp ****         }
 109:Src/translator.cpp ****         return true;
 110:Src/translator.cpp ****     }
 111:Src/translator.cpp **** 
 112:Src/translator.cpp ****     uint8_t getZeroByte(const uint8_t type, const uint8_t len)
 113:Src/translator.cpp ****     {
 114:Src/translator.cpp ****         return (uint8_t)(((type & 0b11) << 6) | (len & LEN_MASK));
 115:Src/translator.cpp ****     }
 116:Src/translator.cpp **** 
 117:Src/translator.cpp **** 
 118:Src/translator.cpp ****     checksum_t getCheckSum(const uint8_t* package)
 119:Src/translator.cpp ****     {
 120:Src/translator.cpp ****         return (package[1] << 8) | package[2];
 121:Src/translator.cpp ****     }
 122:Src/translator.cpp **** 
 123:Src/translator.cpp **** 
 124:Src/translator.cpp ****     //gets cmd num at 'cmd', returns final package into target pointer
 125:Src/translator.cpp ****     void generateCmd(const uint8_t cmd, uint8_t* tgt)
 126:Src/translator.cpp ****     {
 127:Src/translator.cpp ****         tgt[0] = getZeroByte(TYPE_CMD, 1);
 128:Src/translator.cpp ****         tgt[3] = cmd;
 129:Src/translator.cpp ****         checksum_t check = getCheckSum(tgt);
 130:Src/translator.cpp ****         tgt[1] = check >> 8;
 131:Src/translator.cpp ****         tgt[2] = check & 0xFF;
 132:Src/translator.cpp ****     }
 133:Src/translator.cpp **** 
 134:Src/translator.cpp **** 
 135:Src/translator.cpp ****     //get id of var in payload of package
 136:Src/translator.cpp ****     uint8_t getVarId(const uint8_t *pack)
 137:Src/translator.cpp ****     {
 138:Src/translator.cpp ****         if((pack[0] >> 6) != TYPE_VAR)
 139:Src/translator.cpp ****             return 0xFF;
 140:Src/translator.cpp **** 
 141:Src/translator.cpp ****         if((pack[0] & LEN_MASK) <= 1)
 142:Src/translator.cpp ****             return 0xFF - 1;
 143:Src/translator.cpp **** 
 144:Src/translator.cpp ****         checksum_t check = genCheckSum(pack);
 145:Src/translator.cpp ****         if(check != getCheckSum(pack))
 146:Src/translator.cpp ****             return 0xFF - 2;
 147:Src/translator.cpp **** 
 148:Src/translator.cpp ****         return pack[3];
 149:Src/translator.cpp ****     }
 150:Src/translator.cpp **** }
   9              		.loc 1 150 1 view -0
  10              		.cfi_startproc
  11              		.loc 1 150 1 is_stmt 0 view .LVU1
  12 0000 83FF01   		cmpl	$1, %edi
  13 0003 7401     		je	.L7
  14              	.L4:
  15 0005 C3       		ret
  16              	.L7:
  17              		.loc 1 150 1 discriminator 1 view .LVU2
  18 0006 81FEFFFF 		cmpl	$65535, %esi
  18      0000
  19 000c 75F7     		jne	.L4
  20              		.loc 1 150 1 view .LVU3
  21 000e 4883EC08 		subq	$8, %rsp
GAS LISTING /tmp/ccqR45hH.s 			page 4


  22              		.cfi_def_cfa_offset 16
  23              		.file 2 "/usr/include/c++/9.1.0/iostream"
   1:/usr/include/c++/9.1.0/iostream **** // Standard iostream objects -*- C++ -*-
   2:/usr/include/c++/9.1.0/iostream **** 
   3:/usr/include/c++/9.1.0/iostream **** // Copyright (C) 1997-2019 Free Software Foundation, Inc.
   4:/usr/include/c++/9.1.0/iostream **** //
   5:/usr/include/c++/9.1.0/iostream **** // This file is part of the GNU ISO C++ Library.  This library is free
   6:/usr/include/c++/9.1.0/iostream **** // software; you can redistribute it and/or modify it under the
   7:/usr/include/c++/9.1.0/iostream **** // terms of the GNU General Public License as published by the
   8:/usr/include/c++/9.1.0/iostream **** // Free Software Foundation; either version 3, or (at your option)
   9:/usr/include/c++/9.1.0/iostream **** // any later version.
  10:/usr/include/c++/9.1.0/iostream **** 
  11:/usr/include/c++/9.1.0/iostream **** // This library is distributed in the hope that it will be useful,
  12:/usr/include/c++/9.1.0/iostream **** // but WITHOUT ANY WARRANTY; without even the implied warranty of
  13:/usr/include/c++/9.1.0/iostream **** // MERCHANTABILITY or FITNESS FOR A PARTICULAR PURPOSE.  See the
  14:/usr/include/c++/9.1.0/iostream **** // GNU General Public License for more details.
  15:/usr/include/c++/9.1.0/iostream **** 
  16:/usr/include/c++/9.1.0/iostream **** // Under Section 7 of GPL version 3, you are granted additional
  17:/usr/include/c++/9.1.0/iostream **** // permissions described in the GCC Runtime Library Exception, version
  18:/usr/include/c++/9.1.0/iostream **** // 3.1, as published by the Free Software Foundation.
  19:/usr/include/c++/9.1.0/iostream **** 
  20:/usr/include/c++/9.1.0/iostream **** // You should have received a copy of the GNU General Public License and
  21:/usr/include/c++/9.1.0/iostream **** // a copy of the GCC Runtime Library Exception along with this program;
  22:/usr/include/c++/9.1.0/iostream **** // see the files COPYING3 and COPYING.RUNTIME respectively.  If not, see
  23:/usr/include/c++/9.1.0/iostream **** // <http://www.gnu.org/licenses/>.
  24:/usr/include/c++/9.1.0/iostream **** 
  25:/usr/include/c++/9.1.0/iostream **** /** @file include/iostream
  26:/usr/include/c++/9.1.0/iostream ****  *  This is a Standard C++ Library header.
  27:/usr/include/c++/9.1.0/iostream ****  */
  28:/usr/include/c++/9.1.0/iostream **** 
  29:/usr/include/c++/9.1.0/iostream **** //
  30:/usr/include/c++/9.1.0/iostream **** // ISO C++ 14882: 27.3  Standard iostream objects
  31:/usr/include/c++/9.1.0/iostream **** //
  32:/usr/include/c++/9.1.0/iostream **** 
  33:/usr/include/c++/9.1.0/iostream **** #ifndef _GLIBCXX_IOSTREAM
  34:/usr/include/c++/9.1.0/iostream **** #define _GLIBCXX_IOSTREAM 1
  35:/usr/include/c++/9.1.0/iostream **** 
  36:/usr/include/c++/9.1.0/iostream **** #pragma GCC system_header
  37:/usr/include/c++/9.1.0/iostream **** 
  38:/usr/include/c++/9.1.0/iostream **** #include <bits/c++config.h>
  39:/usr/include/c++/9.1.0/iostream **** #include <ostream>
  40:/usr/include/c++/9.1.0/iostream **** #include <istream>
  41:/usr/include/c++/9.1.0/iostream **** 
  42:/usr/include/c++/9.1.0/iostream **** namespace std _GLIBCXX_VISIBILITY(default)
  43:/usr/include/c++/9.1.0/iostream **** {
  44:/usr/include/c++/9.1.0/iostream **** _GLIBCXX_BEGIN_NAMESPACE_VERSION
  45:/usr/include/c++/9.1.0/iostream **** 
  46:/usr/include/c++/9.1.0/iostream ****   /**
  47:/usr/include/c++/9.1.0/iostream ****    *  @name Standard Stream Objects
  48:/usr/include/c++/9.1.0/iostream ****    *
  49:/usr/include/c++/9.1.0/iostream ****    *  The &lt;iostream&gt; header declares the eight <em>standard stream
  50:/usr/include/c++/9.1.0/iostream ****    *  objects</em>.  For other declarations, see
  51:/usr/include/c++/9.1.0/iostream ****    *  http://gcc.gnu.org/onlinedocs/libstdc++/manual/io.html
  52:/usr/include/c++/9.1.0/iostream ****    *  and the @link iosfwd I/O forward declarations @endlink
  53:/usr/include/c++/9.1.0/iostream ****    *
  54:/usr/include/c++/9.1.0/iostream ****    *  They are required by default to cooperate with the global C
  55:/usr/include/c++/9.1.0/iostream ****    *  library's @c FILE streams, and to be available during program
GAS LISTING /tmp/ccqR45hH.s 			page 5


  56:/usr/include/c++/9.1.0/iostream ****    *  startup and termination. For more information, see the section of the
  57:/usr/include/c++/9.1.0/iostream ****    *  manual linked to above.
  58:/usr/include/c++/9.1.0/iostream ****   */
  59:/usr/include/c++/9.1.0/iostream ****   //@{
  60:/usr/include/c++/9.1.0/iostream ****   extern istream cin;		/// Linked to standard input
  61:/usr/include/c++/9.1.0/iostream ****   extern ostream cout;		/// Linked to standard output
  62:/usr/include/c++/9.1.0/iostream ****   extern ostream cerr;		/// Linked to standard error (unbuffered)
  63:/usr/include/c++/9.1.0/iostream ****   extern ostream clog;		/// Linked to standard error (buffered)
  64:/usr/include/c++/9.1.0/iostream **** 
  65:/usr/include/c++/9.1.0/iostream **** #ifdef _GLIBCXX_USE_WCHAR_T
  66:/usr/include/c++/9.1.0/iostream ****   extern wistream wcin;		/// Linked to standard input
  67:/usr/include/c++/9.1.0/iostream ****   extern wostream wcout;	/// Linked to standard output
  68:/usr/include/c++/9.1.0/iostream ****   extern wostream wcerr;	/// Linked to standard error (unbuffered)
  69:/usr/include/c++/9.1.0/iostream ****   extern wostream wclog;	/// Linked to standard error (buffered)
  70:/usr/include/c++/9.1.0/iostream **** #endif
  71:/usr/include/c++/9.1.0/iostream ****   //@}
  72:/usr/include/c++/9.1.0/iostream **** 
  73:/usr/include/c++/9.1.0/iostream ****   // For construction of filebuffers for cout, cin, cerr, clog et. al.
  74:/usr/include/c++/9.1.0/iostream ****   static ios_base::Init __ioinit;
  24              		.loc 2 74 25 view .LVU4
  25 0012 488D3D00 		leaq	_ZStL8__ioinit(%rip), %rdi
  25      000000
  26              	.LVL1:
  27              		.loc 2 74 25 view .LVU5
  28 0019 E8000000 		call	_ZNSt8ios_base4InitC1Ev@PLT
  28      00
  29              	.LVL2:
  30              		.loc 2 74 25 view .LVU6
  31 001e 488D1500 		leaq	__dso_handle(%rip), %rdx
  31      000000
  32 0025 488D3500 		leaq	_ZStL8__ioinit(%rip), %rsi
  32      000000
  33 002c 488B3D00 		movq	_ZNSt8ios_base4InitD1Ev@GOTPCREL(%rip), %rdi
  33      000000
  34 0033 E8000000 		call	__cxa_atexit@PLT
  34      00
  35              	.LVL3:
  36              		.loc 1 150 1 view .LVU7
  37 0038 4883C408 		addq	$8, %rsp
  38              		.cfi_def_cfa_offset 8
  39 003c C3       		ret
  40              		.cfi_endproc
  41              	.LFE1830:
  43              		.globl	_ZN10translator7getTypeEPh
  45              	_ZN10translator7getTypeEPh:
  46              	.LVL4:
  47              	.LFB1504:
  29:Src/translator.cpp ****         return ((package[0] & (~LEN_MASK)) >> 6);
  48              		.loc 1 29 5 is_stmt 1 view -0
  49              		.cfi_startproc
  30:Src/translator.cpp ****     }
  50              		.loc 1 30 9 view .LVU9
  30:Src/translator.cpp ****     }
  51              		.loc 1 30 27 is_stmt 0 view .LVU10
  52 003d 0FB607   		movzbl	(%rdi), %eax
  30:Src/translator.cpp ****     }
  53              		.loc 1 30 44 view .LVU11
GAS LISTING /tmp/ccqR45hH.s 			page 6


  54 0040 C1F806   		sarl	$6, %eax
  31:Src/translator.cpp **** 
  55              		.loc 1 31 5 view .LVU12
  56 0043 C3       		ret
  57              		.cfi_endproc
  58              	.LFE1504:
  60              		.globl	_ZN10translator6getLenEPKh
  62              	_ZN10translator6getLenEPKh:
  63              	.LVL5:
  64              	.LFB1508:
  94:Src/translator.cpp ****         return package[0] & LEN_MASK;
  65              		.loc 1 94 5 is_stmt 1 view -0
  66              		.cfi_startproc
  95:Src/translator.cpp ****     }
  67              		.loc 1 95 9 view .LVU14
  95:Src/translator.cpp ****     }
  68              		.loc 1 95 27 is_stmt 0 view .LVU15
  69 0044 0FB607   		movzbl	(%rdi), %eax
  95:Src/translator.cpp ****     }
  70              		.loc 1 95 29 view .LVU16
  71 0047 83E03F   		andl	$63, %eax
  96:Src/translator.cpp **** 
  72              		.loc 1 96 5 view .LVU17
  73 004a C3       		ret
  74              		.cfi_endproc
  75              	.LFE1508:
  77              		.globl	_ZN10translator11genCheckSumEPKh
  79              	_ZN10translator11genCheckSumEPKh:
  80              	.LVL6:
  81              	.LFB1503:
  10:Src/translator.cpp ****         checksum_t ret = 0;
  82              		.loc 1 10 5 is_stmt 1 view -0
  83              		.cfi_startproc
  10:Src/translator.cpp ****         checksum_t ret = 0;
  84              		.loc 1 10 5 is_stmt 0 view .LVU19
  85 004b 53       		pushq	%rbx
  86              		.cfi_def_cfa_offset 16
  87              		.cfi_offset 3, -16
  88 004c 4889FB   		movq	%rdi, %rbx
  11:Src/translator.cpp ****         uint8_t len = getLen(c);
  89              		.loc 1 11 9 is_stmt 1 view .LVU20
  90              	.LVL7:
  12:Src/translator.cpp ****         // cout << "len: " << (int)len << endl;
  91              		.loc 1 12 9 view .LVU21
  12:Src/translator.cpp ****         // cout << "len: " << (int)len << endl;
  92              		.loc 1 12 29 is_stmt 0 view .LVU22
  93 004f E8000000 		call	_ZN10translator6getLenEPKh
  93      00
  94              	.LVL8:
  12:Src/translator.cpp ****         // cout << "len: " << (int)len << endl;
  95              		.loc 1 12 29 view .LVU23
  96 0054 89C7     		movl	%eax, %edi
  97              	.LVL9:
  19:Src/translator.cpp ****         {
  98              		.loc 1 19 9 is_stmt 1 view .LVU24
  99              	.LBB2:
  19:Src/translator.cpp ****         {
GAS LISTING /tmp/ccqR45hH.s 			page 7


 100              		.loc 1 19 21 is_stmt 0 view .LVU25
 101 0056 BA000000 		movl	$0, %edx
 101      00
 102              	.LBE2:
  11:Src/translator.cpp ****         uint8_t len = getLen(c);
 103              		.loc 1 11 20 view .LVU26
 104 005b B8000000 		movl	$0, %eax
 104      00
 105              	.LVL10:
 106              	.L12:
 107              	.LBB3:
  19:Src/translator.cpp ****         {
 108              		.loc 1 19 30 discriminator 3 view .LVU27
 109 0060 4038FA   		cmpb	%dil, %dl
 110 0063 731C     		jnb	.L10
  21:Src/translator.cpp ****             // cout << "\nAdding: " << (int)c[3 + i] << endl;
 111              		.loc 1 21 13 is_stmt 1 discriminator 2 view .LVU28
  21:Src/translator.cpp ****             // cout << "\nAdding: " << (int)c[3 + i] << endl;
 112              		.loc 1 21 27 is_stmt 0 discriminator 2 view .LVU29
 113 0065 0FB6CA   		movzbl	%dl, %ecx
  21:Src/translator.cpp ****             // cout << "\nAdding: " << (int)c[3 + i] << endl;
 114              		.loc 1 21 25 discriminator 2 view .LVU30
 115 0068 8D7103   		leal	3(%rcx), %esi
 116 006b 4863F6   		movslq	%esi, %rsi
  21:Src/translator.cpp ****             // cout << "\nAdding: " << (int)c[3 + i] << endl;
 117              		.loc 1 21 28 discriminator 2 view .LVU31
 118 006e 0FB63433 		movzbl	(%rbx,%rsi), %esi
  21:Src/translator.cpp ****             // cout << "\nAdding: " << (int)c[3 + i] << endl;
 119              		.loc 1 21 37 discriminator 2 view .LVU32
 120 0072 C1E103   		sall	$3, %ecx
 121 0075 83E108   		andl	$8, %ecx
  21:Src/translator.cpp ****             // cout << "\nAdding: " << (int)c[3 + i] << endl;
 122              		.loc 1 21 31 discriminator 2 view .LVU33
 123 0078 D3E6     		sall	%cl, %esi
  21:Src/translator.cpp ****             // cout << "\nAdding: " << (int)c[3 + i] << endl;
 124              		.loc 1 21 17 discriminator 2 view .LVU34
 125 007a 09F0     		orl	%esi, %eax
 126              	.LVL11:
  19:Src/translator.cpp ****         {
 127              		.loc 1 19 9 discriminator 2 view .LVU35
 128 007c 83C201   		addl	$1, %edx
 129              	.LVL12:
  19:Src/translator.cpp ****         {
 130              		.loc 1 19 9 discriminator 2 view .LVU36
 131 007f EBDF     		jmp	.L12
 132              	.LVL13:
 133              	.L10:
  19:Src/translator.cpp ****         {
 134              		.loc 1 19 9 discriminator 2 view .LVU37
 135              	.LBE3:
  25:Src/translator.cpp **** 
 136              		.loc 1 25 5 view .LVU38
 137 0081 5B       		popq	%rbx
 138              		.cfi_def_cfa_offset 8
 139              	.LVL14:
  25:Src/translator.cpp **** 
 140              		.loc 1 25 5 view .LVU39
GAS LISTING /tmp/ccqR45hH.s 			page 8


 141 0082 C3       		ret
 142              		.cfi_endproc
 143              	.LFE1503:
 145              		.globl	_ZN10translator10getPayloadEPKhPh
 147              	_ZN10translator10getPayloadEPKhPh:
 148              	.LVL15:
 149              	.LFB1507:
  84:Src/translator.cpp ****         uint8_t len = getLen(package);
 150              		.loc 1 84 5 is_stmt 1 view -0
 151              		.cfi_startproc
  84:Src/translator.cpp ****         uint8_t len = getLen(package);
 152              		.loc 1 84 5 is_stmt 0 view .LVU41
 153 0083 55       		pushq	%rbp
 154              		.cfi_def_cfa_offset 16
 155              		.cfi_offset 6, -16
 156 0084 53       		pushq	%rbx
 157              		.cfi_def_cfa_offset 24
 158              		.cfi_offset 3, -24
 159 0085 4889FB   		movq	%rdi, %rbx
 160 0088 4889F5   		movq	%rsi, %rbp
  85:Src/translator.cpp ****         for(uint8_t i = 0; i < len; i++)
 161              		.loc 1 85 9 is_stmt 1 view .LVU42
  85:Src/translator.cpp ****         for(uint8_t i = 0; i < len; i++)
 162              		.loc 1 85 29 is_stmt 0 view .LVU43
 163 008b E8000000 		call	_ZN10translator6getLenEPKh
 163      00
 164              	.LVL16:
  86:Src/translator.cpp ****         {
 165              		.loc 1 86 9 is_stmt 1 view .LVU44
 166              	.LBB4:
  86:Src/translator.cpp ****         {
 167              		.loc 1 86 21 is_stmt 0 view .LVU45
 168 0090 BA000000 		movl	$0, %edx
 168      00
 169              	.LVL17:
 170              	.L16:
  86:Src/translator.cpp ****         {
 171              		.loc 1 86 30 discriminator 3 view .LVU46
 172 0095 38C2     		cmpb	%al, %dl
 173 0097 7312     		jnb	.L14
  88:Src/translator.cpp ****         }
 174              		.loc 1 88 13 is_stmt 1 discriminator 2 view .LVU47
  88:Src/translator.cpp ****         }
 175              		.loc 1 88 29 is_stmt 0 discriminator 2 view .LVU48
 176 0099 0FB6CA   		movzbl	%dl, %ecx
  88:Src/translator.cpp ****         }
 177              		.loc 1 88 34 discriminator 2 view .LVU49
 178 009c 0FB6740B 		movzbl	3(%rbx,%rcx), %esi
 178      03
  88:Src/translator.cpp ****         }
 179              		.loc 1 88 19 discriminator 2 view .LVU50
 180 00a1 4088740D 		movb	%sil, 0(%rbp,%rcx)
 180      00
  86:Src/translator.cpp ****         {
 181              		.loc 1 86 9 discriminator 2 view .LVU51
 182 00a6 83C201   		addl	$1, %edx
 183              	.LVL18:
GAS LISTING /tmp/ccqR45hH.s 			page 9


  86:Src/translator.cpp ****         {
 184              		.loc 1 86 9 discriminator 2 view .LVU52
 185 00a9 EBEA     		jmp	.L16
 186              	.L14:
  86:Src/translator.cpp ****         {
 187              		.loc 1 86 9 discriminator 2 view .LVU53
 188              	.LBE4:
  90:Src/translator.cpp **** 
 189              		.loc 1 90 5 view .LVU54
 190 00ab 5B       		popq	%rbx
 191              		.cfi_def_cfa_offset 16
 192              	.LVL19:
  90:Src/translator.cpp **** 
 193              		.loc 1 90 5 view .LVU55
 194 00ac 5D       		popq	%rbp
 195              		.cfi_def_cfa_offset 8
 196              	.LVL20:
  90:Src/translator.cpp **** 
 197              		.loc 1 90 5 view .LVU56
 198 00ad C3       		ret
 199              		.cfi_endproc
 200              	.LFE1507:
 202              		.globl	_ZN10translator6equalsEPKhS1_
 204              	_ZN10translator6equalsEPKhS1_:
 205              	.LVL21:
 206              	.LFB1509:
  99:Src/translator.cpp ****         if(p1[0] != p2[0])
 207              		.loc 1 99 5 is_stmt 1 view -0
 208              		.cfi_startproc
 100:Src/translator.cpp ****             return false;
 209              		.loc 1 100 9 view .LVU58
 210 00ae 0FB606   		movzbl	(%rsi), %eax
 211 00b1 3807     		cmpb	%al, (%rdi)
 212 00b3 7529     		jne	.L21
  99:Src/translator.cpp ****         if(p1[0] != p2[0])
 213              		.loc 1 99 5 is_stmt 0 view .LVU59
 214 00b5 55       		pushq	%rbp
 215              		.cfi_def_cfa_offset 16
 216              		.cfi_offset 6, -16
 217 00b6 53       		pushq	%rbx
 218              		.cfi_def_cfa_offset 24
 219              		.cfi_offset 3, -24
 220 00b7 4889FB   		movq	%rdi, %rbx
 221 00ba 4889F5   		movq	%rsi, %rbp
 103:Src/translator.cpp ****         for(uint8_t i = 0; i < len; i++)
 222              		.loc 1 103 9 is_stmt 1 view .LVU60
 103:Src/translator.cpp ****         for(uint8_t i = 0; i < len; i++)
 223              		.loc 1 103 29 is_stmt 0 view .LVU61
 224 00bd E8000000 		call	_ZN10translator6getLenEPKh
 224      00
 225              	.LVL22:
 104:Src/translator.cpp ****         {
 226              		.loc 1 104 9 is_stmt 1 view .LVU62
 227              	.LBB5:
 104:Src/translator.cpp ****         {
 228              		.loc 1 104 21 is_stmt 0 view .LVU63
 229 00c2 BA000000 		movl	$0, %edx
GAS LISTING /tmp/ccqR45hH.s 			page 10


 229      00
 230              	.LVL23:
 231              	.L20:
 104:Src/translator.cpp ****         {
 232              		.loc 1 104 30 discriminator 1 view .LVU64
 233 00c7 38C2     		cmpb	%al, %dl
 234 00c9 7319     		jnb	.L22
 106:Src/translator.cpp ****                 return false;
 235              		.loc 1 106 13 is_stmt 1 view .LVU65
 106:Src/translator.cpp ****                 return false;
 236              		.loc 1 106 19 is_stmt 0 view .LVU66
 237 00cb 0FB6CA   		movzbl	%dl, %ecx
 106:Src/translator.cpp ****                 return false;
 238              		.loc 1 106 13 view .LVU67
 239 00ce 0FB6740D 		movzbl	0(%rbp,%rcx), %esi
 239      00
 240 00d3 4038340B 		cmpb	%sil, (%rbx,%rcx)
 241 00d7 7513     		jne	.L23
 104:Src/translator.cpp ****         {
 242              		.loc 1 104 9 discriminator 2 view .LVU68
 243 00d9 83C201   		addl	$1, %edx
 244              	.LVL24:
 104:Src/translator.cpp ****         {
 245              		.loc 1 104 9 discriminator 2 view .LVU69
 246 00dc EBE9     		jmp	.L20
 247              	.LVL25:
 248              	.L21:
 249              		.cfi_def_cfa_offset 8
 250              		.cfi_restore 3
 251              		.cfi_restore 6
 104:Src/translator.cpp ****         {
 252              		.loc 1 104 9 discriminator 2 view .LVU70
 253              	.LBE5:
 101:Src/translator.cpp **** 
 254              		.loc 1 101 20 view .LVU71
 255 00de B8000000 		movl	$0, %eax
 255      00
 110:Src/translator.cpp **** 
 256              		.loc 1 110 5 view .LVU72
 257 00e3 C3       		ret
 258              	.LVL26:
 259              	.L22:
 260              		.cfi_def_cfa_offset 24
 261              		.cfi_offset 3, -24
 262              		.cfi_offset 6, -16
 109:Src/translator.cpp ****     }
 263              		.loc 1 109 16 view .LVU73
 264 00e4 B8010000 		movl	$1, %eax
 264      00
 265              	.LVL27:
 266              	.L18:
 110:Src/translator.cpp **** 
 267              		.loc 1 110 5 view .LVU74
 268 00e9 5B       		popq	%rbx
 269              		.cfi_remember_state
 270              		.cfi_def_cfa_offset 16
 271              	.LVL28:
GAS LISTING /tmp/ccqR45hH.s 			page 11


 110:Src/translator.cpp **** 
 272              		.loc 1 110 5 view .LVU75
 273 00ea 5D       		popq	%rbp
 274              		.cfi_def_cfa_offset 8
 275              	.LVL29:
 110:Src/translator.cpp **** 
 276              		.loc 1 110 5 view .LVU76
 277 00eb C3       		ret
 278              	.LVL30:
 279              	.L23:
 280              		.cfi_restore_state
 281              	.LBB6:
 107:Src/translator.cpp ****         }
 282              		.loc 1 107 24 view .LVU77
 283 00ec B8000000 		movl	$0, %eax
 283      00
 284              	.LVL31:
 107:Src/translator.cpp ****         }
 285              		.loc 1 107 24 view .LVU78
 286 00f1 EBF6     		jmp	.L18
 287              	.LBE6:
 288              		.cfi_endproc
 289              	.LFE1509:
 291              		.globl	_ZN10translator11getZeroByteEhh
 293              	_ZN10translator11getZeroByteEhh:
 294              	.LVL32:
 295              	.LFB1510:
 113:Src/translator.cpp ****         return (uint8_t)(((type & 0b11) << 6) | (len & LEN_MASK));
 296              		.loc 1 113 5 is_stmt 1 view -0
 297              		.cfi_startproc
 114:Src/translator.cpp ****     }
 298              		.loc 1 114 9 view .LVU80
 114:Src/translator.cpp ****     }
 299              		.loc 1 114 33 is_stmt 0 view .LVU81
 300 00f3 400FB6C7 		movzbl	%dil, %eax
 114:Src/translator.cpp ****     }
 301              		.loc 1 114 41 view .LVU82
 302 00f7 C1E006   		sall	$6, %eax
 114:Src/translator.cpp ****     }
 303              		.loc 1 114 54 view .LVU83
 304 00fa 83E63F   		andl	$63, %esi
 305              	.LVL33:
 114:Src/translator.cpp ****     }
 306              		.loc 1 114 47 view .LVU84
 307 00fd 09F0     		orl	%esi, %eax
 115:Src/translator.cpp **** 
 308              		.loc 1 115 5 view .LVU85
 309 00ff C3       		ret
 310              		.cfi_endproc
 311              	.LFE1510:
 313              		.globl	_ZN10translator11getCheckSumEPKh
 315              	_ZN10translator11getCheckSumEPKh:
 316              	.LVL34:
 317              	.LFB1511:
 119:Src/translator.cpp ****         return (package[1] << 8) | package[2];
 318              		.loc 1 119 5 is_stmt 1 view -0
 319              		.cfi_startproc
GAS LISTING /tmp/ccqR45hH.s 			page 12


 120:Src/translator.cpp ****     }
 320              		.loc 1 120 9 view .LVU87
 120:Src/translator.cpp ****     }
 321              		.loc 1 120 26 is_stmt 0 view .LVU88
 322 0100 0FB64701 		movzbl	1(%rdi), %eax
 120:Src/translator.cpp ****     }
 323              		.loc 1 120 28 view .LVU89
 324 0104 C1E008   		sall	$8, %eax
 325 0107 89C2     		movl	%eax, %edx
 120:Src/translator.cpp ****     }
 326              		.loc 1 120 45 view .LVU90
 327 0109 0FB64702 		movzbl	2(%rdi), %eax
 120:Src/translator.cpp ****     }
 328              		.loc 1 120 34 view .LVU91
 329 010d 09D0     		orl	%edx, %eax
 121:Src/translator.cpp **** 
 330              		.loc 1 121 5 view .LVU92
 331 010f C3       		ret
 332              		.cfi_endproc
 333              	.LFE1511:
 335              		.globl	_ZN10translator11parsePacketEPhS0_
 337              	_ZN10translator11parsePacketEPhS0_:
 338              	.LVL35:
 339              	.LFB1505:
  36:Src/translator.cpp ****         uint8_t type = getType(package);
 340              		.loc 1 36 5 is_stmt 1 view -0
 341              		.cfi_startproc
  36:Src/translator.cpp ****         uint8_t type = getType(package);
 342              		.loc 1 36 5 is_stmt 0 view .LVU94
 343 0110 4154     		pushq	%r12
 344              		.cfi_def_cfa_offset 16
 345              		.cfi_offset 12, -16
 346 0112 55       		pushq	%rbp
 347              		.cfi_def_cfa_offset 24
 348              		.cfi_offset 6, -24
 349 0113 53       		pushq	%rbx
 350              		.cfi_def_cfa_offset 32
 351              		.cfi_offset 3, -32
 352 0114 4889FB   		movq	%rdi, %rbx
 353 0117 4889F5   		movq	%rsi, %rbp
  37:Src/translator.cpp ****         if(type != TYPE_ARR && type != TYPE_CMD && type != TYPE_VAR)
 354              		.loc 1 37 9 is_stmt 1 view .LVU95
  37:Src/translator.cpp ****         if(type != TYPE_ARR && type != TYPE_CMD && type != TYPE_VAR)
 355              		.loc 1 37 31 is_stmt 0 view .LVU96
 356 011a E8000000 		call	_ZN10translator7getTypeEPh
 356      00
 357              	.LVL36:
  38:Src/translator.cpp ****             return TYPE_BAD_TYPE;
 358              		.loc 1 38 9 is_stmt 1 view .LVU97
  38:Src/translator.cpp ****             return TYPE_BAD_TYPE;
 359              		.loc 1 38 17 is_stmt 0 view .LVU98
 360 011f 3C03     		cmpb	$3, %al
 361 0121 0F95C1   		setne	%cl
  38:Src/translator.cpp ****             return TYPE_BAD_TYPE;
 362              		.loc 1 38 37 view .LVU99
 363 0124 3C01     		cmpb	$1, %al
 364 0126 0F95C2   		setne	%dl
GAS LISTING /tmp/ccqR45hH.s 			page 13


  38:Src/translator.cpp ****             return TYPE_BAD_TYPE;
 365              		.loc 1 38 9 view .LVU100
 366 0129 84D1     		testb	%dl, %cl
 367 012b 7404     		je	.L31
  38:Src/translator.cpp ****             return TYPE_BAD_TYPE;
 368              		.loc 1 38 49 discriminator 1 view .LVU101
 369 012d 3C02     		cmpb	$2, %al
 370 012f 7539     		jne	.L34
 371              	.L31:
  41:Src/translator.cpp ****         if(len == 0)
 372              		.loc 1 41 9 is_stmt 1 view .LVU102
  41:Src/translator.cpp ****         if(len == 0)
 373              		.loc 1 41 29 is_stmt 0 view .LVU103
 374 0131 4889DF   		movq	%rbx, %rdi
 375 0134 E8000000 		call	_ZN10translator6getLenEPKh
 375      00
 376              	.LVL37:
  42:Src/translator.cpp ****             return TYPE_BAD_LEN;
 377              		.loc 1 42 9 is_stmt 1 view .LVU104
 378 0139 84C0     		testb	%al, %al
 379 013b 7434     		je	.L35
  45:Src/translator.cpp ****         if(genCheckSum(package) != checksum)
 380              		.loc 1 45 9 view .LVU105
  45:Src/translator.cpp ****         if(genCheckSum(package) != checksum)
 381              		.loc 1 45 42 is_stmt 0 view .LVU106
 382 013d 4889DF   		movq	%rbx, %rdi
 383 0140 E8000000 		call	_ZN10translator11getCheckSumEPKh
 383      00
 384              	.LVL38:
  45:Src/translator.cpp ****         if(genCheckSum(package) != checksum)
 385              		.loc 1 45 42 view .LVU107
 386 0145 4189C4   		movl	%eax, %r12d
 387              	.LVL39:
  46:Src/translator.cpp ****             return TYPE_BAD_CHECKSUM;
 388              		.loc 1 46 9 is_stmt 1 view .LVU108
  46:Src/translator.cpp ****             return TYPE_BAD_CHECKSUM;
 389              		.loc 1 46 23 is_stmt 0 view .LVU109
 390 0148 4889DF   		movq	%rbx, %rdi
 391 014b E8000000 		call	_ZN10translator11genCheckSumEPKh
 391      00
 392              	.LVL40:
  46:Src/translator.cpp ****             return TYPE_BAD_CHECKSUM;
 393              		.loc 1 46 9 view .LVU110
 394 0150 664139C4 		cmpw	%ax, %r12w
 395 0154 7525     		jne	.L36
  49:Src/translator.cpp ****         while(len > 0)
 396              		.loc 1 49 9 is_stmt 1 view .LVU111
  49:Src/translator.cpp ****         while(len > 0)
 397              		.loc 1 49 17 is_stmt 0 view .LVU112
 398 0156 488D4303 		leaq	3(%rbx), %rax
 399              	.LVL41:
 400              	.L33:
  50:Src/translator.cpp ****         {
 401              		.loc 1 50 9 is_stmt 1 view .LVU113
  52:Src/translator.cpp ****             payloadto++;
 402              		.loc 1 52 13 view .LVU114
  52:Src/translator.cpp ****             payloadto++;
GAS LISTING /tmp/ccqR45hH.s 			page 14


 403              		.loc 1 52 26 is_stmt 0 view .LVU115
 404 015a 0FB610   		movzbl	(%rax), %edx
  52:Src/translator.cpp ****             payloadto++;
 405              		.loc 1 52 24 view .LVU116
 406 015d 885500   		movb	%dl, 0(%rbp)
  53:Src/translator.cpp ****             package++;
 407              		.loc 1 53 13 is_stmt 1 view .LVU117
  53:Src/translator.cpp ****             package++;
 408              		.loc 1 53 22 is_stmt 0 view .LVU118
 409 0160 4883C501 		addq	$1, %rbp
 410              	.LVL42:
  54:Src/translator.cpp ****         }
 411              		.loc 1 54 13 is_stmt 1 view .LVU119
  54:Src/translator.cpp ****         }
 412              		.loc 1 54 20 is_stmt 0 view .LVU120
 413 0164 4883C001 		addq	$1, %rax
 414              	.LVL43:
  54:Src/translator.cpp ****         }
 415              		.loc 1 54 20 view .LVU121
 416 0168 EBF0     		jmp	.L33
 417              	.LVL44:
 418              	.L34:
  39:Src/translator.cpp **** 
 419              		.loc 1 39 20 view .LVU122
 420 016a B8650000 		movl	$101, %eax
 420      00
 421              	.LVL45:
  39:Src/translator.cpp **** 
 422              		.loc 1 39 20 view .LVU123
 423 016f EB05     		jmp	.L30
 424              	.LVL46:
 425              	.L35:
  43:Src/translator.cpp **** 
 426              		.loc 1 43 20 view .LVU124
 427 0171 B8640000 		movl	$100, %eax
 427      00
 428              	.LVL47:
 429              	.L30:
  58:Src/translator.cpp **** 
 430              		.loc 1 58 5 view .LVU125
 431 0176 5B       		popq	%rbx
 432              		.cfi_remember_state
 433              		.cfi_def_cfa_offset 24
 434              	.LVL48:
  58:Src/translator.cpp **** 
 435              		.loc 1 58 5 view .LVU126
 436 0177 5D       		popq	%rbp
 437              		.cfi_def_cfa_offset 16
 438              	.LVL49:
  58:Src/translator.cpp **** 
 439              		.loc 1 58 5 view .LVU127
 440 0178 415C     		popq	%r12
 441              		.cfi_def_cfa_offset 8
 442 017a C3       		ret
 443              	.LVL50:
 444              	.L36:
 445              		.cfi_restore_state
GAS LISTING /tmp/ccqR45hH.s 			page 15


  47:Src/translator.cpp **** 
 446              		.loc 1 47 20 view .LVU128
 447 017b B8660000 		movl	$102, %eax
 447      00
 448 0180 EBF4     		jmp	.L30
 449              		.cfi_endproc
 450              	.LFE1505:
 452              		.globl	_ZN10translator8parseCmdEPhPPFvvE
 454              	_ZN10translator8parseCmdEPhPPFvvE:
 455              	.LVL51:
 456              	.LFB1506:
  63:Src/translator.cpp ****         uint8_t var = getType(package);
 457              		.loc 1 63 5 is_stmt 1 view -0
 458              		.cfi_startproc
  63:Src/translator.cpp ****         uint8_t var = getType(package);
 459              		.loc 1 63 5 is_stmt 0 view .LVU130
 460 0182 4155     		pushq	%r13
 461              		.cfi_def_cfa_offset 16
 462              		.cfi_offset 13, -16
 463 0184 4154     		pushq	%r12
 464              		.cfi_def_cfa_offset 24
 465              		.cfi_offset 12, -24
 466 0186 55       		pushq	%rbp
 467              		.cfi_def_cfa_offset 32
 468              		.cfi_offset 6, -32
 469 0187 53       		pushq	%rbx
 470              		.cfi_def_cfa_offset 40
 471              		.cfi_offset 3, -40
 472 0188 4883EC08 		subq	$8, %rsp
 473              		.cfi_def_cfa_offset 48
 474 018c 4889FB   		movq	%rdi, %rbx
 475 018f 4989F4   		movq	%rsi, %r12
  64:Src/translator.cpp ****         if(var != TYPE_CMD)
 476              		.loc 1 64 9 is_stmt 1 view .LVU131
  64:Src/translator.cpp ****         if(var != TYPE_CMD)
 477              		.loc 1 64 30 is_stmt 0 view .LVU132
 478 0192 E8000000 		call	_ZN10translator7getTypeEPh
 478      00
 479              	.LVL52:
  65:Src/translator.cpp ****             return TYPE_BAD_TYPE;
 480              		.loc 1 65 9 is_stmt 1 view .LVU133
 481 0197 3C01     		cmpb	$1, %al
 482 0199 7538     		jne	.L40
  68:Src/translator.cpp ****         if(var != 1)
 483              		.loc 1 68 9 view .LVU134
  68:Src/translator.cpp ****         if(var != 1)
 484              		.loc 1 68 21 is_stmt 0 view .LVU135
 485 019b 4889DF   		movq	%rbx, %rdi
 486 019e E8000000 		call	_ZN10translator6getLenEPKh
 486      00
 487              	.LVL53:
  68:Src/translator.cpp ****         if(var != 1)
 488              		.loc 1 68 21 view .LVU136
 489 01a3 89C5     		movl	%eax, %ebp
 490              	.LVL54:
  69:Src/translator.cpp ****             return TYPE_BAD_LEN;
 491              		.loc 1 69 9 is_stmt 1 view .LVU137
GAS LISTING /tmp/ccqR45hH.s 			page 16


 492 01a5 3C01     		cmpb	$1, %al
 493 01a7 753C     		jne	.L41
  72:Src/translator.cpp ****         if(check != getCheckSum(package))
 494              		.loc 1 72 9 view .LVU138
  72:Src/translator.cpp ****         if(check != getCheckSum(package))
 495              		.loc 1 72 39 is_stmt 0 view .LVU139
 496 01a9 4889DF   		movq	%rbx, %rdi
 497 01ac E8000000 		call	_ZN10translator11genCheckSumEPKh
 497      00
 498              	.LVL55:
  72:Src/translator.cpp ****         if(check != getCheckSum(package))
 499              		.loc 1 72 39 view .LVU140
 500 01b1 4189C5   		movl	%eax, %r13d
 501              	.LVL56:
  73:Src/translator.cpp ****             return TYPE_BAD_CHECKSUM;
 502              		.loc 1 73 9 is_stmt 1 view .LVU141
  73:Src/translator.cpp ****             return TYPE_BAD_CHECKSUM;
 503              		.loc 1 73 32 is_stmt 0 view .LVU142
 504 01b4 4889DF   		movq	%rbx, %rdi
 505 01b7 E8000000 		call	_ZN10translator11getCheckSumEPKh
 505      00
 506              	.LVL57:
  73:Src/translator.cpp ****             return TYPE_BAD_CHECKSUM;
 507              		.loc 1 73 9 view .LVU143
 508 01bc 664439E8 		cmpw	%r13w, %ax
 509 01c0 752A     		jne	.L42
  76:Src/translator.cpp ****             funcArr[package[3]]();
 510              		.loc 1 76 9 is_stmt 1 view .LVU144
  76:Src/translator.cpp ****             funcArr[package[3]]();
 511              		.loc 1 76 29 is_stmt 0 view .LVU145
 512 01c2 0FB64303 		movzbl	3(%rbx), %eax
  76:Src/translator.cpp ****             funcArr[package[3]]();
 513              		.loc 1 76 30 view .LVU146
 514 01c6 498B04C4 		movq	(%r12,%rax,8), %rax
  76:Src/translator.cpp ****             funcArr[package[3]]();
 515              		.loc 1 76 9 view .LVU147
 516 01ca 4885C0   		testq	%rax, %rax
 517 01cd 7409     		je	.L38
  77:Src/translator.cpp ****         return TYPE_CMD;
 518              		.loc 1 77 13 is_stmt 1 view .LVU148
  77:Src/translator.cpp ****         return TYPE_CMD;
 519              		.loc 1 77 32 is_stmt 0 view .LVU149
 520 01cf FFD0     		call	*%rax
 521              	.LVL58:
 522 01d1 EB05     		jmp	.L38
 523              	.LVL59:
 524              	.L40:
  66:Src/translator.cpp **** 
 525              		.loc 1 66 20 view .LVU150
 526 01d3 BD650000 		movl	$101, %ebp
 526      00
 527              	.LVL60:
 528              	.L38:
  79:Src/translator.cpp **** 
 529              		.loc 1 79 5 view .LVU151
 530 01d8 89E8     		movl	%ebp, %eax
 531 01da 4883C408 		addq	$8, %rsp
GAS LISTING /tmp/ccqR45hH.s 			page 17


 532              		.cfi_remember_state
 533              		.cfi_def_cfa_offset 40
 534 01de 5B       		popq	%rbx
 535              		.cfi_def_cfa_offset 32
 536              	.LVL61:
  79:Src/translator.cpp **** 
 537              		.loc 1 79 5 view .LVU152
 538 01df 5D       		popq	%rbp
 539              		.cfi_def_cfa_offset 24
 540 01e0 415C     		popq	%r12
 541              		.cfi_def_cfa_offset 16
 542              	.LVL62:
  79:Src/translator.cpp **** 
 543              		.loc 1 79 5 view .LVU153
 544 01e2 415D     		popq	%r13
 545              		.cfi_def_cfa_offset 8
 546 01e4 C3       		ret
 547              	.LVL63:
 548              	.L41:
 549              		.cfi_restore_state
  70:Src/translator.cpp **** 
 550              		.loc 1 70 20 view .LVU154
 551 01e5 BD640000 		movl	$100, %ebp
 551      00
 552 01ea EBEC     		jmp	.L38
 553              	.LVL64:
 554              	.L42:
  74:Src/translator.cpp **** 
 555              		.loc 1 74 20 view .LVU155
 556 01ec BD660000 		movl	$102, %ebp
 556      00
 557              	.LVL65:
  74:Src/translator.cpp **** 
 558              		.loc 1 74 20 view .LVU156
 559 01f1 EBE5     		jmp	.L38
 560              		.cfi_endproc
 561              	.LFE1506:
 563              		.globl	_ZN10translator11generateCmdEhPh
 565              	_ZN10translator11generateCmdEhPh:
 566              	.LVL66:
 567              	.LFB1512:
 126:Src/translator.cpp ****         tgt[0] = getZeroByte(TYPE_CMD, 1);
 568              		.loc 1 126 5 is_stmt 1 view -0
 569              		.cfi_startproc
 126:Src/translator.cpp ****         tgt[0] = getZeroByte(TYPE_CMD, 1);
 570              		.loc 1 126 5 is_stmt 0 view .LVU158
 571 01f3 55       		pushq	%rbp
 572              		.cfi_def_cfa_offset 16
 573              		.cfi_offset 6, -16
 574 01f4 53       		pushq	%rbx
 575              		.cfi_def_cfa_offset 24
 576              		.cfi_offset 3, -24
 577 01f5 89FD     		movl	%edi, %ebp
 578 01f7 4889F3   		movq	%rsi, %rbx
 127:Src/translator.cpp ****         tgt[3] = cmd;
 579              		.loc 1 127 9 is_stmt 1 view .LVU159
 127:Src/translator.cpp ****         tgt[3] = cmd;
GAS LISTING /tmp/ccqR45hH.s 			page 18


 580              		.loc 1 127 29 is_stmt 0 view .LVU160
 581 01fa BE010000 		movl	$1, %esi
 581      00
 582              	.LVL67:
 127:Src/translator.cpp ****         tgt[3] = cmd;
 583              		.loc 1 127 29 view .LVU161
 584 01ff BF010000 		movl	$1, %edi
 584      00
 585              	.LVL68:
 127:Src/translator.cpp ****         tgt[3] = cmd;
 586              		.loc 1 127 29 view .LVU162
 587 0204 E8000000 		call	_ZN10translator11getZeroByteEhh
 587      00
 588              	.LVL69:
 127:Src/translator.cpp ****         tgt[3] = cmd;
 589              		.loc 1 127 16 view .LVU163
 590 0209 8803     		movb	%al, (%rbx)
 128:Src/translator.cpp ****         checksum_t check = getCheckSum(tgt);
 591              		.loc 1 128 9 is_stmt 1 view .LVU164
 128:Src/translator.cpp ****         checksum_t check = getCheckSum(tgt);
 592              		.loc 1 128 16 is_stmt 0 view .LVU165
 593 020b 40886B03 		movb	%bpl, 3(%rbx)
 129:Src/translator.cpp ****         tgt[1] = check >> 8;
 594              		.loc 1 129 9 is_stmt 1 view .LVU166
 129:Src/translator.cpp ****         tgt[1] = check >> 8;
 595              		.loc 1 129 39 is_stmt 0 view .LVU167
 596 020f 4889DF   		movq	%rbx, %rdi
 597 0212 E8000000 		call	_ZN10translator11getCheckSumEPKh
 597      00
 598              	.LVL70:
 130:Src/translator.cpp ****         tgt[2] = check & 0xFF;
 599              		.loc 1 130 9 is_stmt 1 view .LVU168
 130:Src/translator.cpp ****         tgt[2] = check & 0xFF;
 600              		.loc 1 130 24 is_stmt 0 view .LVU169
 601 0217 0FB6D4   		movzbl	%ah, %edx
 130:Src/translator.cpp ****         tgt[2] = check & 0xFF;
 602              		.loc 1 130 16 view .LVU170
 603 021a 885301   		movb	%dl, 1(%rbx)
 131:Src/translator.cpp ****     }
 604              		.loc 1 131 9 is_stmt 1 view .LVU171
 131:Src/translator.cpp ****     }
 605              		.loc 1 131 16 is_stmt 0 view .LVU172
 606 021d 884302   		movb	%al, 2(%rbx)
 132:Src/translator.cpp **** 
 607              		.loc 1 132 5 view .LVU173
 608 0220 5B       		popq	%rbx
 609              		.cfi_def_cfa_offset 16
 610              	.LVL71:
 132:Src/translator.cpp **** 
 611              		.loc 1 132 5 view .LVU174
 612 0221 5D       		popq	%rbp
 613              		.cfi_def_cfa_offset 8
 614 0222 C3       		ret
 615              		.cfi_endproc
 616              	.LFE1512:
 618              		.globl	_ZN10translator8getVarIdEPKh
 620              	_ZN10translator8getVarIdEPKh:
GAS LISTING /tmp/ccqR45hH.s 			page 19


 621              	.LVL72:
 622              	.LFB1513:
 137:Src/translator.cpp ****         if((pack[0] >> 6) != TYPE_VAR)
 623              		.loc 1 137 5 is_stmt 1 view -0
 624              		.cfi_startproc
 138:Src/translator.cpp ****             return 0xFF;
 625              		.loc 1 138 9 view .LVU176
 138:Src/translator.cpp ****             return 0xFF;
 626              		.loc 1 138 19 is_stmt 0 view .LVU177
 627 0223 0FB617   		movzbl	(%rdi), %edx
 628 0226 0FB6C2   		movzbl	%dl, %eax
 138:Src/translator.cpp ****             return 0xFF;
 629              		.loc 1 138 21 view .LVU178
 630 0229 C1F806   		sarl	$6, %eax
 138:Src/translator.cpp ****             return 0xFF;
 631              		.loc 1 138 9 view .LVU179
 632 022c 83F802   		cmpl	$2, %eax
 633 022f 7525     		jne	.L48
 137:Src/translator.cpp ****         if((pack[0] >> 6) != TYPE_VAR)
 634              		.loc 1 137 5 view .LVU180
 635 0231 55       		pushq	%rbp
 636              		.cfi_def_cfa_offset 16
 637              		.cfi_offset 6, -16
 638 0232 53       		pushq	%rbx
 639              		.cfi_def_cfa_offset 24
 640              		.cfi_offset 3, -24
 641 0233 4889FB   		movq	%rdi, %rbx
 141:Src/translator.cpp ****             return 0xFF - 1;
 642              		.loc 1 141 9 is_stmt 1 view .LVU181
 643 0236 F6C23E   		testb	$62, %dl
 644 0239 7421     		je	.L49
 144:Src/translator.cpp ****         if(check != getCheckSum(pack))
 645              		.loc 1 144 9 view .LVU182
 144:Src/translator.cpp ****         if(check != getCheckSum(pack))
 646              		.loc 1 144 39 is_stmt 0 view .LVU183
 647 023b E8000000 		call	_ZN10translator11genCheckSumEPKh
 647      00
 648              	.LVL73:
 144:Src/translator.cpp ****         if(check != getCheckSum(pack))
 649              		.loc 1 144 39 view .LVU184
 650 0240 89C5     		movl	%eax, %ebp
 651              	.LVL74:
 145:Src/translator.cpp ****             return 0xFF - 2;
 652              		.loc 1 145 9 is_stmt 1 view .LVU185
 145:Src/translator.cpp ****             return 0xFF - 2;
 653              		.loc 1 145 32 is_stmt 0 view .LVU186
 654 0242 4889DF   		movq	%rbx, %rdi
 655 0245 E8000000 		call	_ZN10translator11getCheckSumEPKh
 655      00
 656              	.LVL75:
 145:Src/translator.cpp ****             return 0xFF - 2;
 657              		.loc 1 145 9 view .LVU187
 658 024a 6639E8   		cmpw	%bp, %ax
 659 024d 7514     		jne	.L50
 148:Src/translator.cpp ****     }
 660              		.loc 1 148 9 is_stmt 1 view .LVU188
 148:Src/translator.cpp ****     }
GAS LISTING /tmp/ccqR45hH.s 			page 20


 661              		.loc 1 148 22 is_stmt 0 view .LVU189
 662 024f 0FB64303 		movzbl	3(%rbx), %eax
 663              	.LVL76:
 664              	.L46:
 149:Src/translator.cpp **** }
 665              		.loc 1 149 5 view .LVU190
 666 0253 5B       		popq	%rbx
 667              		.cfi_def_cfa_offset 16
 668              	.LVL77:
 149:Src/translator.cpp **** }
 669              		.loc 1 149 5 view .LVU191
 670 0254 5D       		popq	%rbp
 671              		.cfi_def_cfa_offset 8
 672 0255 C3       		ret
 673              	.LVL78:
 674              	.L48:
 675              		.cfi_restore 3
 676              		.cfi_restore 6
 139:Src/translator.cpp **** 
 677              		.loc 1 139 20 view .LVU192
 678 0256 B8FFFFFF 		movl	$-1, %eax
 678      FF
 149:Src/translator.cpp **** }
 679              		.loc 1 149 5 view .LVU193
 680 025b C3       		ret
 681              	.LVL79:
 682              	.L49:
 683              		.cfi_def_cfa_offset 24
 684              		.cfi_offset 3, -24
 685              		.cfi_offset 6, -16
 142:Src/translator.cpp **** 
 686              		.loc 1 142 27 view .LVU194
 687 025c B8FEFFFF 		movl	$-2, %eax
 687      FF
 688 0261 EBF0     		jmp	.L46
 689              	.LVL80:
 690              	.L50:
 146:Src/translator.cpp **** 
 691              		.loc 1 146 27 view .LVU195
 692 0263 B8FDFFFF 		movl	$-3, %eax
 692      FF
 693 0268 EBE9     		jmp	.L46
 694              		.cfi_endproc
 695              	.LFE1513:
 698              	_GLOBAL__sub_I__ZN10translator11genCheckSumEPKh:
 699              	.LFB1831:
 700              		.loc 1 150 1 is_stmt 1 view -0
 701              		.cfi_startproc
 702 026a 4883EC08 		subq	$8, %rsp
 703              		.cfi_def_cfa_offset 16
 704              		.loc 1 150 1 is_stmt 0 view .LVU197
 705 026e BEFFFF00 		movl	$65535, %esi
 705      00
 706 0273 BF010000 		movl	$1, %edi
 706      00
 707 0278 E883FDFF 		call	_Z41__static_initialization_and_destruction_0ii
 707      FF
GAS LISTING /tmp/ccqR45hH.s 			page 21


 708              	.LVL81:
 709 027d 4883C408 		addq	$8, %rsp
 710              		.cfi_def_cfa_offset 8
 711 0281 C3       		ret
 712              		.cfi_endproc
 713              	.LFE1831:
 715              		.section	.init_array,"aw"
 716              		.align 8
 717 0000 00000000 		.quad	_GLOBAL__sub_I__ZN10translator11genCheckSumEPKh
 717      00000000 
 718              		.local	_ZStL8__ioinit
 719              		.comm	_ZStL8__ioinit,1,1
 720              		.text
 721              	.Letext0:
 722              		.file 3 "/usr/include/c++/9.1.0/cwchar"
 723              		.file 4 "/usr/include/c++/9.1.0/new"
 724              		.file 5 "/usr/include/c++/9.1.0/bits/exception_ptr.h"
 725              		.file 6 "/usr/include/c++/9.1.0/type_traits"
 726              		.file 7 "/usr/include/c++/9.1.0/x86_64-pc-linux-gnu/bits/c++config.h"
 727              		.file 8 "/usr/include/c++/9.1.0/bits/stl_pair.h"
 728              		.file 9 "/usr/include/c++/9.1.0/debug/debug.h"
 729              		.file 10 "/usr/include/c++/9.1.0/bits/char_traits.h"
 730              		.file 11 "/usr/include/c++/9.1.0/cstdint"
 731              		.file 12 "/usr/include/c++/9.1.0/clocale"
 732              		.file 13 "/usr/include/c++/9.1.0/cstdlib"
 733              		.file 14 "/usr/include/c++/9.1.0/cstdio"
 734              		.file 15 "/usr/include/c++/9.1.0/system_error"
 735              		.file 16 "/usr/include/c++/9.1.0/bits/ios_base.h"
 736              		.file 17 "/usr/include/c++/9.1.0/cwctype"
 737              		.file 18 "/usr/include/c++/9.1.0/iosfwd"
 738              		.file 19 "/usr/include/c++/9.1.0/bits/predefined_ops.h"
 739              		.file 20 "/usr/include/c++/9.1.0/ext/new_allocator.h"
 740              		.file 21 "/usr/include/c++/9.1.0/ext/numeric_traits.h"
 741              		.file 22 "/usr/lib/gcc/x86_64-pc-linux-gnu/9.1.0/include/stddef.h"
 742              		.file 23 "<built-in>"
 743              		.file 24 "/usr/include/bits/types/wint_t.h"
 744              		.file 25 "/usr/include/bits/types/__mbstate_t.h"
 745              		.file 26 "/usr/include/bits/types/mbstate_t.h"
 746              		.file 27 "/usr/include/bits/types/__FILE.h"
 747              		.file 28 "/usr/include/bits/types/struct_FILE.h"
 748              		.file 29 "/usr/include/bits/types/FILE.h"
 749              		.file 30 "/usr/include/wchar.h"
 750              		.file 31 "/usr/include/bits/types/struct_tm.h"
 751              		.file 32 "/usr/include/bits/types.h"
 752              		.file 33 "/usr/include/bits/stdint-intn.h"
 753              		.file 34 "/usr/include/bits/stdint-uintn.h"
 754              		.file 35 "/usr/include/stdint.h"
 755              		.file 36 "/usr/include/locale.h"
 756              		.file 37 "/usr/include/time.h"
 757              		.file 38 "/usr/include/c++/9.1.0/x86_64-pc-linux-gnu/bits/atomic_word.h"
 758              		.file 39 "/usr/include/stdlib.h"
 759              		.file 40 "/usr/include/bits/stdlib-float.h"
 760              		.file 41 "/usr/include/bits/stdlib-bsearch.h"
 761              		.file 42 "/usr/include/bits/types/__fpos_t.h"
 762              		.file 43 "/usr/include/stdio.h"
 763              		.file 44 "/usr/include/bits/sys_errlist.h"
 764              		.file 45 "/usr/include/bits/stdio.h"
GAS LISTING /tmp/ccqR45hH.s 			page 22


 765              		.file 46 "/usr/include/errno.h"
 766              		.file 47 "/usr/include/bits/wctype-wchar.h"
 767              		.file 48 "/usr/include/wctype.h"
 768              		.file 49 "Inc/translator.hpp"
GAS LISTING /tmp/ccqR45hH.s 			page 23


DEFINED SYMBOLS
                            *ABS*:0000000000000000 translator.cpp
     /tmp/ccqR45hH.s:5      .text:0000000000000000 _Z41__static_initialization_and_destruction_0ii
                             .bss:0000000000000000 _ZStL8__ioinit
     /tmp/ccqR45hH.s:45     .text:000000000000003d _ZN10translator7getTypeEPh
     /tmp/ccqR45hH.s:62     .text:0000000000000044 _ZN10translator6getLenEPKh
     /tmp/ccqR45hH.s:79     .text:000000000000004b _ZN10translator11genCheckSumEPKh
     /tmp/ccqR45hH.s:147    .text:0000000000000083 _ZN10translator10getPayloadEPKhPh
     /tmp/ccqR45hH.s:204    .text:00000000000000ae _ZN10translator6equalsEPKhS1_
     /tmp/ccqR45hH.s:293    .text:00000000000000f3 _ZN10translator11getZeroByteEhh
     /tmp/ccqR45hH.s:315    .text:0000000000000100 _ZN10translator11getCheckSumEPKh
     /tmp/ccqR45hH.s:337    .text:0000000000000110 _ZN10translator11parsePacketEPhS0_
     /tmp/ccqR45hH.s:454    .text:0000000000000182 _ZN10translator8parseCmdEPhPPFvvE
     /tmp/ccqR45hH.s:565    .text:00000000000001f3 _ZN10translator11generateCmdEhPh
     /tmp/ccqR45hH.s:620    .text:0000000000000223 _ZN10translator8getVarIdEPKh
     /tmp/ccqR45hH.s:698    .text:000000000000026a _GLOBAL__sub_I__ZN10translator11genCheckSumEPKh

UNDEFINED SYMBOLS
_GLOBAL_OFFSET_TABLE_
_ZNSt8ios_base4InitC1Ev
__dso_handle
_ZNSt8ios_base4InitD1Ev
__cxa_atexit
