GAS LISTING /tmp/ccBuC8w2.s 			page 1


   1              		.file	"translator.cpp"
   2              		.text
   3              	.Ltext0:
   5              	_Z41__static_initialization_and_destruction_0ii:
   6              	.LVL0:
   7              	.LFB1838:
   8              		.file 1 "Src/translator.cpp"
   1:Src/translator.cpp **** #include "translator.hpp"
   2:Src/translator.cpp **** 
   3:Src/translator.cpp **** namespace translator
   4:Src/translator.cpp **** {
   5:Src/translator.cpp ****     #ifdef USE_MULTIDEVICE
   6:Src/translator.cpp ****         #pragma message "Using multidevice version"
   7:Src/translator.cpp ****         const uint8_t SYS_LEN = 4;
   8:Src/translator.cpp ****         
   9:Src/translator.cpp ****         uint8_t getSenderId(uint8_t* p)
  10:Src/translator.cpp ****         {
  11:Src/translator.cpp ****             return p[SYS_LEN];
  12:Src/translator.cpp ****         }
  13:Src/translator.cpp **** 
  14:Src/translator.cpp ****         #ifdef USE_DYNAMIC_ID
  15:Src/translator.cpp ****             uint8_t myId = 0;
  16:Src/translator.cpp **** 
  17:Src/translator.cpp ****             void setMyId(uint8_t id)
  18:Src/translator.cpp ****             {
  19:Src/translator.cpp ****                 myId = id;
  20:Src/translator.cpp ****             }
  21:Src/translator.cpp **** 
  22:Src/translator.cpp ****             uint8_t getMyId(void)
  23:Src/translator.cpp ****             {
  24:Src/translator.cpp ****                 return myId;
  25:Src/translator.cpp ****             }
  26:Src/translator.cpp ****         #else
  27:Src/translator.cpp ****             #ifndef DEVICE_ID
  28:Src/translator.cpp ****                 #error "Device id is not set"
  29:Src/translator.cpp ****             #else
  30:Src/translator.cpp ****                 #pragma message "Using static device id"
  31:Src/translator.cpp ****                 const uint8_t myId = DEVICE_ID;
  32:Src/translator.cpp ****             #endif
  33:Src/translator.cpp ****         #endif
  34:Src/translator.cpp ****     #else
  35:Src/translator.cpp ****         #pragma message Using 1-1 device version
  36:Src/translator.cpp ****         const uint8_t SYS_LEN = 3;
  37:Src/translator.cpp ****     #endif
  38:Src/translator.cpp **** 
  39:Src/translator.cpp **** 
  40:Src/translator.cpp **** 
  41:Src/translator.cpp ****     //generate checksum for char array
  42:Src/translator.cpp ****     checksum_t genCheckSum(const uint8_t* c)
  43:Src/translator.cpp ****     {
  44:Src/translator.cpp ****         checksum_t ret = 0;
  45:Src/translator.cpp ****         uint8_t len = getLen(c);
  46:Src/translator.cpp ****         for(uint8_t i = 0; i < len + SYS_LEN; i++)
  47:Src/translator.cpp ****         {
  48:Src/translator.cpp ****             if(i != 1 && i != 2)
  49:Src/translator.cpp ****                 ret += (c[i]) << (8 * ((i % 2) == 1));
  50:Src/translator.cpp ****         }
GAS LISTING /tmp/ccBuC8w2.s 			page 2


  51:Src/translator.cpp ****         ret++;
  52:Src/translator.cpp ****         return ret;
  53:Src/translator.cpp ****     }
  54:Src/translator.cpp **** 
  55:Src/translator.cpp ****     //get type of package
  56:Src/translator.cpp ****     uint8_t getType(const uint8_t* package)
  57:Src/translator.cpp ****     {
  58:Src/translator.cpp ****         return ((package[0] & (~LEN_MASK)) >> 6);
  59:Src/translator.cpp ****     }
  60:Src/translator.cpp **** 
  61:Src/translator.cpp **** 
  62:Src/translator.cpp ****     //parse input package, get payload, return type of package
  63:Src/translator.cpp ****     uint8_t parsePacket(uint8_t* package, uint8_t* payloadto)
  64:Src/translator.cpp ****     {
  65:Src/translator.cpp ****         uint8_t type = getType(package);
  66:Src/translator.cpp ****         if(type != TYPE_ARR && type != TYPE_CMD && type != TYPE_VAR)
  67:Src/translator.cpp ****             return TYPE_BAD_TYPE;
  68:Src/translator.cpp ****         uint8_t len = getLen(package);
  69:Src/translator.cpp ****         if(len == 0)
  70:Src/translator.cpp ****             return TYPE_BAD_LEN;
  71:Src/translator.cpp **** 
  72:Src/translator.cpp ****         if(genCheckSum(package) != getCheckSum(package))
  73:Src/translator.cpp ****             return TYPE_BAD_CHECKSUM;
  74:Src/translator.cpp **** 
  75:Src/translator.cpp **** 
  76:Src/translator.cpp ****         for(uint8_t i = 0; i < len; i++)
  77:Src/translator.cpp ****         {
  78:Src/translator.cpp ****             payloadto[i] = package[i + SYS_LEN];
  79:Src/translator.cpp ****         }
  80:Src/translator.cpp ****         return type;
  81:Src/translator.cpp ****     }
  82:Src/translator.cpp **** 
  83:Src/translator.cpp **** 
  84:Src/translator.cpp ****     //parse cmd from package, call funcArr[cmd], return type of package, max num of funcs - 255
  85:Src/translator.cpp ****     uint8_t parseCmd(uint8_t* package, void (*funcArr [])())
  86:Src/translator.cpp ****     {
  87:Src/translator.cpp ****         uint8_t var = getType(package);
  88:Src/translator.cpp ****         if(var != TYPE_CMD)
  89:Src/translator.cpp ****             return TYPE_BAD_TYPE;
  90:Src/translator.cpp **** 
  91:Src/translator.cpp ****         var = getLen(package);
  92:Src/translator.cpp ****         if(var != 1)
  93:Src/translator.cpp ****             return TYPE_BAD_LEN;
  94:Src/translator.cpp **** 
  95:Src/translator.cpp ****         checksum_t check = genCheckSum(package);
  96:Src/translator.cpp ****         if(check != getCheckSum(package))   
  97:Src/translator.cpp ****             return TYPE_BAD_CHECKSUM;
  98:Src/translator.cpp **** 
  99:Src/translator.cpp ****         if(funcArr[package[SYS_LEN]] != NULL)
 100:Src/translator.cpp ****             funcArr[package[SYS_LEN]]();
 101:Src/translator.cpp ****         else
 102:Src/translator.cpp ****             std::cerr << "tgt func is null\n";
 103:Src/translator.cpp ****         return TYPE_CMD;
 104:Src/translator.cpp ****     }
 105:Src/translator.cpp **** 
 106:Src/translator.cpp ****     size_t parseCmd(uint8_t* package)
 107:Src/translator.cpp ****     {
GAS LISTING /tmp/ccBuC8w2.s 			page 3


 108:Src/translator.cpp ****         uint8_t var = getType(package);
 109:Src/translator.cpp ****         if(var != TYPE_CMD)
 110:Src/translator.cpp ****             return ~0;
 111:Src/translator.cpp **** 
 112:Src/translator.cpp ****         var = getLen(package);
 113:Src/translator.cpp ****         if(var != 1)
 114:Src/translator.cpp ****             return ~0;
 115:Src/translator.cpp **** 
 116:Src/translator.cpp ****         checksum_t check = genCheckSum(package);
 117:Src/translator.cpp ****         if(check != getCheckSum(package))
 118:Src/translator.cpp ****             return ~0;
 119:Src/translator.cpp ****         return package[SYS_LEN];
 120:Src/translator.cpp ****     }
 121:Src/translator.cpp **** 
 122:Src/translator.cpp **** 
 123:Src/translator.cpp ****     //get len of payload
 124:Src/translator.cpp ****     uint8_t getLen(const uint8_t* package)
 125:Src/translator.cpp ****     {
 126:Src/translator.cpp ****         return package[0] & LEN_MASK;
 127:Src/translator.cpp ****     }
 128:Src/translator.cpp **** 
 129:Src/translator.cpp ****     bool equals(const uint8_t* p1, const uint8_t* p2)
 130:Src/translator.cpp ****     {
 131:Src/translator.cpp ****         if(p1[0] != p2[0])
 132:Src/translator.cpp ****             return false;
 133:Src/translator.cpp **** 
 134:Src/translator.cpp ****         uint8_t len = getLen(p1);
 135:Src/translator.cpp ****         for(uint8_t i = 0; i < len + SYS_LEN; i++)
 136:Src/translator.cpp ****         {
 137:Src/translator.cpp ****             if(p1[i] != p2[i])
 138:Src/translator.cpp ****                 return false;
 139:Src/translator.cpp ****         }
 140:Src/translator.cpp ****         return true;
 141:Src/translator.cpp ****     }
 142:Src/translator.cpp **** 
 143:Src/translator.cpp ****     uint8_t getZeroByte(const uint8_t type, const uint8_t len)
 144:Src/translator.cpp ****     {
 145:Src/translator.cpp ****         return (uint8_t)(((type & 0b11) << 6) | (len & LEN_MASK));
 146:Src/translator.cpp ****     }
 147:Src/translator.cpp **** 
 148:Src/translator.cpp **** 
 149:Src/translator.cpp ****     checksum_t getCheckSum(const uint8_t* package)
 150:Src/translator.cpp ****     {
 151:Src/translator.cpp ****         return (package[1] << 8) | package[2];
 152:Src/translator.cpp ****     }
 153:Src/translator.cpp **** 
 154:Src/translator.cpp **** 
 155:Src/translator.cpp ****     //gets cmd num at 'cmd', returns final package into target pointer
 156:Src/translator.cpp ****     void generateCmd(const uint8_t cmd, uint8_t* tgt)
 157:Src/translator.cpp ****     {
 158:Src/translator.cpp ****         tgt[0] = getZeroByte(TYPE_CMD, 1);
 159:Src/translator.cpp ****         #ifdef USE_MULTIDEVICE
 160:Src/translator.cpp ****             tgt[SYS_LEN - 1] = myId;
 161:Src/translator.cpp ****         #endif 
 162:Src/translator.cpp ****         tgt[SYS_LEN] = cmd;
 163:Src/translator.cpp ****         checksum_t check = genCheckSum(tgt);
 164:Src/translator.cpp ****         tgt[1] = check >> 8;
GAS LISTING /tmp/ccBuC8w2.s 			page 4


 165:Src/translator.cpp ****         tgt[2] = check & 0xFF;
 166:Src/translator.cpp ****     }
 167:Src/translator.cpp **** 
 168:Src/translator.cpp **** 
 169:Src/translator.cpp ****     //validate checksum, type, len
 170:Src/translator.cpp ****     bool validate(const uint8_t* package)
 171:Src/translator.cpp ****     {
 172:Src/translator.cpp ****         uint8_t type = getType(package);
 173:Src/translator.cpp ****         switch (type)
 174:Src/translator.cpp ****         {
 175:Src/translator.cpp ****             case TYPE_CMD:
 176:Src/translator.cpp ****             {
 177:Src/translator.cpp ****                 if(getLen(package) != 1)
 178:Src/translator.cpp ****                     return false;
 179:Src/translator.cpp ****                 break;
 180:Src/translator.cpp ****             }
 181:Src/translator.cpp ****             case TYPE_VAR:
 182:Src/translator.cpp ****             case TYPE_ARR:
 183:Src/translator.cpp ****             {
 184:Src/translator.cpp ****                 if(getLen(package) <= 1)
 185:Src/translator.cpp ****                     return false;
 186:Src/translator.cpp ****                 break;
 187:Src/translator.cpp ****             }
 188:Src/translator.cpp ****             default:
 189:Src/translator.cpp ****                 return false;
 190:Src/translator.cpp ****         }
 191:Src/translator.cpp ****         return (getCheckSum(package) == genCheckSum(package));
 192:Src/translator.cpp ****     }
 193:Src/translator.cpp **** 
 194:Src/translator.cpp ****     //create var package
 195:Src/translator.cpp ****     void generateVar(const uint8_t id, const uint8_t varlen, const uint8_t* var, uint8_t* tgt)
 196:Src/translator.cpp ****     {
 197:Src/translator.cpp ****         tgt[0] = getZeroByte(TYPE_VAR, varlen + 1);
 198:Src/translator.cpp ****         tgt[SYS_LEN] = id;
 199:Src/translator.cpp ****         for(uint8_t i = 0; i < varlen; i++)
 200:Src/translator.cpp ****         {
 201:Src/translator.cpp ****             tgt[SYS_LEN + 1 + i] = var[varlen - i - 1];
 202:Src/translator.cpp ****             // std::cout << "from " << (int)(i) << " to " << (int)(i + 4) << " set 0x" << std::hex 
 203:Src/translator.cpp ****         }
 204:Src/translator.cpp **** 
 205:Src/translator.cpp ****         #ifdef USE_MULTIDEVICE
 206:Src/translator.cpp ****             tgt[SYS_LEN - 1] = myId;
 207:Src/translator.cpp ****         #endif 
 208:Src/translator.cpp **** 
 209:Src/translator.cpp ****         checksum_t check = genCheckSum(tgt);
 210:Src/translator.cpp ****         tgt[1] = check >> 8;
 211:Src/translator.cpp ****         tgt[2] = check & 0xFF;
 212:Src/translator.cpp **** 
 213:Src/translator.cpp ****     }
 214:Src/translator.cpp **** 
 215:Src/translator.cpp **** 
 216:Src/translator.cpp ****     //parse var from var package and write into toArr[id], return type of package
 217:Src/translator.cpp ****     uint8_t parseVar(uint8_t* package, uint8_t* toArr, uint8_t elsize)
 218:Src/translator.cpp ****     {
 219:Src/translator.cpp ****         uint8_t type = getType(package);
 220:Src/translator.cpp ****         if(type != TYPE_VAR)
 221:Src/translator.cpp ****             return TYPE_BAD_TYPE;
GAS LISTING /tmp/ccBuC8w2.s 			page 5


 222:Src/translator.cpp ****         uint8_t len = getLen(package);
 223:Src/translator.cpp ****         if(len < 2)
 224:Src/translator.cpp ****             return TYPE_BAD_LEN;
 225:Src/translator.cpp ****         checksum_t  check = genCheckSum(package),
 226:Src/translator.cpp ****                     thischeck = getCheckSum(package);
 227:Src/translator.cpp ****         if(check != thischeck)
 228:Src/translator.cpp ****             return TYPE_BAD_CHECKSUM;
 229:Src/translator.cpp **** 
 230:Src/translator.cpp ****         uint8_t id = package[SYS_LEN];
 231:Src/translator.cpp ****         for(uint8_t i = 0; i < len - 1; i++)
 232:Src/translator.cpp ****         {
 233:Src/translator.cpp ****             toArr[(id + i) * elsize] = package[i + SYS_LEN + 1];
 234:Src/translator.cpp ****         }
 235:Src/translator.cpp ****         return TYPE_VAR;
 236:Src/translator.cpp ****     }
 237:Src/translator.cpp ****     
 238:Src/translator.cpp ****     
 239:Src/translator.cpp ****     //create array package
 240:Src/translator.cpp ****     void generateArr(const uint8_t id, const uint8_t arrlen, const uint8_t elsize, const uint8_t* a
 241:Src/translator.cpp ****     {
 242:Src/translator.cpp ****         tgt[0] = getZeroByte(TYPE_ARR, (arrlen * elsize) + 1);
 243:Src/translator.cpp ****         tgt[SYS_LEN] = id;
 244:Src/translator.cpp ****         for(uint8_t i = 0; i < arrlen; i++)
 245:Src/translator.cpp ****         {
 246:Src/translator.cpp ****             for(uint8_t j = 0; j < elsize; j++)
 247:Src/translator.cpp ****             {
 248:Src/translator.cpp ****                 tgt[SYS_LEN + 1 + (i * elsize) + j] = arr[(i * elsize) + (elsize - j - 1)];
 249:Src/translator.cpp ****             }
 250:Src/translator.cpp ****         }
 251:Src/translator.cpp **** 
 252:Src/translator.cpp ****         #ifdef USE_MULTIDEVICE
 253:Src/translator.cpp ****             tgt[SYS_LEN - 1] = myId;
 254:Src/translator.cpp ****         #endif 
 255:Src/translator.cpp **** 
 256:Src/translator.cpp ****         checksum_t check = genCheckSum(tgt);
 257:Src/translator.cpp ****         tgt[1] = check >> 8;
 258:Src/translator.cpp ****         tgt[2] = check & 0xFF;
 259:Src/translator.cpp ****     }
 260:Src/translator.cpp ****     
 261:Src/translator.cpp ****     
 262:Src/translator.cpp ****     //parse array from array package and write into toArr[id], return type of package
 263:Src/translator.cpp ****     uint8_t parseArr(uint8_t* package, uint8_t** toArr)
 264:Src/translator.cpp ****     {
 265:Src/translator.cpp ****         uint8_t type = getType(package);
 266:Src/translator.cpp ****         if(type != TYPE_ARR)
 267:Src/translator.cpp ****             return TYPE_BAD_TYPE;
 268:Src/translator.cpp ****         uint8_t len = getLen(package);
 269:Src/translator.cpp ****         if(len < 2)
 270:Src/translator.cpp ****             return TYPE_BAD_LEN;
 271:Src/translator.cpp ****         checksum_t  check = genCheckSum(package),
 272:Src/translator.cpp ****                     thischeck = getCheckSum(package);
 273:Src/translator.cpp ****         if(check != thischeck)
 274:Src/translator.cpp ****             return TYPE_BAD_CHECKSUM;
 275:Src/translator.cpp **** 
 276:Src/translator.cpp ****         uint8_t id = package[SYS_LEN];
 277:Src/translator.cpp ****         for(uint8_t i = 0; i < len - 1; i++)
 278:Src/translator.cpp ****         {
GAS LISTING /tmp/ccBuC8w2.s 			page 6


 279:Src/translator.cpp ****             toArr[id][i] = package[SYS_LEN + 1 + i];
 280:Src/translator.cpp ****         }
 281:Src/translator.cpp ****         return TYPE_ARR;
 282:Src/translator.cpp ****     }
 283:Src/translator.cpp ****     
 284:Src/translator.cpp ****     
 285:Src/translator.cpp ****     //check for package is full
 286:Src/translator.cpp ****     bool isFull(uint8_t* package, const uint8_t len)
 287:Src/translator.cpp ****     {
 288:Src/translator.cpp **** 
 289:Src/translator.cpp ****         if(len < SYS_LEN)
 290:Src/translator.cpp ****             return false;
 291:Src/translator.cpp ****         if((getLen(package) + SYS_LEN) != len)
 292:Src/translator.cpp ****             return false;
 293:Src/translator.cpp ****         switch (getType(package))
 294:Src/translator.cpp ****         {
 295:Src/translator.cpp ****             case TYPE_CMD:
 296:Src/translator.cpp ****             {
 297:Src/translator.cpp ****                 if(getLen(package) != 1)
 298:Src/translator.cpp ****                     return false;
 299:Src/translator.cpp ****                 break;
 300:Src/translator.cpp ****             }
 301:Src/translator.cpp ****             case TYPE_VAR:
 302:Src/translator.cpp ****             case TYPE_ARR:
 303:Src/translator.cpp ****             {
 304:Src/translator.cpp ****                 if(getLen(package) <= 1)
 305:Src/translator.cpp ****                     return false;
 306:Src/translator.cpp ****                 break;
 307:Src/translator.cpp ****             }
 308:Src/translator.cpp ****             default:
 309:Src/translator.cpp ****                 return false;
 310:Src/translator.cpp ****         }
 311:Src/translator.cpp ****         return true;
 312:Src/translator.cpp ****     }
 313:Src/translator.cpp **** }
   9              		.loc 1 313 1 view -0
  10              		.cfi_startproc
  11              		.loc 1 313 1 is_stmt 0 view .LVU1
  12 0000 83FF01   		cmpl	$1, %edi
  13 0003 7401     		je	.L7
  14              	.L4:
  15 0005 C3       		ret
  16              	.L7:
  17              		.loc 1 313 1 discriminator 1 view .LVU2
  18 0006 81FEFFFF 		cmpl	$65535, %esi
  18      0000
  19 000c 75F7     		jne	.L4
  20              		.loc 1 313 1 view .LVU3
  21 000e 4883EC08 		subq	$8, %rsp
  22              		.cfi_def_cfa_offset 16
  23              		.file 2 "/usr/include/c++/9.2.0/iostream"
   1:/usr/include/c++/9.2.0/iostream **** // Standard iostream objects -*- C++ -*-
   2:/usr/include/c++/9.2.0/iostream **** 
   3:/usr/include/c++/9.2.0/iostream **** // Copyright (C) 1997-2019 Free Software Foundation, Inc.
   4:/usr/include/c++/9.2.0/iostream **** //
   5:/usr/include/c++/9.2.0/iostream **** // This file is part of the GNU ISO C++ Library.  This library is free
   6:/usr/include/c++/9.2.0/iostream **** // software; you can redistribute it and/or modify it under the
GAS LISTING /tmp/ccBuC8w2.s 			page 7


   7:/usr/include/c++/9.2.0/iostream **** // terms of the GNU General Public License as published by the
   8:/usr/include/c++/9.2.0/iostream **** // Free Software Foundation; either version 3, or (at your option)
   9:/usr/include/c++/9.2.0/iostream **** // any later version.
  10:/usr/include/c++/9.2.0/iostream **** 
  11:/usr/include/c++/9.2.0/iostream **** // This library is distributed in the hope that it will be useful,
  12:/usr/include/c++/9.2.0/iostream **** // but WITHOUT ANY WARRANTY; without even the implied warranty of
  13:/usr/include/c++/9.2.0/iostream **** // MERCHANTABILITY or FITNESS FOR A PARTICULAR PURPOSE.  See the
  14:/usr/include/c++/9.2.0/iostream **** // GNU General Public License for more details.
  15:/usr/include/c++/9.2.0/iostream **** 
  16:/usr/include/c++/9.2.0/iostream **** // Under Section 7 of GPL version 3, you are granted additional
  17:/usr/include/c++/9.2.0/iostream **** // permissions described in the GCC Runtime Library Exception, version
  18:/usr/include/c++/9.2.0/iostream **** // 3.1, as published by the Free Software Foundation.
  19:/usr/include/c++/9.2.0/iostream **** 
  20:/usr/include/c++/9.2.0/iostream **** // You should have received a copy of the GNU General Public License and
  21:/usr/include/c++/9.2.0/iostream **** // a copy of the GCC Runtime Library Exception along with this program;
  22:/usr/include/c++/9.2.0/iostream **** // see the files COPYING3 and COPYING.RUNTIME respectively.  If not, see
  23:/usr/include/c++/9.2.0/iostream **** // <http://www.gnu.org/licenses/>.
  24:/usr/include/c++/9.2.0/iostream **** 
  25:/usr/include/c++/9.2.0/iostream **** /** @file include/iostream
  26:/usr/include/c++/9.2.0/iostream ****  *  This is a Standard C++ Library header.
  27:/usr/include/c++/9.2.0/iostream ****  */
  28:/usr/include/c++/9.2.0/iostream **** 
  29:/usr/include/c++/9.2.0/iostream **** //
  30:/usr/include/c++/9.2.0/iostream **** // ISO C++ 14882: 27.3  Standard iostream objects
  31:/usr/include/c++/9.2.0/iostream **** //
  32:/usr/include/c++/9.2.0/iostream **** 
  33:/usr/include/c++/9.2.0/iostream **** #ifndef _GLIBCXX_IOSTREAM
  34:/usr/include/c++/9.2.0/iostream **** #define _GLIBCXX_IOSTREAM 1
  35:/usr/include/c++/9.2.0/iostream **** 
  36:/usr/include/c++/9.2.0/iostream **** #pragma GCC system_header
  37:/usr/include/c++/9.2.0/iostream **** 
  38:/usr/include/c++/9.2.0/iostream **** #include <bits/c++config.h>
  39:/usr/include/c++/9.2.0/iostream **** #include <ostream>
  40:/usr/include/c++/9.2.0/iostream **** #include <istream>
  41:/usr/include/c++/9.2.0/iostream **** 
  42:/usr/include/c++/9.2.0/iostream **** namespace std _GLIBCXX_VISIBILITY(default)
  43:/usr/include/c++/9.2.0/iostream **** {
  44:/usr/include/c++/9.2.0/iostream **** _GLIBCXX_BEGIN_NAMESPACE_VERSION
  45:/usr/include/c++/9.2.0/iostream **** 
  46:/usr/include/c++/9.2.0/iostream ****   /**
  47:/usr/include/c++/9.2.0/iostream ****    *  @name Standard Stream Objects
  48:/usr/include/c++/9.2.0/iostream ****    *
  49:/usr/include/c++/9.2.0/iostream ****    *  The &lt;iostream&gt; header declares the eight <em>standard stream
  50:/usr/include/c++/9.2.0/iostream ****    *  objects</em>.  For other declarations, see
  51:/usr/include/c++/9.2.0/iostream ****    *  http://gcc.gnu.org/onlinedocs/libstdc++/manual/io.html
  52:/usr/include/c++/9.2.0/iostream ****    *  and the @link iosfwd I/O forward declarations @endlink
  53:/usr/include/c++/9.2.0/iostream ****    *
  54:/usr/include/c++/9.2.0/iostream ****    *  They are required by default to cooperate with the global C
  55:/usr/include/c++/9.2.0/iostream ****    *  library's @c FILE streams, and to be available during program
  56:/usr/include/c++/9.2.0/iostream ****    *  startup and termination. For more information, see the section of the
  57:/usr/include/c++/9.2.0/iostream ****    *  manual linked to above.
  58:/usr/include/c++/9.2.0/iostream ****   */
  59:/usr/include/c++/9.2.0/iostream ****   //@{
  60:/usr/include/c++/9.2.0/iostream ****   extern istream cin;		/// Linked to standard input
  61:/usr/include/c++/9.2.0/iostream ****   extern ostream cout;		/// Linked to standard output
  62:/usr/include/c++/9.2.0/iostream ****   extern ostream cerr;		/// Linked to standard error (unbuffered)
  63:/usr/include/c++/9.2.0/iostream ****   extern ostream clog;		/// Linked to standard error (buffered)
GAS LISTING /tmp/ccBuC8w2.s 			page 8


  64:/usr/include/c++/9.2.0/iostream **** 
  65:/usr/include/c++/9.2.0/iostream **** #ifdef _GLIBCXX_USE_WCHAR_T
  66:/usr/include/c++/9.2.0/iostream ****   extern wistream wcin;		/// Linked to standard input
  67:/usr/include/c++/9.2.0/iostream ****   extern wostream wcout;	/// Linked to standard output
  68:/usr/include/c++/9.2.0/iostream ****   extern wostream wcerr;	/// Linked to standard error (unbuffered)
  69:/usr/include/c++/9.2.0/iostream ****   extern wostream wclog;	/// Linked to standard error (buffered)
  70:/usr/include/c++/9.2.0/iostream **** #endif
  71:/usr/include/c++/9.2.0/iostream ****   //@}
  72:/usr/include/c++/9.2.0/iostream **** 
  73:/usr/include/c++/9.2.0/iostream ****   // For construction of filebuffers for cout, cin, cerr, clog et. al.
  74:/usr/include/c++/9.2.0/iostream ****   static ios_base::Init __ioinit;
  24              		.loc 2 74 25 view .LVU4
  25 0012 488D3D00 		leaq	_ZStL8__ioinit(%rip), %rdi
  25      000000
  26              	.LVL1:
  27              		.loc 2 74 25 view .LVU5
  28 0019 E8000000 		call	_ZNSt8ios_base4InitC1Ev@PLT
  28      00
  29              	.LVL2:
  30              		.loc 2 74 25 view .LVU6
  31 001e 488D1500 		leaq	__dso_handle(%rip), %rdx
  31      000000
  32 0025 488D3500 		leaq	_ZStL8__ioinit(%rip), %rsi
  32      000000
  33 002c 488B3D00 		movq	_ZNSt8ios_base4InitD1Ev@GOTPCREL(%rip), %rdi
  33      000000
  34 0033 E8000000 		call	__cxa_atexit@PLT
  34      00
  35              	.LVL3:
  36              		.loc 1 313 1 view .LVU7
  37 0038 4883C408 		addq	$8, %rsp
  38              		.cfi_def_cfa_offset 8
  39 003c C3       		ret
  40              		.cfi_endproc
  41              	.LFE1838:
  43              		.globl	_ZN10translator7getTypeEPKh
  45              	_ZN10translator7getTypeEPKh:
  46              	.LVL4:
  47              	.LFB1504:
  57:Src/translator.cpp ****         return ((package[0] & (~LEN_MASK)) >> 6);
  48              		.loc 1 57 5 is_stmt 1 view -0
  49              		.cfi_startproc
  58:Src/translator.cpp ****     }
  50              		.loc 1 58 9 view .LVU9
  58:Src/translator.cpp ****     }
  51              		.loc 1 58 27 is_stmt 0 view .LVU10
  52 003d 0FB607   		movzbl	(%rdi), %eax
  58:Src/translator.cpp ****     }
  53              		.loc 1 58 44 view .LVU11
  54 0040 C1F806   		sarl	$6, %eax
  59:Src/translator.cpp **** 
  55              		.loc 1 59 5 view .LVU12
  56 0043 C3       		ret
  57              		.cfi_endproc
  58              	.LFE1504:
  60              		.globl	_ZN10translator6getLenEPKh
  62              	_ZN10translator6getLenEPKh:
GAS LISTING /tmp/ccBuC8w2.s 			page 9


  63              	.LVL5:
  64              	.LFB1508:
 125:Src/translator.cpp ****         return package[0] & LEN_MASK;
  65              		.loc 1 125 5 is_stmt 1 view -0
  66              		.cfi_startproc
 126:Src/translator.cpp ****     }
  67              		.loc 1 126 9 view .LVU14
 126:Src/translator.cpp ****     }
  68              		.loc 1 126 27 is_stmt 0 view .LVU15
  69 0044 0FB607   		movzbl	(%rdi), %eax
 126:Src/translator.cpp ****     }
  70              		.loc 1 126 29 view .LVU16
  71 0047 83E03F   		andl	$63, %eax
 127:Src/translator.cpp **** 
  72              		.loc 1 127 5 view .LVU17
  73 004a C3       		ret
  74              		.cfi_endproc
  75              	.LFE1508:
  77              		.globl	_ZN10translator11genCheckSumEPKh
  79              	_ZN10translator11genCheckSumEPKh:
  80              	.LVL6:
  81              	.LFB1503:
  43:Src/translator.cpp ****         checksum_t ret = 0;
  82              		.loc 1 43 5 is_stmt 1 view -0
  83              		.cfi_startproc
  43:Src/translator.cpp ****         checksum_t ret = 0;
  84              		.loc 1 43 5 is_stmt 0 view .LVU19
  85 004b 53       		pushq	%rbx
  86              		.cfi_def_cfa_offset 16
  87              		.cfi_offset 3, -16
  88 004c 4889FB   		movq	%rdi, %rbx
  44:Src/translator.cpp ****         uint8_t len = getLen(c);
  89              		.loc 1 44 9 is_stmt 1 view .LVU20
  90              	.LVL7:
  45:Src/translator.cpp ****         for(uint8_t i = 0; i < len + SYS_LEN; i++)
  91              		.loc 1 45 9 view .LVU21
  45:Src/translator.cpp ****         for(uint8_t i = 0; i < len + SYS_LEN; i++)
  92              		.loc 1 45 29 is_stmt 0 view .LVU22
  93 004f E8000000 		call	_ZN10translator6getLenEPKh
  93      00
  94              	.LVL8:
  46:Src/translator.cpp ****         {
  95              		.loc 1 46 9 is_stmt 1 view .LVU23
  96              	.LBB14:
  46:Src/translator.cpp ****         {
  97              		.loc 1 46 21 is_stmt 0 view .LVU24
  98 0054 BE000000 		movl	$0, %esi
  98      00
  99              	.LBE14:
  44:Src/translator.cpp ****         uint8_t len = getLen(c);
 100              		.loc 1 44 20 view .LVU25
 101 0059 BF000000 		movl	$0, %edi
 101      00
 102 005e EB03     		jmp	.L13
 103              	.LVL9:
 104              	.L12:
 105              	.LBB15:
GAS LISTING /tmp/ccBuC8w2.s 			page 10


  46:Src/translator.cpp ****         {
 106              		.loc 1 46 9 is_stmt 1 discriminator 2 view .LVU26
 107 0060 83C601   		addl	$1, %esi
 108              	.LVL10:
 109              	.L13:
  46:Src/translator.cpp ****         {
 110              		.loc 1 46 30 discriminator 1 view .LVU27
  46:Src/translator.cpp ****         {
 111              		.loc 1 46 32 is_stmt 0 discriminator 1 view .LVU28
 112 0063 0FB6D0   		movzbl	%al, %edx
  46:Src/translator.cpp ****         {
 113              		.loc 1 46 28 discriminator 1 view .LVU29
 114 0066 400FB6CE 		movzbl	%sil, %ecx
  46:Src/translator.cpp ****         {
 115              		.loc 1 46 30 discriminator 1 view .LVU30
 116 006a 83C202   		addl	$2, %edx
 117 006d 39CA     		cmpl	%ecx, %edx
 118 006f 7C1C     		jl	.L11
  48:Src/translator.cpp ****                 ret += (c[i]) << (8 * ((i % 2) == 1));
 119              		.loc 1 48 13 is_stmt 1 view .LVU31
  48:Src/translator.cpp ****                 ret += (c[i]) << (8 * ((i % 2) == 1));
 120              		.loc 1 48 23 is_stmt 0 view .LVU32
 121 0071 8D56FF   		leal	-1(%rsi), %edx
  48:Src/translator.cpp ****                 ret += (c[i]) << (8 * ((i % 2) == 1));
 122              		.loc 1 48 13 view .LVU33
 123 0074 80FA01   		cmpb	$1, %dl
 124 0077 76E7     		jbe	.L12
  49:Src/translator.cpp ****         }
 125              		.loc 1 49 17 is_stmt 1 view .LVU34
  49:Src/translator.cpp ****         }
 126              		.loc 1 49 27 is_stmt 0 view .LVU35
 127 0079 400FB6D6 		movzbl	%sil, %edx
  49:Src/translator.cpp ****         }
 128              		.loc 1 49 28 view .LVU36
 129 007d 0FB61413 		movzbl	(%rbx,%rdx), %edx
  49:Src/translator.cpp ****         }
 130              		.loc 1 49 37 view .LVU37
 131 0081 C1E103   		sall	$3, %ecx
 132 0084 83E108   		andl	$8, %ecx
  49:Src/translator.cpp ****         }
 133              		.loc 1 49 31 view .LVU38
 134 0087 D3E2     		sall	%cl, %edx
  49:Src/translator.cpp ****         }
 135              		.loc 1 49 21 view .LVU39
 136 0089 01D7     		addl	%edx, %edi
 137              	.LVL11:
  49:Src/translator.cpp ****         }
 138              		.loc 1 49 21 view .LVU40
 139 008b EBD3     		jmp	.L12
 140              	.L11:
  49:Src/translator.cpp ****         }
 141              		.loc 1 49 21 view .LVU41
 142              	.LBE15:
  51:Src/translator.cpp ****         return ret;
 143              		.loc 1 51 9 is_stmt 1 view .LVU42
  51:Src/translator.cpp ****         return ret;
 144              		.loc 1 51 12 is_stmt 0 view .LVU43
GAS LISTING /tmp/ccBuC8w2.s 			page 11


 145 008d 8D4701   		leal	1(%rdi), %eax
 146              	.LVL12:
  52:Src/translator.cpp ****     }
 147              		.loc 1 52 9 is_stmt 1 view .LVU44
  53:Src/translator.cpp **** 
 148              		.loc 1 53 5 is_stmt 0 view .LVU45
 149 0090 5B       		popq	%rbx
 150              		.cfi_def_cfa_offset 8
 151              	.LVL13:
  53:Src/translator.cpp **** 
 152              		.loc 1 53 5 view .LVU46
 153 0091 C3       		ret
 154              		.cfi_endproc
 155              	.LFE1503:
 157              		.globl	_ZN10translator6equalsEPKhS1_
 159              	_ZN10translator6equalsEPKhS1_:
 160              	.LVL14:
 161              	.LFB1509:
 130:Src/translator.cpp ****         if(p1[0] != p2[0])
 162              		.loc 1 130 5 is_stmt 1 view -0
 163              		.cfi_startproc
 131:Src/translator.cpp ****             return false;
 164              		.loc 1 131 9 view .LVU48
 165 0092 0FB606   		movzbl	(%rsi), %eax
 166 0095 3807     		cmpb	%al, (%rdi)
 167 0097 7534     		jne	.L18
 130:Src/translator.cpp ****         if(p1[0] != p2[0])
 168              		.loc 1 130 5 is_stmt 0 view .LVU49
 169 0099 55       		pushq	%rbp
 170              		.cfi_def_cfa_offset 16
 171              		.cfi_offset 6, -16
 172 009a 53       		pushq	%rbx
 173              		.cfi_def_cfa_offset 24
 174              		.cfi_offset 3, -24
 175 009b 4889FB   		movq	%rdi, %rbx
 176 009e 4889F5   		movq	%rsi, %rbp
 134:Src/translator.cpp ****         for(uint8_t i = 0; i < len + SYS_LEN; i++)
 177              		.loc 1 134 9 is_stmt 1 view .LVU50
 134:Src/translator.cpp ****         for(uint8_t i = 0; i < len + SYS_LEN; i++)
 178              		.loc 1 134 29 is_stmt 0 view .LVU51
 179 00a1 E8000000 		call	_ZN10translator6getLenEPKh
 179      00
 180              	.LVL15:
 135:Src/translator.cpp ****         {
 181              		.loc 1 135 9 is_stmt 1 view .LVU52
 182              	.LBB16:
 135:Src/translator.cpp ****         {
 183              		.loc 1 135 21 is_stmt 0 view .LVU53
 184 00a6 BE000000 		movl	$0, %esi
 184      00
 185              	.LVL16:
 186              	.L17:
 135:Src/translator.cpp ****         {
 187              		.loc 1 135 30 is_stmt 1 discriminator 1 view .LVU54
 135:Src/translator.cpp ****         {
 188              		.loc 1 135 32 is_stmt 0 discriminator 1 view .LVU55
 189 00ab 0FB6D0   		movzbl	%al, %edx
GAS LISTING /tmp/ccBuC8w2.s 			page 12


 135:Src/translator.cpp ****         {
 190              		.loc 1 135 28 discriminator 1 view .LVU56
 191 00ae 400FB6CE 		movzbl	%sil, %ecx
 135:Src/translator.cpp ****         {
 192              		.loc 1 135 30 discriminator 1 view .LVU57
 193 00b2 83C202   		addl	$2, %edx
 194 00b5 39CA     		cmpl	%ecx, %edx
 195 00b7 7C1A     		jl	.L19
 137:Src/translator.cpp ****                 return false;
 196              		.loc 1 137 13 is_stmt 1 view .LVU58
 137:Src/translator.cpp ****                 return false;
 197              		.loc 1 137 19 is_stmt 0 view .LVU59
 198 00b9 400FB6D6 		movzbl	%sil, %edx
 137:Src/translator.cpp ****                 return false;
 199              		.loc 1 137 13 view .LVU60
 200 00bd 0FB67C15 		movzbl	0(%rbp,%rdx), %edi
 200      00
 201 00c2 40383C13 		cmpb	%dil, (%rbx,%rdx)
 202 00c6 7513     		jne	.L20
 135:Src/translator.cpp ****         {
 203              		.loc 1 135 9 is_stmt 1 discriminator 2 view .LVU61
 204 00c8 83C601   		addl	$1, %esi
 205              	.LVL17:
 135:Src/translator.cpp ****         {
 206              		.loc 1 135 9 is_stmt 0 discriminator 2 view .LVU62
 207 00cb EBDE     		jmp	.L17
 208              	.LVL18:
 209              	.L18:
 210              		.cfi_def_cfa_offset 8
 211              		.cfi_restore 3
 212              		.cfi_restore 6
 135:Src/translator.cpp ****         {
 213              		.loc 1 135 9 discriminator 2 view .LVU63
 214              	.LBE16:
 132:Src/translator.cpp **** 
 215              		.loc 1 132 20 view .LVU64
 216 00cd B8000000 		movl	$0, %eax
 216      00
 141:Src/translator.cpp **** 
 217              		.loc 1 141 5 view .LVU65
 218 00d2 C3       		ret
 219              	.LVL19:
 220              	.L19:
 221              		.cfi_def_cfa_offset 24
 222              		.cfi_offset 3, -24
 223              		.cfi_offset 6, -16
 140:Src/translator.cpp ****     }
 224              		.loc 1 140 16 view .LVU66
 225 00d3 B8010000 		movl	$1, %eax
 225      00
 226              	.LVL20:
 227              	.L15:
 141:Src/translator.cpp **** 
 228              		.loc 1 141 5 view .LVU67
 229 00d8 5B       		popq	%rbx
 230              		.cfi_remember_state
 231              		.cfi_def_cfa_offset 16
GAS LISTING /tmp/ccBuC8w2.s 			page 13


 232              	.LVL21:
 141:Src/translator.cpp **** 
 233              		.loc 1 141 5 view .LVU68
 234 00d9 5D       		popq	%rbp
 235              		.cfi_def_cfa_offset 8
 236              	.LVL22:
 141:Src/translator.cpp **** 
 237              		.loc 1 141 5 view .LVU69
 238 00da C3       		ret
 239              	.LVL23:
 240              	.L20:
 241              		.cfi_restore_state
 242              	.LBB17:
 138:Src/translator.cpp ****         }
 243              		.loc 1 138 24 view .LVU70
 244 00db B8000000 		movl	$0, %eax
 244      00
 245              	.LVL24:
 138:Src/translator.cpp ****         }
 246              		.loc 1 138 24 view .LVU71
 247 00e0 EBF6     		jmp	.L15
 248              	.LBE17:
 249              		.cfi_endproc
 250              	.LFE1509:
 252              		.globl	_ZN10translator11getZeroByteEhh
 254              	_ZN10translator11getZeroByteEhh:
 255              	.LVL25:
 256              	.LFB1510:
 144:Src/translator.cpp ****         return (uint8_t)(((type & 0b11) << 6) | (len & LEN_MASK));
 257              		.loc 1 144 5 is_stmt 1 view -0
 258              		.cfi_startproc
 145:Src/translator.cpp ****     }
 259              		.loc 1 145 9 view .LVU73
 145:Src/translator.cpp ****     }
 260              		.loc 1 145 33 is_stmt 0 view .LVU74
 261 00e2 400FB6C7 		movzbl	%dil, %eax
 145:Src/translator.cpp ****     }
 262              		.loc 1 145 41 view .LVU75
 263 00e6 C1E006   		sall	$6, %eax
 145:Src/translator.cpp ****     }
 264              		.loc 1 145 54 view .LVU76
 265 00e9 83E63F   		andl	$63, %esi
 266              	.LVL26:
 145:Src/translator.cpp ****     }
 267              		.loc 1 145 47 view .LVU77
 268 00ec 09F0     		orl	%esi, %eax
 146:Src/translator.cpp **** 
 269              		.loc 1 146 5 view .LVU78
 270 00ee C3       		ret
 271              		.cfi_endproc
 272              	.LFE1510:
 274              		.globl	_ZN10translator11getCheckSumEPKh
 276              	_ZN10translator11getCheckSumEPKh:
 277              	.LVL27:
 278              	.LFB1511:
 150:Src/translator.cpp ****         return (package[1] << 8) | package[2];
 279              		.loc 1 150 5 is_stmt 1 view -0
GAS LISTING /tmp/ccBuC8w2.s 			page 14


 280              		.cfi_startproc
 151:Src/translator.cpp ****     }
 281              		.loc 1 151 9 view .LVU80
 151:Src/translator.cpp ****     }
 282              		.loc 1 151 26 is_stmt 0 view .LVU81
 283 00ef 0FB64701 		movzbl	1(%rdi), %eax
 151:Src/translator.cpp ****     }
 284              		.loc 1 151 28 view .LVU82
 285 00f3 C1E008   		sall	$8, %eax
 286 00f6 89C2     		movl	%eax, %edx
 151:Src/translator.cpp ****     }
 287              		.loc 1 151 45 view .LVU83
 288 00f8 0FB64702 		movzbl	2(%rdi), %eax
 151:Src/translator.cpp ****     }
 289              		.loc 1 151 34 view .LVU84
 290 00fc 09D0     		orl	%edx, %eax
 152:Src/translator.cpp **** 
 291              		.loc 1 152 5 view .LVU85
 292 00fe C3       		ret
 293              		.cfi_endproc
 294              	.LFE1511:
 296              		.globl	_ZN10translator11parsePacketEPhS0_
 298              	_ZN10translator11parsePacketEPhS0_:
 299              	.LVL28:
 300              	.LFB1505:
  64:Src/translator.cpp ****         uint8_t type = getType(package);
 301              		.loc 1 64 5 is_stmt 1 view -0
 302              		.cfi_startproc
  64:Src/translator.cpp ****         uint8_t type = getType(package);
 303              		.loc 1 64 5 is_stmt 0 view .LVU87
 304 00ff 4156     		pushq	%r14
 305              		.cfi_def_cfa_offset 16
 306              		.cfi_offset 14, -16
 307 0101 4155     		pushq	%r13
 308              		.cfi_def_cfa_offset 24
 309              		.cfi_offset 13, -24
 310 0103 4154     		pushq	%r12
 311              		.cfi_def_cfa_offset 32
 312              		.cfi_offset 12, -32
 313 0105 55       		pushq	%rbp
 314              		.cfi_def_cfa_offset 40
 315              		.cfi_offset 6, -40
 316 0106 53       		pushq	%rbx
 317              		.cfi_def_cfa_offset 48
 318              		.cfi_offset 3, -48
 319 0107 4889FB   		movq	%rdi, %rbx
 320 010a 4989F5   		movq	%rsi, %r13
  65:Src/translator.cpp ****         if(type != TYPE_ARR && type != TYPE_CMD && type != TYPE_VAR)
 321              		.loc 1 65 9 is_stmt 1 view .LVU88
  65:Src/translator.cpp ****         if(type != TYPE_ARR && type != TYPE_CMD && type != TYPE_VAR)
 322              		.loc 1 65 31 is_stmt 0 view .LVU89
 323 010d E8000000 		call	_ZN10translator7getTypeEPKh
 323      00
 324              	.LVL29:
  65:Src/translator.cpp ****         if(type != TYPE_ARR && type != TYPE_CMD && type != TYPE_VAR)
 325              		.loc 1 65 31 view .LVU90
 326 0112 89C5     		movl	%eax, %ebp
GAS LISTING /tmp/ccBuC8w2.s 			page 15


 327              	.LVL30:
  66:Src/translator.cpp ****             return TYPE_BAD_TYPE;
 328              		.loc 1 66 9 is_stmt 1 view .LVU91
  66:Src/translator.cpp ****             return TYPE_BAD_TYPE;
 329              		.loc 1 66 17 is_stmt 0 view .LVU92
 330 0114 3C03     		cmpb	$3, %al
 331 0116 0F95C2   		setne	%dl
  66:Src/translator.cpp ****             return TYPE_BAD_TYPE;
 332              		.loc 1 66 37 view .LVU93
 333 0119 3C01     		cmpb	$1, %al
 334 011b 0F95C0   		setne	%al
 335              	.LVL31:
  66:Src/translator.cpp ****             return TYPE_BAD_TYPE;
 336              		.loc 1 66 9 view .LVU94
 337 011e 84C2     		testb	%al, %dl
 338 0120 7406     		je	.L28
  66:Src/translator.cpp ****             return TYPE_BAD_TYPE;
 339              		.loc 1 66 49 discriminator 1 view .LVU95
 340 0122 4080FD02 		cmpb	$2, %bpl
 341 0126 7544     		jne	.L31
 342              	.L28:
  68:Src/translator.cpp ****         if(len == 0)
 343              		.loc 1 68 9 is_stmt 1 view .LVU96
  68:Src/translator.cpp ****         if(len == 0)
 344              		.loc 1 68 29 is_stmt 0 view .LVU97
 345 0128 4889DF   		movq	%rbx, %rdi
 346 012b E8000000 		call	_ZN10translator6getLenEPKh
 346      00
 347              	.LVL32:
 348 0130 4189C4   		movl	%eax, %r12d
 349              	.LVL33:
  69:Src/translator.cpp ****             return TYPE_BAD_LEN;
 350              		.loc 1 69 9 is_stmt 1 view .LVU98
 351 0133 84C0     		testb	%al, %al
 352 0135 743C     		je	.L32
  72:Src/translator.cpp ****             return TYPE_BAD_CHECKSUM;
 353              		.loc 1 72 9 view .LVU99
  72:Src/translator.cpp ****             return TYPE_BAD_CHECKSUM;
 354              		.loc 1 72 23 is_stmt 0 view .LVU100
 355 0137 4889DF   		movq	%rbx, %rdi
 356 013a E8000000 		call	_ZN10translator11genCheckSumEPKh
 356      00
 357              	.LVL34:
  72:Src/translator.cpp ****             return TYPE_BAD_CHECKSUM;
 358              		.loc 1 72 23 view .LVU101
 359 013f 4189C6   		movl	%eax, %r14d
  72:Src/translator.cpp ****             return TYPE_BAD_CHECKSUM;
 360              		.loc 1 72 47 view .LVU102
 361 0142 4889DF   		movq	%rbx, %rdi
 362 0145 E8000000 		call	_ZN10translator11getCheckSumEPKh
 362      00
 363              	.LVL35:
  72:Src/translator.cpp ****             return TYPE_BAD_CHECKSUM;
 364              		.loc 1 72 9 view .LVU103
 365 014a 664439F0 		cmpw	%r14w, %ax
 366 014e 7533     		jne	.L33
 367              	.LBB18:
GAS LISTING /tmp/ccBuC8w2.s 			page 16


  76:Src/translator.cpp ****         {
 368              		.loc 1 76 21 view .LVU104
 369 0150 B8000000 		movl	$0, %eax
 369      00
 370              	.L30:
 371              	.LVL36:
  76:Src/translator.cpp ****         {
 372              		.loc 1 76 30 is_stmt 1 discriminator 3 view .LVU105
 373 0155 4438E0   		cmpb	%r12b, %al
 374 0158 731E     		jnb	.L27
  78:Src/translator.cpp ****         }
 375              		.loc 1 78 13 discriminator 2 view .LVU106
  78:Src/translator.cpp ****         }
 376              		.loc 1 78 36 is_stmt 0 discriminator 2 view .LVU107
 377 015a 0FB6D0   		movzbl	%al, %edx
  78:Src/translator.cpp ****         }
 378              		.loc 1 78 47 discriminator 2 view .LVU108
 379 015d 0FB64C13 		movzbl	3(%rbx,%rdx), %ecx
 379      03
  78:Src/translator.cpp ****         }
 380              		.loc 1 78 26 discriminator 2 view .LVU109
 381 0162 41884C15 		movb	%cl, 0(%r13,%rdx)
 381      00
  76:Src/translator.cpp ****         {
 382              		.loc 1 76 9 is_stmt 1 discriminator 2 view .LVU110
 383 0167 83C001   		addl	$1, %eax
 384              	.LVL37:
  76:Src/translator.cpp ****         {
 385              		.loc 1 76 9 is_stmt 0 discriminator 2 view .LVU111
 386 016a EBE9     		jmp	.L30
 387              	.LVL38:
 388              	.L31:
  76:Src/translator.cpp ****         {
 389              		.loc 1 76 9 discriminator 2 view .LVU112
 390              	.LBE18:
  67:Src/translator.cpp ****         uint8_t len = getLen(package);
 391              		.loc 1 67 20 view .LVU113
 392 016c BD650000 		movl	$101, %ebp
 392      00
 393              	.LVL39:
  67:Src/translator.cpp ****         uint8_t len = getLen(package);
 394              		.loc 1 67 20 view .LVU114
 395 0171 EB05     		jmp	.L27
 396              	.LVL40:
 397              	.L32:
  70:Src/translator.cpp **** 
 398              		.loc 1 70 20 view .LVU115
 399 0173 BD640000 		movl	$100, %ebp
 399      00
 400              	.LVL41:
 401              	.L27:
  81:Src/translator.cpp **** 
 402              		.loc 1 81 5 view .LVU116
 403 0178 89E8     		movl	%ebp, %eax
 404 017a 5B       		popq	%rbx
 405              		.cfi_remember_state
 406              		.cfi_def_cfa_offset 40
GAS LISTING /tmp/ccBuC8w2.s 			page 17


 407              	.LVL42:
  81:Src/translator.cpp **** 
 408              		.loc 1 81 5 view .LVU117
 409 017b 5D       		popq	%rbp
 410              		.cfi_def_cfa_offset 32
 411 017c 415C     		popq	%r12
 412              		.cfi_def_cfa_offset 24
 413 017e 415D     		popq	%r13
 414              		.cfi_def_cfa_offset 16
 415              	.LVL43:
  81:Src/translator.cpp **** 
 416              		.loc 1 81 5 view .LVU118
 417 0180 415E     		popq	%r14
 418              		.cfi_def_cfa_offset 8
 419 0182 C3       		ret
 420              	.LVL44:
 421              	.L33:
 422              		.cfi_restore_state
  73:Src/translator.cpp **** 
 423              		.loc 1 73 20 view .LVU119
 424 0183 BD660000 		movl	$102, %ebp
 424      00
 425              	.LVL45:
  73:Src/translator.cpp **** 
 426              		.loc 1 73 20 view .LVU120
 427 0188 EBEE     		jmp	.L27
 428              		.cfi_endproc
 429              	.LFE1505:
 431              		.section	.rodata.str1.1,"aMS",@progbits,1
 432              	.LC0:
 433 0000 74677420 		.string	"tgt func is null\n"
 433      66756E63 
 433      20697320 
 433      6E756C6C 
 433      0A00
 434              		.text
 435              		.globl	_ZN10translator8parseCmdEPhPPFvvE
 437              	_ZN10translator8parseCmdEPhPPFvvE:
 438              	.LVL46:
 439              	.LFB1506:
  86:Src/translator.cpp ****         uint8_t var = getType(package);
 440              		.loc 1 86 5 is_stmt 1 view -0
 441              		.cfi_startproc
  86:Src/translator.cpp ****         uint8_t var = getType(package);
 442              		.loc 1 86 5 is_stmt 0 view .LVU122
 443 018a 4155     		pushq	%r13
 444              		.cfi_def_cfa_offset 16
 445              		.cfi_offset 13, -16
 446 018c 4154     		pushq	%r12
 447              		.cfi_def_cfa_offset 24
 448              		.cfi_offset 12, -24
 449 018e 55       		pushq	%rbp
 450              		.cfi_def_cfa_offset 32
 451              		.cfi_offset 6, -32
 452 018f 53       		pushq	%rbx
 453              		.cfi_def_cfa_offset 40
 454              		.cfi_offset 3, -40
GAS LISTING /tmp/ccBuC8w2.s 			page 18


 455 0190 4883EC08 		subq	$8, %rsp
 456              		.cfi_def_cfa_offset 48
 457 0194 4889FB   		movq	%rdi, %rbx
 458 0197 4989F4   		movq	%rsi, %r12
  87:Src/translator.cpp ****         if(var != TYPE_CMD)
 459              		.loc 1 87 9 is_stmt 1 view .LVU123
  87:Src/translator.cpp ****         if(var != TYPE_CMD)
 460              		.loc 1 87 30 is_stmt 0 view .LVU124
 461 019a E8000000 		call	_ZN10translator7getTypeEPKh
 461      00
 462              	.LVL47:
  88:Src/translator.cpp ****             return TYPE_BAD_TYPE;
 463              		.loc 1 88 9 is_stmt 1 view .LVU125
 464 019f 3C01     		cmpb	$1, %al
 465 01a1 7559     		jne	.L38
  91:Src/translator.cpp ****         if(var != 1)
 466              		.loc 1 91 9 view .LVU126
  91:Src/translator.cpp ****         if(var != 1)
 467              		.loc 1 91 21 is_stmt 0 view .LVU127
 468 01a3 4889DF   		movq	%rbx, %rdi
 469 01a6 E8000000 		call	_ZN10translator6getLenEPKh
 469      00
 470              	.LVL48:
  91:Src/translator.cpp ****         if(var != 1)
 471              		.loc 1 91 21 view .LVU128
 472 01ab 89C5     		movl	%eax, %ebp
 473              	.LVL49:
  92:Src/translator.cpp ****             return TYPE_BAD_LEN;
 474              		.loc 1 92 9 is_stmt 1 view .LVU129
 475 01ad 3C01     		cmpb	$1, %al
 476 01af 7407     		je	.L42
  93:Src/translator.cpp **** 
 477              		.loc 1 93 20 is_stmt 0 view .LVU130
 478 01b1 BD640000 		movl	$100, %ebp
 478      00
 479 01b6 EB49     		jmp	.L35
 480              	.L42:
  95:Src/translator.cpp ****         if(check != getCheckSum(package))   
 481              		.loc 1 95 9 is_stmt 1 view .LVU131
  95:Src/translator.cpp ****         if(check != getCheckSum(package))   
 482              		.loc 1 95 39 is_stmt 0 view .LVU132
 483 01b8 4889DF   		movq	%rbx, %rdi
 484 01bb E8000000 		call	_ZN10translator11genCheckSumEPKh
 484      00
 485              	.LVL50:
  95:Src/translator.cpp ****         if(check != getCheckSum(package))   
 486              		.loc 1 95 39 view .LVU133
 487 01c0 4189C5   		movl	%eax, %r13d
 488              	.LVL51:
  96:Src/translator.cpp ****             return TYPE_BAD_CHECKSUM;
 489              		.loc 1 96 9 is_stmt 1 view .LVU134
  96:Src/translator.cpp ****             return TYPE_BAD_CHECKSUM;
 490              		.loc 1 96 32 is_stmt 0 view .LVU135
 491 01c3 4889DF   		movq	%rbx, %rdi
 492 01c6 E8000000 		call	_ZN10translator11getCheckSumEPKh
 492      00
 493              	.LVL52:
GAS LISTING /tmp/ccBuC8w2.s 			page 19


  96:Src/translator.cpp ****             return TYPE_BAD_CHECKSUM;
 494              		.loc 1 96 9 view .LVU136
 495 01cb 664439E8 		cmpw	%r13w, %ax
 496 01cf 753D     		jne	.L40
  99:Src/translator.cpp ****             funcArr[package[SYS_LEN]]();
 497              		.loc 1 99 9 is_stmt 1 view .LVU137
  99:Src/translator.cpp ****             funcArr[package[SYS_LEN]]();
 498              		.loc 1 99 35 is_stmt 0 view .LVU138
 499 01d1 0FB64303 		movzbl	3(%rbx), %eax
  99:Src/translator.cpp ****             funcArr[package[SYS_LEN]]();
 500              		.loc 1 99 36 view .LVU139
 501 01d5 498B04C4 		movq	(%r12,%rax,8), %rax
  99:Src/translator.cpp ****             funcArr[package[SYS_LEN]]();
 502              		.loc 1 99 9 view .LVU140
 503 01d9 4885C0   		testq	%rax, %rax
 504 01dc 7404     		je	.L37
 100:Src/translator.cpp ****         else
 505              		.loc 1 100 13 is_stmt 1 view .LVU141
 100:Src/translator.cpp ****         else
 506              		.loc 1 100 38 is_stmt 0 view .LVU142
 507 01de FFD0     		call	*%rax
 508              	.LVL53:
 509 01e0 EB1F     		jmp	.L35
 510              	.L37:
 102:Src/translator.cpp ****         return TYPE_CMD;
 511              		.loc 1 102 13 is_stmt 1 view .LVU143
 512              	.LVL54:
 513              	.LBB29:
 514              	.LBI29:
 515              		.file 3 "/usr/include/c++/9.2.0/ostream"
   1:/usr/include/c++/9.2.0/ostream **** // Output streams -*- C++ -*-
   2:/usr/include/c++/9.2.0/ostream **** 
   3:/usr/include/c++/9.2.0/ostream **** // Copyright (C) 1997-2019 Free Software Foundation, Inc.
   4:/usr/include/c++/9.2.0/ostream **** //
   5:/usr/include/c++/9.2.0/ostream **** // This file is part of the GNU ISO C++ Library.  This library is free
   6:/usr/include/c++/9.2.0/ostream **** // software; you can redistribute it and/or modify it under the
   7:/usr/include/c++/9.2.0/ostream **** // terms of the GNU General Public License as published by the
   8:/usr/include/c++/9.2.0/ostream **** // Free Software Foundation; either version 3, or (at your option)
   9:/usr/include/c++/9.2.0/ostream **** // any later version.
  10:/usr/include/c++/9.2.0/ostream **** 
  11:/usr/include/c++/9.2.0/ostream **** // This library is distributed in the hope that it will be useful,
  12:/usr/include/c++/9.2.0/ostream **** // but WITHOUT ANY WARRANTY; without even the implied warranty of
  13:/usr/include/c++/9.2.0/ostream **** // MERCHANTABILITY or FITNESS FOR A PARTICULAR PURPOSE.  See the
  14:/usr/include/c++/9.2.0/ostream **** // GNU General Public License for more details.
  15:/usr/include/c++/9.2.0/ostream **** 
  16:/usr/include/c++/9.2.0/ostream **** // Under Section 7 of GPL version 3, you are granted additional
  17:/usr/include/c++/9.2.0/ostream **** // permissions described in the GCC Runtime Library Exception, version
  18:/usr/include/c++/9.2.0/ostream **** // 3.1, as published by the Free Software Foundation.
  19:/usr/include/c++/9.2.0/ostream **** 
  20:/usr/include/c++/9.2.0/ostream **** // You should have received a copy of the GNU General Public License and
  21:/usr/include/c++/9.2.0/ostream **** // a copy of the GCC Runtime Library Exception along with this program;
  22:/usr/include/c++/9.2.0/ostream **** // see the files COPYING3 and COPYING.RUNTIME respectively.  If not, see
  23:/usr/include/c++/9.2.0/ostream **** // <http://www.gnu.org/licenses/>.
  24:/usr/include/c++/9.2.0/ostream **** 
  25:/usr/include/c++/9.2.0/ostream **** /** @file include/ostream
  26:/usr/include/c++/9.2.0/ostream ****  *  This is a Standard C++ Library header.
  27:/usr/include/c++/9.2.0/ostream ****  */
GAS LISTING /tmp/ccBuC8w2.s 			page 20


  28:/usr/include/c++/9.2.0/ostream **** 
  29:/usr/include/c++/9.2.0/ostream **** //
  30:/usr/include/c++/9.2.0/ostream **** // ISO C++ 14882: 27.6.2  Output streams
  31:/usr/include/c++/9.2.0/ostream **** //
  32:/usr/include/c++/9.2.0/ostream **** 
  33:/usr/include/c++/9.2.0/ostream **** #ifndef _GLIBCXX_OSTREAM
  34:/usr/include/c++/9.2.0/ostream **** #define _GLIBCXX_OSTREAM 1
  35:/usr/include/c++/9.2.0/ostream **** 
  36:/usr/include/c++/9.2.0/ostream **** #pragma GCC system_header
  37:/usr/include/c++/9.2.0/ostream **** 
  38:/usr/include/c++/9.2.0/ostream **** #include <ios>
  39:/usr/include/c++/9.2.0/ostream **** #include <bits/ostream_insert.h>
  40:/usr/include/c++/9.2.0/ostream **** 
  41:/usr/include/c++/9.2.0/ostream **** namespace std _GLIBCXX_VISIBILITY(default)
  42:/usr/include/c++/9.2.0/ostream **** {
  43:/usr/include/c++/9.2.0/ostream **** _GLIBCXX_BEGIN_NAMESPACE_VERSION
  44:/usr/include/c++/9.2.0/ostream **** 
  45:/usr/include/c++/9.2.0/ostream ****   /**
  46:/usr/include/c++/9.2.0/ostream ****    *  @brief  Template class basic_ostream.
  47:/usr/include/c++/9.2.0/ostream ****    *  @ingroup io
  48:/usr/include/c++/9.2.0/ostream ****    *
  49:/usr/include/c++/9.2.0/ostream ****    *  @tparam _CharT  Type of character stream.
  50:/usr/include/c++/9.2.0/ostream ****    *  @tparam _Traits  Traits for character type, defaults to
  51:/usr/include/c++/9.2.0/ostream ****    *                   char_traits<_CharT>.
  52:/usr/include/c++/9.2.0/ostream ****    *
  53:/usr/include/c++/9.2.0/ostream ****    *  This is the base class for all output streams.  It provides text
  54:/usr/include/c++/9.2.0/ostream ****    *  formatting of all builtin types, and communicates with any class
  55:/usr/include/c++/9.2.0/ostream ****    *  derived from basic_streambuf to do the actual output.
  56:/usr/include/c++/9.2.0/ostream ****   */
  57:/usr/include/c++/9.2.0/ostream ****   template<typename _CharT, typename _Traits>
  58:/usr/include/c++/9.2.0/ostream ****     class basic_ostream : virtual public basic_ios<_CharT, _Traits>
  59:/usr/include/c++/9.2.0/ostream ****     {
  60:/usr/include/c++/9.2.0/ostream ****     public:
  61:/usr/include/c++/9.2.0/ostream ****       // Types (inherited from basic_ios):
  62:/usr/include/c++/9.2.0/ostream ****       typedef _CharT			 		char_type;
  63:/usr/include/c++/9.2.0/ostream ****       typedef typename _Traits::int_type 		int_type;
  64:/usr/include/c++/9.2.0/ostream ****       typedef typename _Traits::pos_type 		pos_type;
  65:/usr/include/c++/9.2.0/ostream ****       typedef typename _Traits::off_type 		off_type;
  66:/usr/include/c++/9.2.0/ostream ****       typedef _Traits			 		traits_type;
  67:/usr/include/c++/9.2.0/ostream **** 
  68:/usr/include/c++/9.2.0/ostream ****       // Non-standard Types:
  69:/usr/include/c++/9.2.0/ostream ****       typedef basic_streambuf<_CharT, _Traits> 		__streambuf_type;
  70:/usr/include/c++/9.2.0/ostream ****       typedef basic_ios<_CharT, _Traits>		__ios_type;
  71:/usr/include/c++/9.2.0/ostream ****       typedef basic_ostream<_CharT, _Traits>		__ostream_type;
  72:/usr/include/c++/9.2.0/ostream ****       typedef num_put<_CharT, ostreambuf_iterator<_CharT, _Traits> >
  73:/usr/include/c++/9.2.0/ostream ****       							__num_put_type;
  74:/usr/include/c++/9.2.0/ostream ****       typedef ctype<_CharT>	      			__ctype_type;
  75:/usr/include/c++/9.2.0/ostream **** 
  76:/usr/include/c++/9.2.0/ostream ****       /**
  77:/usr/include/c++/9.2.0/ostream ****        *  @brief  Base constructor.
  78:/usr/include/c++/9.2.0/ostream ****        *
  79:/usr/include/c++/9.2.0/ostream ****        *  This ctor is almost never called by the user directly, rather from
  80:/usr/include/c++/9.2.0/ostream ****        *  derived classes' initialization lists, which pass a pointer to
  81:/usr/include/c++/9.2.0/ostream ****        *  their own stream buffer.
  82:/usr/include/c++/9.2.0/ostream ****       */
  83:/usr/include/c++/9.2.0/ostream ****       explicit
  84:/usr/include/c++/9.2.0/ostream ****       basic_ostream(__streambuf_type* __sb)
GAS LISTING /tmp/ccBuC8w2.s 			page 21


  85:/usr/include/c++/9.2.0/ostream ****       { this->init(__sb); }
  86:/usr/include/c++/9.2.0/ostream **** 
  87:/usr/include/c++/9.2.0/ostream ****       /**
  88:/usr/include/c++/9.2.0/ostream ****        *  @brief  Base destructor.
  89:/usr/include/c++/9.2.0/ostream ****        *
  90:/usr/include/c++/9.2.0/ostream ****        *  This does very little apart from providing a virtual base dtor.
  91:/usr/include/c++/9.2.0/ostream ****       */
  92:/usr/include/c++/9.2.0/ostream ****       virtual
  93:/usr/include/c++/9.2.0/ostream ****       ~basic_ostream() { }
  94:/usr/include/c++/9.2.0/ostream **** 
  95:/usr/include/c++/9.2.0/ostream ****       /// Safe prefix/suffix operations.
  96:/usr/include/c++/9.2.0/ostream ****       class sentry;
  97:/usr/include/c++/9.2.0/ostream ****       friend class sentry;
  98:/usr/include/c++/9.2.0/ostream **** 
  99:/usr/include/c++/9.2.0/ostream ****       //@{
 100:/usr/include/c++/9.2.0/ostream ****       /**
 101:/usr/include/c++/9.2.0/ostream ****        *  @brief  Interface for manipulators.
 102:/usr/include/c++/9.2.0/ostream ****        *
 103:/usr/include/c++/9.2.0/ostream ****        *  Manipulators such as @c std::endl and @c std::hex use these
 104:/usr/include/c++/9.2.0/ostream ****        *  functions in constructs like "std::cout << std::endl".  For more
 105:/usr/include/c++/9.2.0/ostream ****        *  information, see the iomanip header.
 106:/usr/include/c++/9.2.0/ostream ****       */
 107:/usr/include/c++/9.2.0/ostream ****       __ostream_type&
 108:/usr/include/c++/9.2.0/ostream ****       operator<<(__ostream_type& (*__pf)(__ostream_type&))
 109:/usr/include/c++/9.2.0/ostream ****       {
 110:/usr/include/c++/9.2.0/ostream **** 	// _GLIBCXX_RESOLVE_LIB_DEFECTS
 111:/usr/include/c++/9.2.0/ostream **** 	// DR 60. What is a formatted input function?
 112:/usr/include/c++/9.2.0/ostream **** 	// The inserters for manipulators are *not* formatted output functions.
 113:/usr/include/c++/9.2.0/ostream **** 	return __pf(*this);
 114:/usr/include/c++/9.2.0/ostream ****       }
 115:/usr/include/c++/9.2.0/ostream **** 
 116:/usr/include/c++/9.2.0/ostream ****       __ostream_type&
 117:/usr/include/c++/9.2.0/ostream ****       operator<<(__ios_type& (*__pf)(__ios_type&))
 118:/usr/include/c++/9.2.0/ostream ****       {
 119:/usr/include/c++/9.2.0/ostream **** 	// _GLIBCXX_RESOLVE_LIB_DEFECTS
 120:/usr/include/c++/9.2.0/ostream **** 	// DR 60. What is a formatted input function?
 121:/usr/include/c++/9.2.0/ostream **** 	// The inserters for manipulators are *not* formatted output functions.
 122:/usr/include/c++/9.2.0/ostream **** 	__pf(*this);
 123:/usr/include/c++/9.2.0/ostream **** 	return *this;
 124:/usr/include/c++/9.2.0/ostream ****       }
 125:/usr/include/c++/9.2.0/ostream **** 
 126:/usr/include/c++/9.2.0/ostream ****       __ostream_type&
 127:/usr/include/c++/9.2.0/ostream ****       operator<<(ios_base& (*__pf) (ios_base&))
 128:/usr/include/c++/9.2.0/ostream ****       {
 129:/usr/include/c++/9.2.0/ostream **** 	// _GLIBCXX_RESOLVE_LIB_DEFECTS
 130:/usr/include/c++/9.2.0/ostream **** 	// DR 60. What is a formatted input function?
 131:/usr/include/c++/9.2.0/ostream **** 	// The inserters for manipulators are *not* formatted output functions.
 132:/usr/include/c++/9.2.0/ostream **** 	__pf(*this);
 133:/usr/include/c++/9.2.0/ostream **** 	return *this;
 134:/usr/include/c++/9.2.0/ostream ****       }
 135:/usr/include/c++/9.2.0/ostream ****       //@}
 136:/usr/include/c++/9.2.0/ostream **** 
 137:/usr/include/c++/9.2.0/ostream ****       //@{
 138:/usr/include/c++/9.2.0/ostream ****       /**
 139:/usr/include/c++/9.2.0/ostream ****        *  @name Inserters
 140:/usr/include/c++/9.2.0/ostream ****        *
 141:/usr/include/c++/9.2.0/ostream ****        *  All the @c operator<< functions (aka <em>formatted output
GAS LISTING /tmp/ccBuC8w2.s 			page 22


 142:/usr/include/c++/9.2.0/ostream ****        *  functions</em>) have some common behavior.  Each starts by
 143:/usr/include/c++/9.2.0/ostream ****        *  constructing a temporary object of type std::basic_ostream::sentry.
 144:/usr/include/c++/9.2.0/ostream ****        *  This can have several effects, concluding with the setting of a
 145:/usr/include/c++/9.2.0/ostream ****        *  status flag; see the sentry documentation for more.
 146:/usr/include/c++/9.2.0/ostream ****        *
 147:/usr/include/c++/9.2.0/ostream ****        *  If the sentry status is good, the function tries to generate
 148:/usr/include/c++/9.2.0/ostream ****        *  whatever data is appropriate for the type of the argument.
 149:/usr/include/c++/9.2.0/ostream ****        *
 150:/usr/include/c++/9.2.0/ostream ****        *  If an exception is thrown during insertion, ios_base::badbit
 151:/usr/include/c++/9.2.0/ostream ****        *  will be turned on in the stream's error state without causing an
 152:/usr/include/c++/9.2.0/ostream ****        *  ios_base::failure to be thrown.  The original exception will then
 153:/usr/include/c++/9.2.0/ostream ****        *  be rethrown.
 154:/usr/include/c++/9.2.0/ostream ****       */
 155:/usr/include/c++/9.2.0/ostream **** 
 156:/usr/include/c++/9.2.0/ostream ****       //@{
 157:/usr/include/c++/9.2.0/ostream ****       /**
 158:/usr/include/c++/9.2.0/ostream ****        *  @brief Integer arithmetic inserters
 159:/usr/include/c++/9.2.0/ostream ****        *  @param  __n A variable of builtin integral type.
 160:/usr/include/c++/9.2.0/ostream ****        *  @return  @c *this if successful
 161:/usr/include/c++/9.2.0/ostream ****        *
 162:/usr/include/c++/9.2.0/ostream ****        *  These functions use the stream's current locale (specifically, the
 163:/usr/include/c++/9.2.0/ostream ****        *  @c num_get facet) to perform numeric formatting.
 164:/usr/include/c++/9.2.0/ostream ****       */
 165:/usr/include/c++/9.2.0/ostream ****       __ostream_type&
 166:/usr/include/c++/9.2.0/ostream ****       operator<<(long __n)
 167:/usr/include/c++/9.2.0/ostream ****       { return _M_insert(__n); }
 168:/usr/include/c++/9.2.0/ostream **** 
 169:/usr/include/c++/9.2.0/ostream ****       __ostream_type&
 170:/usr/include/c++/9.2.0/ostream ****       operator<<(unsigned long __n)
 171:/usr/include/c++/9.2.0/ostream ****       { return _M_insert(__n); }
 172:/usr/include/c++/9.2.0/ostream **** 
 173:/usr/include/c++/9.2.0/ostream ****       __ostream_type&
 174:/usr/include/c++/9.2.0/ostream ****       operator<<(bool __n)
 175:/usr/include/c++/9.2.0/ostream ****       { return _M_insert(__n); }
 176:/usr/include/c++/9.2.0/ostream **** 
 177:/usr/include/c++/9.2.0/ostream ****       __ostream_type&
 178:/usr/include/c++/9.2.0/ostream ****       operator<<(short __n);
 179:/usr/include/c++/9.2.0/ostream **** 
 180:/usr/include/c++/9.2.0/ostream ****       __ostream_type&
 181:/usr/include/c++/9.2.0/ostream ****       operator<<(unsigned short __n)
 182:/usr/include/c++/9.2.0/ostream ****       {
 183:/usr/include/c++/9.2.0/ostream **** 	// _GLIBCXX_RESOLVE_LIB_DEFECTS
 184:/usr/include/c++/9.2.0/ostream **** 	// 117. basic_ostream uses nonexistent num_put member functions.
 185:/usr/include/c++/9.2.0/ostream **** 	return _M_insert(static_cast<unsigned long>(__n));
 186:/usr/include/c++/9.2.0/ostream ****       }
 187:/usr/include/c++/9.2.0/ostream **** 
 188:/usr/include/c++/9.2.0/ostream ****       __ostream_type&
 189:/usr/include/c++/9.2.0/ostream ****       operator<<(int __n);
 190:/usr/include/c++/9.2.0/ostream **** 
 191:/usr/include/c++/9.2.0/ostream ****       __ostream_type&
 192:/usr/include/c++/9.2.0/ostream ****       operator<<(unsigned int __n)
 193:/usr/include/c++/9.2.0/ostream ****       {
 194:/usr/include/c++/9.2.0/ostream **** 	// _GLIBCXX_RESOLVE_LIB_DEFECTS
 195:/usr/include/c++/9.2.0/ostream **** 	// 117. basic_ostream uses nonexistent num_put member functions.
 196:/usr/include/c++/9.2.0/ostream **** 	return _M_insert(static_cast<unsigned long>(__n));
 197:/usr/include/c++/9.2.0/ostream ****       }
 198:/usr/include/c++/9.2.0/ostream **** 
GAS LISTING /tmp/ccBuC8w2.s 			page 23


 199:/usr/include/c++/9.2.0/ostream **** #ifdef _GLIBCXX_USE_LONG_LONG
 200:/usr/include/c++/9.2.0/ostream ****       __ostream_type&
 201:/usr/include/c++/9.2.0/ostream ****       operator<<(long long __n)
 202:/usr/include/c++/9.2.0/ostream ****       { return _M_insert(__n); }
 203:/usr/include/c++/9.2.0/ostream **** 
 204:/usr/include/c++/9.2.0/ostream ****       __ostream_type&
 205:/usr/include/c++/9.2.0/ostream ****       operator<<(unsigned long long __n)
 206:/usr/include/c++/9.2.0/ostream ****       { return _M_insert(__n); }
 207:/usr/include/c++/9.2.0/ostream **** #endif
 208:/usr/include/c++/9.2.0/ostream ****       //@}
 209:/usr/include/c++/9.2.0/ostream **** 
 210:/usr/include/c++/9.2.0/ostream ****       //@{
 211:/usr/include/c++/9.2.0/ostream ****       /**
 212:/usr/include/c++/9.2.0/ostream ****        *  @brief  Floating point arithmetic inserters
 213:/usr/include/c++/9.2.0/ostream ****        *  @param  __f A variable of builtin floating point type.
 214:/usr/include/c++/9.2.0/ostream ****        *  @return  @c *this if successful
 215:/usr/include/c++/9.2.0/ostream ****        *
 216:/usr/include/c++/9.2.0/ostream ****        *  These functions use the stream's current locale (specifically, the
 217:/usr/include/c++/9.2.0/ostream ****        *  @c num_get facet) to perform numeric formatting.
 218:/usr/include/c++/9.2.0/ostream ****       */
 219:/usr/include/c++/9.2.0/ostream ****       __ostream_type&
 220:/usr/include/c++/9.2.0/ostream ****       operator<<(double __f)
 221:/usr/include/c++/9.2.0/ostream ****       { return _M_insert(__f); }
 222:/usr/include/c++/9.2.0/ostream **** 
 223:/usr/include/c++/9.2.0/ostream ****       __ostream_type&
 224:/usr/include/c++/9.2.0/ostream ****       operator<<(float __f)
 225:/usr/include/c++/9.2.0/ostream ****       {
 226:/usr/include/c++/9.2.0/ostream **** 	// _GLIBCXX_RESOLVE_LIB_DEFECTS
 227:/usr/include/c++/9.2.0/ostream **** 	// 117. basic_ostream uses nonexistent num_put member functions.
 228:/usr/include/c++/9.2.0/ostream **** 	return _M_insert(static_cast<double>(__f));
 229:/usr/include/c++/9.2.0/ostream ****       }
 230:/usr/include/c++/9.2.0/ostream **** 
 231:/usr/include/c++/9.2.0/ostream ****       __ostream_type&
 232:/usr/include/c++/9.2.0/ostream ****       operator<<(long double __f)
 233:/usr/include/c++/9.2.0/ostream ****       { return _M_insert(__f); }
 234:/usr/include/c++/9.2.0/ostream ****       //@}
 235:/usr/include/c++/9.2.0/ostream **** 
 236:/usr/include/c++/9.2.0/ostream ****       /**
 237:/usr/include/c++/9.2.0/ostream ****        *  @brief  Pointer arithmetic inserters
 238:/usr/include/c++/9.2.0/ostream ****        *  @param  __p A variable of pointer type.
 239:/usr/include/c++/9.2.0/ostream ****        *  @return  @c *this if successful
 240:/usr/include/c++/9.2.0/ostream ****        *
 241:/usr/include/c++/9.2.0/ostream ****        *  These functions use the stream's current locale (specifically, the
 242:/usr/include/c++/9.2.0/ostream ****        *  @c num_get facet) to perform numeric formatting.
 243:/usr/include/c++/9.2.0/ostream ****       */
 244:/usr/include/c++/9.2.0/ostream ****       __ostream_type&
 245:/usr/include/c++/9.2.0/ostream ****       operator<<(const void* __p)
 246:/usr/include/c++/9.2.0/ostream ****       { return _M_insert(__p); }
 247:/usr/include/c++/9.2.0/ostream **** 
 248:/usr/include/c++/9.2.0/ostream **** #if __cplusplus >= 201703L
 249:/usr/include/c++/9.2.0/ostream ****       __ostream_type&
 250:/usr/include/c++/9.2.0/ostream ****       operator<<(nullptr_t)
 251:/usr/include/c++/9.2.0/ostream ****       { return *this << "nullptr"; }
 252:/usr/include/c++/9.2.0/ostream **** #endif
 253:/usr/include/c++/9.2.0/ostream **** 
 254:/usr/include/c++/9.2.0/ostream ****       /**
 255:/usr/include/c++/9.2.0/ostream ****        *  @brief  Extracting from another streambuf.
GAS LISTING /tmp/ccBuC8w2.s 			page 24


 256:/usr/include/c++/9.2.0/ostream ****        *  @param  __sb  A pointer to a streambuf
 257:/usr/include/c++/9.2.0/ostream ****        *
 258:/usr/include/c++/9.2.0/ostream ****        *  This function behaves like one of the basic arithmetic extractors,
 259:/usr/include/c++/9.2.0/ostream ****        *  in that it also constructs a sentry object and has the same error
 260:/usr/include/c++/9.2.0/ostream ****        *  handling behavior.
 261:/usr/include/c++/9.2.0/ostream ****        *
 262:/usr/include/c++/9.2.0/ostream ****        *  If @p __sb is NULL, the stream will set failbit in its error state.
 263:/usr/include/c++/9.2.0/ostream ****        *
 264:/usr/include/c++/9.2.0/ostream ****        *  Characters are extracted from @p __sb and inserted into @c *this
 265:/usr/include/c++/9.2.0/ostream ****        *  until one of the following occurs:
 266:/usr/include/c++/9.2.0/ostream ****        *
 267:/usr/include/c++/9.2.0/ostream ****        *  - the input stream reaches end-of-file,
 268:/usr/include/c++/9.2.0/ostream ****        *  - insertion into the output sequence fails (in this case, the
 269:/usr/include/c++/9.2.0/ostream ****        *    character that would have been inserted is not extracted), or
 270:/usr/include/c++/9.2.0/ostream ****        *  - an exception occurs while getting a character from @p __sb, which
 271:/usr/include/c++/9.2.0/ostream ****        *    sets failbit in the error state
 272:/usr/include/c++/9.2.0/ostream ****        *
 273:/usr/include/c++/9.2.0/ostream ****        *  If the function inserts no characters, failbit is set.
 274:/usr/include/c++/9.2.0/ostream ****       */
 275:/usr/include/c++/9.2.0/ostream ****       __ostream_type&
 276:/usr/include/c++/9.2.0/ostream ****       operator<<(__streambuf_type* __sb);
 277:/usr/include/c++/9.2.0/ostream ****       //@}
 278:/usr/include/c++/9.2.0/ostream **** 
 279:/usr/include/c++/9.2.0/ostream ****       //@{
 280:/usr/include/c++/9.2.0/ostream ****       /**
 281:/usr/include/c++/9.2.0/ostream ****        *  @name Unformatted Output Functions
 282:/usr/include/c++/9.2.0/ostream ****        *
 283:/usr/include/c++/9.2.0/ostream ****        *  All the unformatted output functions have some common behavior.
 284:/usr/include/c++/9.2.0/ostream ****        *  Each starts by constructing a temporary object of type
 285:/usr/include/c++/9.2.0/ostream ****        *  std::basic_ostream::sentry.  This has several effects, concluding
 286:/usr/include/c++/9.2.0/ostream ****        *  with the setting of a status flag; see the sentry documentation
 287:/usr/include/c++/9.2.0/ostream ****        *  for more.
 288:/usr/include/c++/9.2.0/ostream ****        *
 289:/usr/include/c++/9.2.0/ostream ****        *  If the sentry status is good, the function tries to generate
 290:/usr/include/c++/9.2.0/ostream ****        *  whatever data is appropriate for the type of the argument.
 291:/usr/include/c++/9.2.0/ostream ****        *
 292:/usr/include/c++/9.2.0/ostream ****        *  If an exception is thrown during insertion, ios_base::badbit
 293:/usr/include/c++/9.2.0/ostream ****        *  will be turned on in the stream's error state.  If badbit is on in
 294:/usr/include/c++/9.2.0/ostream ****        *  the stream's exceptions mask, the exception will be rethrown
 295:/usr/include/c++/9.2.0/ostream ****        *  without completing its actions.
 296:/usr/include/c++/9.2.0/ostream ****       */
 297:/usr/include/c++/9.2.0/ostream **** 
 298:/usr/include/c++/9.2.0/ostream ****       /**
 299:/usr/include/c++/9.2.0/ostream ****        *  @brief  Simple insertion.
 300:/usr/include/c++/9.2.0/ostream ****        *  @param  __c  The character to insert.
 301:/usr/include/c++/9.2.0/ostream ****        *  @return  *this
 302:/usr/include/c++/9.2.0/ostream ****        *
 303:/usr/include/c++/9.2.0/ostream ****        *  Tries to insert @p __c.
 304:/usr/include/c++/9.2.0/ostream ****        *
 305:/usr/include/c++/9.2.0/ostream ****        *  @note  This function is not overloaded on signed char and
 306:/usr/include/c++/9.2.0/ostream ****        *         unsigned char.
 307:/usr/include/c++/9.2.0/ostream ****       */
 308:/usr/include/c++/9.2.0/ostream ****       __ostream_type&
 309:/usr/include/c++/9.2.0/ostream ****       put(char_type __c);
 310:/usr/include/c++/9.2.0/ostream **** 
 311:/usr/include/c++/9.2.0/ostream ****       /**
 312:/usr/include/c++/9.2.0/ostream ****        *  @brief  Core write functionality, without sentry.
GAS LISTING /tmp/ccBuC8w2.s 			page 25


 313:/usr/include/c++/9.2.0/ostream ****        *  @param  __s  The array to insert.
 314:/usr/include/c++/9.2.0/ostream ****        *  @param  __n  Maximum number of characters to insert.
 315:/usr/include/c++/9.2.0/ostream ****       */
 316:/usr/include/c++/9.2.0/ostream ****       void
 317:/usr/include/c++/9.2.0/ostream ****       _M_write(const char_type* __s, streamsize __n)
 318:/usr/include/c++/9.2.0/ostream ****       {
 319:/usr/include/c++/9.2.0/ostream **** 	const streamsize __put = this->rdbuf()->sputn(__s, __n);
 320:/usr/include/c++/9.2.0/ostream **** 	if (__put != __n)
 321:/usr/include/c++/9.2.0/ostream **** 	  this->setstate(ios_base::badbit);
 322:/usr/include/c++/9.2.0/ostream ****       }
 323:/usr/include/c++/9.2.0/ostream **** 
 324:/usr/include/c++/9.2.0/ostream ****       /**
 325:/usr/include/c++/9.2.0/ostream ****        *  @brief  Character string insertion.
 326:/usr/include/c++/9.2.0/ostream ****        *  @param  __s  The array to insert.
 327:/usr/include/c++/9.2.0/ostream ****        *  @param  __n  Maximum number of characters to insert.
 328:/usr/include/c++/9.2.0/ostream ****        *  @return  *this
 329:/usr/include/c++/9.2.0/ostream ****        *
 330:/usr/include/c++/9.2.0/ostream ****        *  Characters are copied from @p __s and inserted into the stream until
 331:/usr/include/c++/9.2.0/ostream ****        *  one of the following happens:
 332:/usr/include/c++/9.2.0/ostream ****        *
 333:/usr/include/c++/9.2.0/ostream ****        *  - @p __n characters are inserted
 334:/usr/include/c++/9.2.0/ostream ****        *  - inserting into the output sequence fails (in this case, badbit
 335:/usr/include/c++/9.2.0/ostream ****        *    will be set in the stream's error state)
 336:/usr/include/c++/9.2.0/ostream ****        *
 337:/usr/include/c++/9.2.0/ostream ****        *  @note  This function is not overloaded on signed char and
 338:/usr/include/c++/9.2.0/ostream ****        *         unsigned char.
 339:/usr/include/c++/9.2.0/ostream ****       */
 340:/usr/include/c++/9.2.0/ostream ****       __ostream_type&
 341:/usr/include/c++/9.2.0/ostream ****       write(const char_type* __s, streamsize __n);
 342:/usr/include/c++/9.2.0/ostream ****       //@}
 343:/usr/include/c++/9.2.0/ostream **** 
 344:/usr/include/c++/9.2.0/ostream ****       /**
 345:/usr/include/c++/9.2.0/ostream ****        *  @brief  Synchronizing the stream buffer.
 346:/usr/include/c++/9.2.0/ostream ****        *  @return  *this
 347:/usr/include/c++/9.2.0/ostream ****        *
 348:/usr/include/c++/9.2.0/ostream ****        *  If @c rdbuf() is a null pointer, changes nothing.
 349:/usr/include/c++/9.2.0/ostream ****        *
 350:/usr/include/c++/9.2.0/ostream ****        *  Otherwise, calls @c rdbuf()->pubsync(), and if that returns -1,
 351:/usr/include/c++/9.2.0/ostream ****        *  sets badbit.
 352:/usr/include/c++/9.2.0/ostream ****       */
 353:/usr/include/c++/9.2.0/ostream ****       __ostream_type&
 354:/usr/include/c++/9.2.0/ostream ****       flush();
 355:/usr/include/c++/9.2.0/ostream **** 
 356:/usr/include/c++/9.2.0/ostream ****       /**
 357:/usr/include/c++/9.2.0/ostream ****        *  @brief  Getting the current write position.
 358:/usr/include/c++/9.2.0/ostream ****        *  @return  A file position object.
 359:/usr/include/c++/9.2.0/ostream ****        *
 360:/usr/include/c++/9.2.0/ostream ****        *  If @c fail() is not false, returns @c pos_type(-1) to indicate
 361:/usr/include/c++/9.2.0/ostream ****        *  failure.  Otherwise returns @c rdbuf()->pubseekoff(0,cur,out).
 362:/usr/include/c++/9.2.0/ostream ****       */
 363:/usr/include/c++/9.2.0/ostream ****       pos_type
 364:/usr/include/c++/9.2.0/ostream ****       tellp();
 365:/usr/include/c++/9.2.0/ostream **** 
 366:/usr/include/c++/9.2.0/ostream ****       /**
 367:/usr/include/c++/9.2.0/ostream ****        *  @brief  Changing the current write position.
 368:/usr/include/c++/9.2.0/ostream ****        *  @param  __pos  A file position object.
 369:/usr/include/c++/9.2.0/ostream ****        *  @return  *this
GAS LISTING /tmp/ccBuC8w2.s 			page 26


 370:/usr/include/c++/9.2.0/ostream ****        *
 371:/usr/include/c++/9.2.0/ostream ****        *  If @c fail() is not true, calls @c rdbuf()->pubseekpos(pos).  If
 372:/usr/include/c++/9.2.0/ostream ****        *  that function fails, sets failbit.
 373:/usr/include/c++/9.2.0/ostream ****       */
 374:/usr/include/c++/9.2.0/ostream ****       __ostream_type&
 375:/usr/include/c++/9.2.0/ostream ****       seekp(pos_type);
 376:/usr/include/c++/9.2.0/ostream **** 
 377:/usr/include/c++/9.2.0/ostream ****       /**
 378:/usr/include/c++/9.2.0/ostream ****        *  @brief  Changing the current write position.
 379:/usr/include/c++/9.2.0/ostream ****        *  @param  __off  A file offset object.
 380:/usr/include/c++/9.2.0/ostream ****        *  @param  __dir  The direction in which to seek.
 381:/usr/include/c++/9.2.0/ostream ****        *  @return  *this
 382:/usr/include/c++/9.2.0/ostream ****        *
 383:/usr/include/c++/9.2.0/ostream ****        *  If @c fail() is not true, calls @c rdbuf()->pubseekoff(off,dir).
 384:/usr/include/c++/9.2.0/ostream ****        *  If that function fails, sets failbit.
 385:/usr/include/c++/9.2.0/ostream ****       */
 386:/usr/include/c++/9.2.0/ostream ****        __ostream_type&
 387:/usr/include/c++/9.2.0/ostream ****       seekp(off_type, ios_base::seekdir);
 388:/usr/include/c++/9.2.0/ostream **** 
 389:/usr/include/c++/9.2.0/ostream ****     protected:
 390:/usr/include/c++/9.2.0/ostream ****       basic_ostream()
 391:/usr/include/c++/9.2.0/ostream ****       { this->init(0); }
 392:/usr/include/c++/9.2.0/ostream **** 
 393:/usr/include/c++/9.2.0/ostream **** #if __cplusplus >= 201103L
 394:/usr/include/c++/9.2.0/ostream ****       // Non-standard constructor that does not call init()
 395:/usr/include/c++/9.2.0/ostream ****       basic_ostream(basic_iostream<_CharT, _Traits>&) { }
 396:/usr/include/c++/9.2.0/ostream **** 
 397:/usr/include/c++/9.2.0/ostream ****       basic_ostream(const basic_ostream&) = delete;
 398:/usr/include/c++/9.2.0/ostream **** 
 399:/usr/include/c++/9.2.0/ostream ****       basic_ostream(basic_ostream&& __rhs)
 400:/usr/include/c++/9.2.0/ostream ****       : __ios_type()
 401:/usr/include/c++/9.2.0/ostream ****       { __ios_type::move(__rhs); }
 402:/usr/include/c++/9.2.0/ostream **** 
 403:/usr/include/c++/9.2.0/ostream ****       // 27.7.3.3 Assign/swap
 404:/usr/include/c++/9.2.0/ostream **** 
 405:/usr/include/c++/9.2.0/ostream ****       basic_ostream& operator=(const basic_ostream&) = delete;
 406:/usr/include/c++/9.2.0/ostream **** 
 407:/usr/include/c++/9.2.0/ostream ****       basic_ostream&
 408:/usr/include/c++/9.2.0/ostream ****       operator=(basic_ostream&& __rhs)
 409:/usr/include/c++/9.2.0/ostream ****       {
 410:/usr/include/c++/9.2.0/ostream **** 	swap(__rhs);
 411:/usr/include/c++/9.2.0/ostream **** 	return *this;
 412:/usr/include/c++/9.2.0/ostream ****       }
 413:/usr/include/c++/9.2.0/ostream **** 
 414:/usr/include/c++/9.2.0/ostream ****       void
 415:/usr/include/c++/9.2.0/ostream ****       swap(basic_ostream& __rhs)
 416:/usr/include/c++/9.2.0/ostream ****       { __ios_type::swap(__rhs); }
 417:/usr/include/c++/9.2.0/ostream **** #endif
 418:/usr/include/c++/9.2.0/ostream **** 
 419:/usr/include/c++/9.2.0/ostream ****       template<typename _ValueT>
 420:/usr/include/c++/9.2.0/ostream **** 	__ostream_type&
 421:/usr/include/c++/9.2.0/ostream **** 	_M_insert(_ValueT __v);
 422:/usr/include/c++/9.2.0/ostream ****     };
 423:/usr/include/c++/9.2.0/ostream **** 
 424:/usr/include/c++/9.2.0/ostream ****   /**
 425:/usr/include/c++/9.2.0/ostream ****    *  @brief  Performs setup work for output streams.
 426:/usr/include/c++/9.2.0/ostream ****    *
GAS LISTING /tmp/ccBuC8w2.s 			page 27


 427:/usr/include/c++/9.2.0/ostream ****    *  Objects of this class are created before all of the standard
 428:/usr/include/c++/9.2.0/ostream ****    *  inserters are run.  It is responsible for <em>exception-safe prefix and
 429:/usr/include/c++/9.2.0/ostream ****    *  suffix operations</em>.
 430:/usr/include/c++/9.2.0/ostream ****   */
 431:/usr/include/c++/9.2.0/ostream ****   template <typename _CharT, typename _Traits>
 432:/usr/include/c++/9.2.0/ostream ****     class basic_ostream<_CharT, _Traits>::sentry
 433:/usr/include/c++/9.2.0/ostream ****     {
 434:/usr/include/c++/9.2.0/ostream ****       // Data Members.
 435:/usr/include/c++/9.2.0/ostream ****       bool 				_M_ok;
 436:/usr/include/c++/9.2.0/ostream ****       basic_ostream<_CharT, _Traits>& 	_M_os;
 437:/usr/include/c++/9.2.0/ostream **** 
 438:/usr/include/c++/9.2.0/ostream ****     public:
 439:/usr/include/c++/9.2.0/ostream ****       /**
 440:/usr/include/c++/9.2.0/ostream ****        *  @brief  The constructor performs preparatory work.
 441:/usr/include/c++/9.2.0/ostream ****        *  @param  __os  The output stream to guard.
 442:/usr/include/c++/9.2.0/ostream ****        *
 443:/usr/include/c++/9.2.0/ostream ****        *  If the stream state is good (@a __os.good() is true), then if the
 444:/usr/include/c++/9.2.0/ostream ****        *  stream is tied to another output stream, @c is.tie()->flush()
 445:/usr/include/c++/9.2.0/ostream ****        *  is called to synchronize the output sequences.
 446:/usr/include/c++/9.2.0/ostream ****        *
 447:/usr/include/c++/9.2.0/ostream ****        *  If the stream state is still good, then the sentry state becomes
 448:/usr/include/c++/9.2.0/ostream ****        *  true (@a okay).
 449:/usr/include/c++/9.2.0/ostream ****       */
 450:/usr/include/c++/9.2.0/ostream ****       explicit
 451:/usr/include/c++/9.2.0/ostream ****       sentry(basic_ostream<_CharT, _Traits>& __os);
 452:/usr/include/c++/9.2.0/ostream **** 
 453:/usr/include/c++/9.2.0/ostream **** #pragma GCC diagnostic push
 454:/usr/include/c++/9.2.0/ostream **** #pragma GCC diagnostic ignored "-Wdeprecated-declarations"
 455:/usr/include/c++/9.2.0/ostream ****       /**
 456:/usr/include/c++/9.2.0/ostream ****        *  @brief  Possibly flushes the stream.
 457:/usr/include/c++/9.2.0/ostream ****        *
 458:/usr/include/c++/9.2.0/ostream ****        *  If @c ios_base::unitbuf is set in @c os.flags(), and
 459:/usr/include/c++/9.2.0/ostream ****        *  @c std::uncaught_exception() is true, the sentry destructor calls
 460:/usr/include/c++/9.2.0/ostream ****        *  @c flush() on the output stream.
 461:/usr/include/c++/9.2.0/ostream ****       */
 462:/usr/include/c++/9.2.0/ostream ****       ~sentry()
 463:/usr/include/c++/9.2.0/ostream ****       {
 464:/usr/include/c++/9.2.0/ostream **** 	// XXX MT
 465:/usr/include/c++/9.2.0/ostream **** 	if (bool(_M_os.flags() & ios_base::unitbuf) && !uncaught_exception())
 466:/usr/include/c++/9.2.0/ostream **** 	  {
 467:/usr/include/c++/9.2.0/ostream **** 	    // Can't call flush directly or else will get into recursive lock.
 468:/usr/include/c++/9.2.0/ostream **** 	    if (_M_os.rdbuf() && _M_os.rdbuf()->pubsync() == -1)
 469:/usr/include/c++/9.2.0/ostream **** 	      _M_os.setstate(ios_base::badbit);
 470:/usr/include/c++/9.2.0/ostream **** 	  }
 471:/usr/include/c++/9.2.0/ostream ****       }
 472:/usr/include/c++/9.2.0/ostream **** #pragma GCC diagnostic pop
 473:/usr/include/c++/9.2.0/ostream **** 
 474:/usr/include/c++/9.2.0/ostream ****       /**
 475:/usr/include/c++/9.2.0/ostream ****        *  @brief  Quick status checking.
 476:/usr/include/c++/9.2.0/ostream ****        *  @return  The sentry state.
 477:/usr/include/c++/9.2.0/ostream ****        *
 478:/usr/include/c++/9.2.0/ostream ****        *  For ease of use, sentries may be converted to booleans.  The
 479:/usr/include/c++/9.2.0/ostream ****        *  return value is that of the sentry state (true == okay).
 480:/usr/include/c++/9.2.0/ostream ****       */
 481:/usr/include/c++/9.2.0/ostream **** #if __cplusplus >= 201103L
 482:/usr/include/c++/9.2.0/ostream ****       explicit
 483:/usr/include/c++/9.2.0/ostream **** #endif
GAS LISTING /tmp/ccBuC8w2.s 			page 28


 484:/usr/include/c++/9.2.0/ostream ****       operator bool() const
 485:/usr/include/c++/9.2.0/ostream ****       { return _M_ok; }
 486:/usr/include/c++/9.2.0/ostream ****     };
 487:/usr/include/c++/9.2.0/ostream **** 
 488:/usr/include/c++/9.2.0/ostream ****   //@{
 489:/usr/include/c++/9.2.0/ostream ****   /**
 490:/usr/include/c++/9.2.0/ostream ****    *  @brief  Character inserters
 491:/usr/include/c++/9.2.0/ostream ****    *  @param  __out  An output stream.
 492:/usr/include/c++/9.2.0/ostream ****    *  @param  __c  A character.
 493:/usr/include/c++/9.2.0/ostream ****    *  @return  out
 494:/usr/include/c++/9.2.0/ostream ****    *
 495:/usr/include/c++/9.2.0/ostream ****    *  Behaves like one of the formatted arithmetic inserters described in
 496:/usr/include/c++/9.2.0/ostream ****    *  std::basic_ostream.  After constructing a sentry object with good
 497:/usr/include/c++/9.2.0/ostream ****    *  status, this function inserts a single character and any required
 498:/usr/include/c++/9.2.0/ostream ****    *  padding (as determined by [22.2.2.2.2]).  @c __out.width(0) is then
 499:/usr/include/c++/9.2.0/ostream ****    *  called.
 500:/usr/include/c++/9.2.0/ostream ****    *
 501:/usr/include/c++/9.2.0/ostream ****    *  If @p __c is of type @c char and the character type of the stream is not
 502:/usr/include/c++/9.2.0/ostream ****    *  @c char, the character is widened before insertion.
 503:/usr/include/c++/9.2.0/ostream ****   */
 504:/usr/include/c++/9.2.0/ostream ****   template<typename _CharT, typename _Traits>
 505:/usr/include/c++/9.2.0/ostream ****     inline basic_ostream<_CharT, _Traits>&
 506:/usr/include/c++/9.2.0/ostream ****     operator<<(basic_ostream<_CharT, _Traits>& __out, _CharT __c)
 507:/usr/include/c++/9.2.0/ostream ****     { return __ostream_insert(__out, &__c, 1); }
 508:/usr/include/c++/9.2.0/ostream **** 
 509:/usr/include/c++/9.2.0/ostream ****   template<typename _CharT, typename _Traits>
 510:/usr/include/c++/9.2.0/ostream ****     inline basic_ostream<_CharT, _Traits>&
 511:/usr/include/c++/9.2.0/ostream ****     operator<<(basic_ostream<_CharT, _Traits>& __out, char __c)
 512:/usr/include/c++/9.2.0/ostream ****     { return (__out << __out.widen(__c)); }
 513:/usr/include/c++/9.2.0/ostream **** 
 514:/usr/include/c++/9.2.0/ostream ****   // Specialization
 515:/usr/include/c++/9.2.0/ostream ****   template <class _Traits>
 516:/usr/include/c++/9.2.0/ostream ****     inline basic_ostream<char, _Traits>&
 517:/usr/include/c++/9.2.0/ostream ****     operator<<(basic_ostream<char, _Traits>& __out, char __c)
 518:/usr/include/c++/9.2.0/ostream ****     { return __ostream_insert(__out, &__c, 1); }
 519:/usr/include/c++/9.2.0/ostream **** 
 520:/usr/include/c++/9.2.0/ostream ****   // Signed and unsigned
 521:/usr/include/c++/9.2.0/ostream ****   template<class _Traits>
 522:/usr/include/c++/9.2.0/ostream ****     inline basic_ostream<char, _Traits>&
 523:/usr/include/c++/9.2.0/ostream ****     operator<<(basic_ostream<char, _Traits>& __out, signed char __c)
 524:/usr/include/c++/9.2.0/ostream ****     { return (__out << static_cast<char>(__c)); }
 525:/usr/include/c++/9.2.0/ostream **** 
 526:/usr/include/c++/9.2.0/ostream ****   template<class _Traits>
 527:/usr/include/c++/9.2.0/ostream ****     inline basic_ostream<char, _Traits>&
 528:/usr/include/c++/9.2.0/ostream ****     operator<<(basic_ostream<char, _Traits>& __out, unsigned char __c)
 529:/usr/include/c++/9.2.0/ostream ****     { return (__out << static_cast<char>(__c)); }
 530:/usr/include/c++/9.2.0/ostream ****   //@}
 531:/usr/include/c++/9.2.0/ostream **** 
 532:/usr/include/c++/9.2.0/ostream ****   //@{
 533:/usr/include/c++/9.2.0/ostream ****   /**
 534:/usr/include/c++/9.2.0/ostream ****    *  @brief  String inserters
 535:/usr/include/c++/9.2.0/ostream ****    *  @param  __out  An output stream.
 536:/usr/include/c++/9.2.0/ostream ****    *  @param  __s  A character string.
 537:/usr/include/c++/9.2.0/ostream ****    *  @return  out
 538:/usr/include/c++/9.2.0/ostream ****    *  @pre  @p __s must be a non-NULL pointer
 539:/usr/include/c++/9.2.0/ostream ****    *
 540:/usr/include/c++/9.2.0/ostream ****    *  Behaves like one of the formatted arithmetic inserters described in
GAS LISTING /tmp/ccBuC8w2.s 			page 29


 541:/usr/include/c++/9.2.0/ostream ****    *  std::basic_ostream.  After constructing a sentry object with good
 542:/usr/include/c++/9.2.0/ostream ****    *  status, this function inserts @c traits::length(__s) characters starting
 543:/usr/include/c++/9.2.0/ostream ****    *  at @p __s, widened if necessary, followed by any required padding (as
 544:/usr/include/c++/9.2.0/ostream ****    *  determined by [22.2.2.2.2]).  @c __out.width(0) is then called.
 545:/usr/include/c++/9.2.0/ostream ****   */
 546:/usr/include/c++/9.2.0/ostream ****   template<typename _CharT, typename _Traits>
 547:/usr/include/c++/9.2.0/ostream ****     inline basic_ostream<_CharT, _Traits>&
 548:/usr/include/c++/9.2.0/ostream ****     operator<<(basic_ostream<_CharT, _Traits>& __out, const _CharT* __s)
 549:/usr/include/c++/9.2.0/ostream ****     {
 550:/usr/include/c++/9.2.0/ostream ****       if (!__s)
 551:/usr/include/c++/9.2.0/ostream **** 	__out.setstate(ios_base::badbit);
 552:/usr/include/c++/9.2.0/ostream ****       else
 553:/usr/include/c++/9.2.0/ostream **** 	__ostream_insert(__out, __s,
 554:/usr/include/c++/9.2.0/ostream **** 			 static_cast<streamsize>(_Traits::length(__s)));
 555:/usr/include/c++/9.2.0/ostream ****       return __out;
 556:/usr/include/c++/9.2.0/ostream ****     }
 557:/usr/include/c++/9.2.0/ostream **** 
 558:/usr/include/c++/9.2.0/ostream ****   template<typename _CharT, typename _Traits>
 559:/usr/include/c++/9.2.0/ostream ****     basic_ostream<_CharT, _Traits> &
 560:/usr/include/c++/9.2.0/ostream ****     operator<<(basic_ostream<_CharT, _Traits>& __out, const char* __s);
 561:/usr/include/c++/9.2.0/ostream **** 
 562:/usr/include/c++/9.2.0/ostream ****   // Partial specializations
 563:/usr/include/c++/9.2.0/ostream ****   template<class _Traits>
 564:/usr/include/c++/9.2.0/ostream ****     inline basic_ostream<char, _Traits>&
 565:/usr/include/c++/9.2.0/ostream ****     operator<<(basic_ostream<char, _Traits>& __out, const char* __s)
 516              		.loc 3 565 5 view .LVU144
 517              		.loc 3 565 5 is_stmt 0 view .LVU145
 518              	.LBE29:
 519              		.file 4 "/usr/include/c++/9.2.0/bits/char_traits.h"
   1:/usr/include/c++/9.2.0/bits/char_traits.h **** // Character Traits for use by standard string and iostream -*- C++ -*-
   2:/usr/include/c++/9.2.0/bits/char_traits.h **** 
   3:/usr/include/c++/9.2.0/bits/char_traits.h **** // Copyright (C) 1997-2019 Free Software Foundation, Inc.
   4:/usr/include/c++/9.2.0/bits/char_traits.h **** //
   5:/usr/include/c++/9.2.0/bits/char_traits.h **** // This file is part of the GNU ISO C++ Library.  This library is free
   6:/usr/include/c++/9.2.0/bits/char_traits.h **** // software; you can redistribute it and/or modify it under the
   7:/usr/include/c++/9.2.0/bits/char_traits.h **** // terms of the GNU General Public License as published by the
   8:/usr/include/c++/9.2.0/bits/char_traits.h **** // Free Software Foundation; either version 3, or (at your option)
   9:/usr/include/c++/9.2.0/bits/char_traits.h **** // any later version.
  10:/usr/include/c++/9.2.0/bits/char_traits.h **** 
  11:/usr/include/c++/9.2.0/bits/char_traits.h **** // This library is distributed in the hope that it will be useful,
  12:/usr/include/c++/9.2.0/bits/char_traits.h **** // but WITHOUT ANY WARRANTY; without even the implied warranty of
  13:/usr/include/c++/9.2.0/bits/char_traits.h **** // MERCHANTABILITY or FITNESS FOR A PARTICULAR PURPOSE.  See the
  14:/usr/include/c++/9.2.0/bits/char_traits.h **** // GNU General Public License for more details.
  15:/usr/include/c++/9.2.0/bits/char_traits.h **** 
  16:/usr/include/c++/9.2.0/bits/char_traits.h **** // Under Section 7 of GPL version 3, you are granted additional
  17:/usr/include/c++/9.2.0/bits/char_traits.h **** // permissions described in the GCC Runtime Library Exception, version
  18:/usr/include/c++/9.2.0/bits/char_traits.h **** // 3.1, as published by the Free Software Foundation.
  19:/usr/include/c++/9.2.0/bits/char_traits.h **** 
  20:/usr/include/c++/9.2.0/bits/char_traits.h **** // You should have received a copy of the GNU General Public License and
  21:/usr/include/c++/9.2.0/bits/char_traits.h **** // a copy of the GCC Runtime Library Exception along with this program;
  22:/usr/include/c++/9.2.0/bits/char_traits.h **** // see the files COPYING3 and COPYING.RUNTIME respectively.  If not, see
  23:/usr/include/c++/9.2.0/bits/char_traits.h **** // <http://www.gnu.org/licenses/>.
  24:/usr/include/c++/9.2.0/bits/char_traits.h **** 
  25:/usr/include/c++/9.2.0/bits/char_traits.h **** /** @file bits/char_traits.h
  26:/usr/include/c++/9.2.0/bits/char_traits.h ****  *  This is an internal header file, included by other library headers.
  27:/usr/include/c++/9.2.0/bits/char_traits.h ****  *  Do not attempt to use it directly. @headername{string}
  28:/usr/include/c++/9.2.0/bits/char_traits.h ****  */
GAS LISTING /tmp/ccBuC8w2.s 			page 30


  29:/usr/include/c++/9.2.0/bits/char_traits.h **** 
  30:/usr/include/c++/9.2.0/bits/char_traits.h **** //
  31:/usr/include/c++/9.2.0/bits/char_traits.h **** // ISO C++ 14882: 21  Strings library
  32:/usr/include/c++/9.2.0/bits/char_traits.h **** //
  33:/usr/include/c++/9.2.0/bits/char_traits.h **** 
  34:/usr/include/c++/9.2.0/bits/char_traits.h **** #ifndef _CHAR_TRAITS_H
  35:/usr/include/c++/9.2.0/bits/char_traits.h **** #define _CHAR_TRAITS_H 1
  36:/usr/include/c++/9.2.0/bits/char_traits.h **** 
  37:/usr/include/c++/9.2.0/bits/char_traits.h **** #pragma GCC system_header
  38:/usr/include/c++/9.2.0/bits/char_traits.h **** 
  39:/usr/include/c++/9.2.0/bits/char_traits.h **** #include <bits/stl_algobase.h>  // std::copy, std::fill_n
  40:/usr/include/c++/9.2.0/bits/char_traits.h **** #include <bits/postypes.h>      // For streampos
  41:/usr/include/c++/9.2.0/bits/char_traits.h **** #include <cwchar>               // For WEOF, wmemmove, wmemset, etc.
  42:/usr/include/c++/9.2.0/bits/char_traits.h **** 
  43:/usr/include/c++/9.2.0/bits/char_traits.h **** #ifndef _GLIBCXX_ALWAYS_INLINE
  44:/usr/include/c++/9.2.0/bits/char_traits.h **** # define _GLIBCXX_ALWAYS_INLINE inline __attribute__((__always_inline__))
  45:/usr/include/c++/9.2.0/bits/char_traits.h **** #endif
  46:/usr/include/c++/9.2.0/bits/char_traits.h **** 
  47:/usr/include/c++/9.2.0/bits/char_traits.h **** namespace __gnu_cxx _GLIBCXX_VISIBILITY(default)
  48:/usr/include/c++/9.2.0/bits/char_traits.h **** {
  49:/usr/include/c++/9.2.0/bits/char_traits.h **** _GLIBCXX_BEGIN_NAMESPACE_VERSION
  50:/usr/include/c++/9.2.0/bits/char_traits.h **** 
  51:/usr/include/c++/9.2.0/bits/char_traits.h ****   /**
  52:/usr/include/c++/9.2.0/bits/char_traits.h ****    *  @brief  Mapping from character type to associated types.
  53:/usr/include/c++/9.2.0/bits/char_traits.h ****    *
  54:/usr/include/c++/9.2.0/bits/char_traits.h ****    *  @note This is an implementation class for the generic version
  55:/usr/include/c++/9.2.0/bits/char_traits.h ****    *  of char_traits.  It defines int_type, off_type, pos_type, and
  56:/usr/include/c++/9.2.0/bits/char_traits.h ****    *  state_type.  By default these are unsigned long, streamoff,
  57:/usr/include/c++/9.2.0/bits/char_traits.h ****    *  streampos, and mbstate_t.  Users who need a different set of
  58:/usr/include/c++/9.2.0/bits/char_traits.h ****    *  types, but who don't need to change the definitions of any function
  59:/usr/include/c++/9.2.0/bits/char_traits.h ****    *  defined in char_traits, can specialize __gnu_cxx::_Char_types
  60:/usr/include/c++/9.2.0/bits/char_traits.h ****    *  while leaving __gnu_cxx::char_traits alone. */
  61:/usr/include/c++/9.2.0/bits/char_traits.h ****   template<typename _CharT>
  62:/usr/include/c++/9.2.0/bits/char_traits.h ****     struct _Char_types
  63:/usr/include/c++/9.2.0/bits/char_traits.h ****     {
  64:/usr/include/c++/9.2.0/bits/char_traits.h ****       typedef unsigned long   int_type;
  65:/usr/include/c++/9.2.0/bits/char_traits.h ****       typedef std::streampos  pos_type;
  66:/usr/include/c++/9.2.0/bits/char_traits.h ****       typedef std::streamoff  off_type;
  67:/usr/include/c++/9.2.0/bits/char_traits.h ****       typedef std::mbstate_t  state_type;
  68:/usr/include/c++/9.2.0/bits/char_traits.h ****     };
  69:/usr/include/c++/9.2.0/bits/char_traits.h **** 
  70:/usr/include/c++/9.2.0/bits/char_traits.h **** 
  71:/usr/include/c++/9.2.0/bits/char_traits.h ****   /**
  72:/usr/include/c++/9.2.0/bits/char_traits.h ****    *  @brief  Base class used to implement std::char_traits.
  73:/usr/include/c++/9.2.0/bits/char_traits.h ****    *
  74:/usr/include/c++/9.2.0/bits/char_traits.h ****    *  @note For any given actual character type, this definition is
  75:/usr/include/c++/9.2.0/bits/char_traits.h ****    *  probably wrong.  (Most of the member functions are likely to be
  76:/usr/include/c++/9.2.0/bits/char_traits.h ****    *  right, but the int_type and state_type typedefs, and the eof()
  77:/usr/include/c++/9.2.0/bits/char_traits.h ****    *  member function, are likely to be wrong.)  The reason this class
  78:/usr/include/c++/9.2.0/bits/char_traits.h ****    *  exists is so users can specialize it.  Classes in namespace std
  79:/usr/include/c++/9.2.0/bits/char_traits.h ****    *  may not be specialized for fundamental types, but classes in
  80:/usr/include/c++/9.2.0/bits/char_traits.h ****    *  namespace __gnu_cxx may be.
  81:/usr/include/c++/9.2.0/bits/char_traits.h ****    *
  82:/usr/include/c++/9.2.0/bits/char_traits.h ****    *  See https://gcc.gnu.org/onlinedocs/libstdc++/manual/strings.html#strings.string.character_typ
  83:/usr/include/c++/9.2.0/bits/char_traits.h ****    *  for advice on how to make use of this class for @a unusual character
  84:/usr/include/c++/9.2.0/bits/char_traits.h ****    *  types. Also, check out include/ext/pod_char_traits.h.  
  85:/usr/include/c++/9.2.0/bits/char_traits.h ****    */
GAS LISTING /tmp/ccBuC8w2.s 			page 31


  86:/usr/include/c++/9.2.0/bits/char_traits.h ****   template<typename _CharT>
  87:/usr/include/c++/9.2.0/bits/char_traits.h ****     struct char_traits
  88:/usr/include/c++/9.2.0/bits/char_traits.h ****     {
  89:/usr/include/c++/9.2.0/bits/char_traits.h ****       typedef _CharT                                    char_type;
  90:/usr/include/c++/9.2.0/bits/char_traits.h ****       typedef typename _Char_types<_CharT>::int_type    int_type;
  91:/usr/include/c++/9.2.0/bits/char_traits.h ****       typedef typename _Char_types<_CharT>::pos_type    pos_type;
  92:/usr/include/c++/9.2.0/bits/char_traits.h ****       typedef typename _Char_types<_CharT>::off_type    off_type;
  93:/usr/include/c++/9.2.0/bits/char_traits.h ****       typedef typename _Char_types<_CharT>::state_type  state_type;
  94:/usr/include/c++/9.2.0/bits/char_traits.h **** 
  95:/usr/include/c++/9.2.0/bits/char_traits.h ****       static _GLIBCXX14_CONSTEXPR void
  96:/usr/include/c++/9.2.0/bits/char_traits.h ****       assign(char_type& __c1, const char_type& __c2)
  97:/usr/include/c++/9.2.0/bits/char_traits.h ****       { __c1 = __c2; }
  98:/usr/include/c++/9.2.0/bits/char_traits.h **** 
  99:/usr/include/c++/9.2.0/bits/char_traits.h ****       static _GLIBCXX_CONSTEXPR bool
 100:/usr/include/c++/9.2.0/bits/char_traits.h ****       eq(const char_type& __c1, const char_type& __c2)
 101:/usr/include/c++/9.2.0/bits/char_traits.h ****       { return __c1 == __c2; }
 102:/usr/include/c++/9.2.0/bits/char_traits.h **** 
 103:/usr/include/c++/9.2.0/bits/char_traits.h ****       static _GLIBCXX_CONSTEXPR bool
 104:/usr/include/c++/9.2.0/bits/char_traits.h ****       lt(const char_type& __c1, const char_type& __c2)
 105:/usr/include/c++/9.2.0/bits/char_traits.h ****       { return __c1 < __c2; }
 106:/usr/include/c++/9.2.0/bits/char_traits.h **** 
 107:/usr/include/c++/9.2.0/bits/char_traits.h ****       static _GLIBCXX14_CONSTEXPR int
 108:/usr/include/c++/9.2.0/bits/char_traits.h ****       compare(const char_type* __s1, const char_type* __s2, std::size_t __n);
 109:/usr/include/c++/9.2.0/bits/char_traits.h **** 
 110:/usr/include/c++/9.2.0/bits/char_traits.h ****       static _GLIBCXX14_CONSTEXPR std::size_t
 111:/usr/include/c++/9.2.0/bits/char_traits.h ****       length(const char_type* __s);
 112:/usr/include/c++/9.2.0/bits/char_traits.h **** 
 113:/usr/include/c++/9.2.0/bits/char_traits.h ****       static _GLIBCXX14_CONSTEXPR const char_type*
 114:/usr/include/c++/9.2.0/bits/char_traits.h ****       find(const char_type* __s, std::size_t __n, const char_type& __a);
 115:/usr/include/c++/9.2.0/bits/char_traits.h **** 
 116:/usr/include/c++/9.2.0/bits/char_traits.h ****       static char_type*
 117:/usr/include/c++/9.2.0/bits/char_traits.h ****       move(char_type* __s1, const char_type* __s2, std::size_t __n);
 118:/usr/include/c++/9.2.0/bits/char_traits.h **** 
 119:/usr/include/c++/9.2.0/bits/char_traits.h ****       static char_type*
 120:/usr/include/c++/9.2.0/bits/char_traits.h ****       copy(char_type* __s1, const char_type* __s2, std::size_t __n);
 121:/usr/include/c++/9.2.0/bits/char_traits.h **** 
 122:/usr/include/c++/9.2.0/bits/char_traits.h ****       static char_type*
 123:/usr/include/c++/9.2.0/bits/char_traits.h ****       assign(char_type* __s, std::size_t __n, char_type __a);
 124:/usr/include/c++/9.2.0/bits/char_traits.h **** 
 125:/usr/include/c++/9.2.0/bits/char_traits.h ****       static _GLIBCXX_CONSTEXPR char_type
 126:/usr/include/c++/9.2.0/bits/char_traits.h ****       to_char_type(const int_type& __c)
 127:/usr/include/c++/9.2.0/bits/char_traits.h ****       { return static_cast<char_type>(__c); }
 128:/usr/include/c++/9.2.0/bits/char_traits.h **** 
 129:/usr/include/c++/9.2.0/bits/char_traits.h ****       static _GLIBCXX_CONSTEXPR int_type
 130:/usr/include/c++/9.2.0/bits/char_traits.h ****       to_int_type(const char_type& __c)
 131:/usr/include/c++/9.2.0/bits/char_traits.h ****       { return static_cast<int_type>(__c); }
 132:/usr/include/c++/9.2.0/bits/char_traits.h **** 
 133:/usr/include/c++/9.2.0/bits/char_traits.h ****       static _GLIBCXX_CONSTEXPR bool
 134:/usr/include/c++/9.2.0/bits/char_traits.h ****       eq_int_type(const int_type& __c1, const int_type& __c2)
 135:/usr/include/c++/9.2.0/bits/char_traits.h ****       { return __c1 == __c2; }
 136:/usr/include/c++/9.2.0/bits/char_traits.h **** 
 137:/usr/include/c++/9.2.0/bits/char_traits.h ****       static _GLIBCXX_CONSTEXPR int_type
 138:/usr/include/c++/9.2.0/bits/char_traits.h ****       eof()
 139:/usr/include/c++/9.2.0/bits/char_traits.h ****       { return static_cast<int_type>(_GLIBCXX_STDIO_EOF); }
 140:/usr/include/c++/9.2.0/bits/char_traits.h **** 
 141:/usr/include/c++/9.2.0/bits/char_traits.h ****       static _GLIBCXX_CONSTEXPR int_type
 142:/usr/include/c++/9.2.0/bits/char_traits.h ****       not_eof(const int_type& __c)
GAS LISTING /tmp/ccBuC8w2.s 			page 32


 143:/usr/include/c++/9.2.0/bits/char_traits.h ****       { return !eq_int_type(__c, eof()) ? __c : to_int_type(char_type()); }
 144:/usr/include/c++/9.2.0/bits/char_traits.h ****     };
 145:/usr/include/c++/9.2.0/bits/char_traits.h **** 
 146:/usr/include/c++/9.2.0/bits/char_traits.h ****   template<typename _CharT>
 147:/usr/include/c++/9.2.0/bits/char_traits.h ****     _GLIBCXX14_CONSTEXPR int
 148:/usr/include/c++/9.2.0/bits/char_traits.h ****     char_traits<_CharT>::
 149:/usr/include/c++/9.2.0/bits/char_traits.h ****     compare(const char_type* __s1, const char_type* __s2, std::size_t __n)
 150:/usr/include/c++/9.2.0/bits/char_traits.h ****     {
 151:/usr/include/c++/9.2.0/bits/char_traits.h ****       for (std::size_t __i = 0; __i < __n; ++__i)
 152:/usr/include/c++/9.2.0/bits/char_traits.h **** 	if (lt(__s1[__i], __s2[__i]))
 153:/usr/include/c++/9.2.0/bits/char_traits.h **** 	  return -1;
 154:/usr/include/c++/9.2.0/bits/char_traits.h **** 	else if (lt(__s2[__i], __s1[__i]))
 155:/usr/include/c++/9.2.0/bits/char_traits.h **** 	  return 1;
 156:/usr/include/c++/9.2.0/bits/char_traits.h ****       return 0;
 157:/usr/include/c++/9.2.0/bits/char_traits.h ****     }
 158:/usr/include/c++/9.2.0/bits/char_traits.h **** 
 159:/usr/include/c++/9.2.0/bits/char_traits.h ****   template<typename _CharT>
 160:/usr/include/c++/9.2.0/bits/char_traits.h ****     _GLIBCXX14_CONSTEXPR std::size_t
 161:/usr/include/c++/9.2.0/bits/char_traits.h ****     char_traits<_CharT>::
 162:/usr/include/c++/9.2.0/bits/char_traits.h ****     length(const char_type* __p)
 163:/usr/include/c++/9.2.0/bits/char_traits.h ****     {
 164:/usr/include/c++/9.2.0/bits/char_traits.h ****       std::size_t __i = 0;
 165:/usr/include/c++/9.2.0/bits/char_traits.h ****       while (!eq(__p[__i], char_type()))
 166:/usr/include/c++/9.2.0/bits/char_traits.h ****         ++__i;
 167:/usr/include/c++/9.2.0/bits/char_traits.h ****       return __i;
 168:/usr/include/c++/9.2.0/bits/char_traits.h ****     }
 169:/usr/include/c++/9.2.0/bits/char_traits.h **** 
 170:/usr/include/c++/9.2.0/bits/char_traits.h ****   template<typename _CharT>
 171:/usr/include/c++/9.2.0/bits/char_traits.h ****     _GLIBCXX14_CONSTEXPR const typename char_traits<_CharT>::char_type*
 172:/usr/include/c++/9.2.0/bits/char_traits.h ****     char_traits<_CharT>::
 173:/usr/include/c++/9.2.0/bits/char_traits.h ****     find(const char_type* __s, std::size_t __n, const char_type& __a)
 174:/usr/include/c++/9.2.0/bits/char_traits.h ****     {
 175:/usr/include/c++/9.2.0/bits/char_traits.h ****       for (std::size_t __i = 0; __i < __n; ++__i)
 176:/usr/include/c++/9.2.0/bits/char_traits.h ****         if (eq(__s[__i], __a))
 177:/usr/include/c++/9.2.0/bits/char_traits.h ****           return __s + __i;
 178:/usr/include/c++/9.2.0/bits/char_traits.h ****       return 0;
 179:/usr/include/c++/9.2.0/bits/char_traits.h ****     }
 180:/usr/include/c++/9.2.0/bits/char_traits.h **** 
 181:/usr/include/c++/9.2.0/bits/char_traits.h ****   template<typename _CharT>
 182:/usr/include/c++/9.2.0/bits/char_traits.h ****     typename char_traits<_CharT>::char_type*
 183:/usr/include/c++/9.2.0/bits/char_traits.h ****     char_traits<_CharT>::
 184:/usr/include/c++/9.2.0/bits/char_traits.h ****     move(char_type* __s1, const char_type* __s2, std::size_t __n)
 185:/usr/include/c++/9.2.0/bits/char_traits.h ****     {
 186:/usr/include/c++/9.2.0/bits/char_traits.h ****       if (__n == 0)
 187:/usr/include/c++/9.2.0/bits/char_traits.h **** 	return __s1;
 188:/usr/include/c++/9.2.0/bits/char_traits.h ****       return static_cast<_CharT*>(__builtin_memmove(__s1, __s2,
 189:/usr/include/c++/9.2.0/bits/char_traits.h **** 						    __n * sizeof(char_type)));
 190:/usr/include/c++/9.2.0/bits/char_traits.h ****     }
 191:/usr/include/c++/9.2.0/bits/char_traits.h **** 
 192:/usr/include/c++/9.2.0/bits/char_traits.h ****   template<typename _CharT>
 193:/usr/include/c++/9.2.0/bits/char_traits.h ****     typename char_traits<_CharT>::char_type*
 194:/usr/include/c++/9.2.0/bits/char_traits.h ****     char_traits<_CharT>::
 195:/usr/include/c++/9.2.0/bits/char_traits.h ****     copy(char_type* __s1, const char_type* __s2, std::size_t __n)
 196:/usr/include/c++/9.2.0/bits/char_traits.h ****     {
 197:/usr/include/c++/9.2.0/bits/char_traits.h ****       // NB: Inline std::copy so no recursive dependencies.
 198:/usr/include/c++/9.2.0/bits/char_traits.h ****       std::copy(__s2, __s2 + __n, __s1);
 199:/usr/include/c++/9.2.0/bits/char_traits.h ****       return __s1;
GAS LISTING /tmp/ccBuC8w2.s 			page 33


 200:/usr/include/c++/9.2.0/bits/char_traits.h ****     }
 201:/usr/include/c++/9.2.0/bits/char_traits.h **** 
 202:/usr/include/c++/9.2.0/bits/char_traits.h ****   template<typename _CharT>
 203:/usr/include/c++/9.2.0/bits/char_traits.h ****     typename char_traits<_CharT>::char_type*
 204:/usr/include/c++/9.2.0/bits/char_traits.h ****     char_traits<_CharT>::
 205:/usr/include/c++/9.2.0/bits/char_traits.h ****     assign(char_type* __s, std::size_t __n, char_type __a)
 206:/usr/include/c++/9.2.0/bits/char_traits.h ****     {
 207:/usr/include/c++/9.2.0/bits/char_traits.h ****       // NB: Inline std::fill_n so no recursive dependencies.
 208:/usr/include/c++/9.2.0/bits/char_traits.h ****       std::fill_n(__s, __n, __a);
 209:/usr/include/c++/9.2.0/bits/char_traits.h ****       return __s;
 210:/usr/include/c++/9.2.0/bits/char_traits.h ****     }
 211:/usr/include/c++/9.2.0/bits/char_traits.h **** 
 212:/usr/include/c++/9.2.0/bits/char_traits.h **** _GLIBCXX_END_NAMESPACE_VERSION
 213:/usr/include/c++/9.2.0/bits/char_traits.h **** } // namespace
 214:/usr/include/c++/9.2.0/bits/char_traits.h **** 
 215:/usr/include/c++/9.2.0/bits/char_traits.h **** namespace std _GLIBCXX_VISIBILITY(default)
 216:/usr/include/c++/9.2.0/bits/char_traits.h **** {
 217:/usr/include/c++/9.2.0/bits/char_traits.h **** _GLIBCXX_BEGIN_NAMESPACE_VERSION
 218:/usr/include/c++/9.2.0/bits/char_traits.h **** 
 219:/usr/include/c++/9.2.0/bits/char_traits.h **** #if __cplusplus >= 201703L
 220:/usr/include/c++/9.2.0/bits/char_traits.h **** #define __cpp_lib_constexpr_char_traits 201611
 221:/usr/include/c++/9.2.0/bits/char_traits.h **** 
 222:/usr/include/c++/9.2.0/bits/char_traits.h ****   /**
 223:/usr/include/c++/9.2.0/bits/char_traits.h ****    *  @brief Determine whether the characters of a NULL-terminated
 224:/usr/include/c++/9.2.0/bits/char_traits.h ****    *  string are known at compile time.
 225:/usr/include/c++/9.2.0/bits/char_traits.h ****    *  @param  __s  The string.
 226:/usr/include/c++/9.2.0/bits/char_traits.h ****    *
 227:/usr/include/c++/9.2.0/bits/char_traits.h ****    *  Assumes that _CharT is a built-in character type.
 228:/usr/include/c++/9.2.0/bits/char_traits.h ****    */
 229:/usr/include/c++/9.2.0/bits/char_traits.h ****   template<typename _CharT>
 230:/usr/include/c++/9.2.0/bits/char_traits.h ****     static _GLIBCXX_ALWAYS_INLINE constexpr bool
 231:/usr/include/c++/9.2.0/bits/char_traits.h ****     __constant_string_p(const _CharT* __s)
 232:/usr/include/c++/9.2.0/bits/char_traits.h ****     {
 233:/usr/include/c++/9.2.0/bits/char_traits.h **** #ifdef _GLIBCXX_HAVE_BUILTIN_IS_CONSTANT_EVALUATED
 234:/usr/include/c++/9.2.0/bits/char_traits.h ****       (void) __s;
 235:/usr/include/c++/9.2.0/bits/char_traits.h ****       // In constexpr contexts all strings should be constant.
 236:/usr/include/c++/9.2.0/bits/char_traits.h ****       return __builtin_is_constant_evaluated();
 237:/usr/include/c++/9.2.0/bits/char_traits.h **** #else
 238:/usr/include/c++/9.2.0/bits/char_traits.h ****       while (__builtin_constant_p(*__s) && *__s)
 239:/usr/include/c++/9.2.0/bits/char_traits.h **** 	__s++;
 240:/usr/include/c++/9.2.0/bits/char_traits.h ****       return __builtin_constant_p(*__s);
 241:/usr/include/c++/9.2.0/bits/char_traits.h **** #endif
 242:/usr/include/c++/9.2.0/bits/char_traits.h ****     }
 243:/usr/include/c++/9.2.0/bits/char_traits.h **** 
 244:/usr/include/c++/9.2.0/bits/char_traits.h ****   /**
 245:/usr/include/c++/9.2.0/bits/char_traits.h ****    *  @brief Determine whether the characters of a character array are
 246:/usr/include/c++/9.2.0/bits/char_traits.h ****    *  known at compile time.
 247:/usr/include/c++/9.2.0/bits/char_traits.h ****    *  @param  __a  The character array.
 248:/usr/include/c++/9.2.0/bits/char_traits.h ****    *  @param  __n  Number of characters.
 249:/usr/include/c++/9.2.0/bits/char_traits.h ****    *
 250:/usr/include/c++/9.2.0/bits/char_traits.h ****    *  Assumes that _CharT is a built-in character type.
 251:/usr/include/c++/9.2.0/bits/char_traits.h ****    */
 252:/usr/include/c++/9.2.0/bits/char_traits.h ****   template<typename _CharT>
 253:/usr/include/c++/9.2.0/bits/char_traits.h ****     static _GLIBCXX_ALWAYS_INLINE constexpr bool
 254:/usr/include/c++/9.2.0/bits/char_traits.h ****     __constant_char_array_p(const _CharT* __a, size_t __n)
 255:/usr/include/c++/9.2.0/bits/char_traits.h ****     {
 256:/usr/include/c++/9.2.0/bits/char_traits.h **** #ifdef _GLIBCXX_HAVE_BUILTIN_IS_CONSTANT_EVALUATED
GAS LISTING /tmp/ccBuC8w2.s 			page 34


 257:/usr/include/c++/9.2.0/bits/char_traits.h ****       (void) __a;
 258:/usr/include/c++/9.2.0/bits/char_traits.h ****       (void) __n;
 259:/usr/include/c++/9.2.0/bits/char_traits.h ****       // In constexpr contexts all character arrays should be constant.
 260:/usr/include/c++/9.2.0/bits/char_traits.h ****       return __builtin_is_constant_evaluated();
 261:/usr/include/c++/9.2.0/bits/char_traits.h **** #else
 262:/usr/include/c++/9.2.0/bits/char_traits.h ****       size_t __i = 0;
 263:/usr/include/c++/9.2.0/bits/char_traits.h ****       while (__i < __n && __builtin_constant_p(__a[__i]))
 264:/usr/include/c++/9.2.0/bits/char_traits.h **** 	__i++;
 265:/usr/include/c++/9.2.0/bits/char_traits.h ****       return __i == __n;
 266:/usr/include/c++/9.2.0/bits/char_traits.h **** #endif
 267:/usr/include/c++/9.2.0/bits/char_traits.h ****     }
 268:/usr/include/c++/9.2.0/bits/char_traits.h **** #endif
 269:/usr/include/c++/9.2.0/bits/char_traits.h **** 
 270:/usr/include/c++/9.2.0/bits/char_traits.h ****   // 21.1
 271:/usr/include/c++/9.2.0/bits/char_traits.h ****   /**
 272:/usr/include/c++/9.2.0/bits/char_traits.h ****    *  @brief  Basis for explicit traits specializations.
 273:/usr/include/c++/9.2.0/bits/char_traits.h ****    *
 274:/usr/include/c++/9.2.0/bits/char_traits.h ****    *  @note  For any given actual character type, this definition is
 275:/usr/include/c++/9.2.0/bits/char_traits.h ****    *  probably wrong.  Since this is just a thin wrapper around
 276:/usr/include/c++/9.2.0/bits/char_traits.h ****    *  __gnu_cxx::char_traits, it is possible to achieve a more
 277:/usr/include/c++/9.2.0/bits/char_traits.h ****    *  appropriate definition by specializing __gnu_cxx::char_traits.
 278:/usr/include/c++/9.2.0/bits/char_traits.h ****    *
 279:/usr/include/c++/9.2.0/bits/char_traits.h ****    *  See https://gcc.gnu.org/onlinedocs/libstdc++/manual/strings.html#strings.string.character_typ
 280:/usr/include/c++/9.2.0/bits/char_traits.h ****    *  for advice on how to make use of this class for @a unusual character
 281:/usr/include/c++/9.2.0/bits/char_traits.h ****    *  types. Also, check out include/ext/pod_char_traits.h.
 282:/usr/include/c++/9.2.0/bits/char_traits.h ****   */
 283:/usr/include/c++/9.2.0/bits/char_traits.h ****   template<class _CharT>
 284:/usr/include/c++/9.2.0/bits/char_traits.h ****     struct char_traits : public __gnu_cxx::char_traits<_CharT>
 285:/usr/include/c++/9.2.0/bits/char_traits.h ****     { };
 286:/usr/include/c++/9.2.0/bits/char_traits.h **** 
 287:/usr/include/c++/9.2.0/bits/char_traits.h **** 
 288:/usr/include/c++/9.2.0/bits/char_traits.h ****   /// 21.1.3.1  char_traits specializations
 289:/usr/include/c++/9.2.0/bits/char_traits.h ****   template<>
 290:/usr/include/c++/9.2.0/bits/char_traits.h ****     struct char_traits<char>
 291:/usr/include/c++/9.2.0/bits/char_traits.h ****     {
 292:/usr/include/c++/9.2.0/bits/char_traits.h ****       typedef char              char_type;
 293:/usr/include/c++/9.2.0/bits/char_traits.h ****       typedef int               int_type;
 294:/usr/include/c++/9.2.0/bits/char_traits.h ****       typedef streampos         pos_type;
 295:/usr/include/c++/9.2.0/bits/char_traits.h ****       typedef streamoff         off_type;
 296:/usr/include/c++/9.2.0/bits/char_traits.h ****       typedef mbstate_t         state_type;
 297:/usr/include/c++/9.2.0/bits/char_traits.h **** 
 298:/usr/include/c++/9.2.0/bits/char_traits.h ****       static _GLIBCXX17_CONSTEXPR void
 299:/usr/include/c++/9.2.0/bits/char_traits.h ****       assign(char_type& __c1, const char_type& __c2) _GLIBCXX_NOEXCEPT
 300:/usr/include/c++/9.2.0/bits/char_traits.h ****       { __c1 = __c2; }
 301:/usr/include/c++/9.2.0/bits/char_traits.h **** 
 302:/usr/include/c++/9.2.0/bits/char_traits.h ****       static _GLIBCXX_CONSTEXPR bool
 303:/usr/include/c++/9.2.0/bits/char_traits.h ****       eq(const char_type& __c1, const char_type& __c2) _GLIBCXX_NOEXCEPT
 304:/usr/include/c++/9.2.0/bits/char_traits.h ****       { return __c1 == __c2; }
 305:/usr/include/c++/9.2.0/bits/char_traits.h **** 
 306:/usr/include/c++/9.2.0/bits/char_traits.h ****       static _GLIBCXX_CONSTEXPR bool
 307:/usr/include/c++/9.2.0/bits/char_traits.h ****       lt(const char_type& __c1, const char_type& __c2) _GLIBCXX_NOEXCEPT
 308:/usr/include/c++/9.2.0/bits/char_traits.h ****       {
 309:/usr/include/c++/9.2.0/bits/char_traits.h **** 	// LWG 467.
 310:/usr/include/c++/9.2.0/bits/char_traits.h **** 	return (static_cast<unsigned char>(__c1)
 311:/usr/include/c++/9.2.0/bits/char_traits.h **** 		< static_cast<unsigned char>(__c2));
 312:/usr/include/c++/9.2.0/bits/char_traits.h ****       }
 313:/usr/include/c++/9.2.0/bits/char_traits.h **** 
GAS LISTING /tmp/ccBuC8w2.s 			page 35


 314:/usr/include/c++/9.2.0/bits/char_traits.h ****       static _GLIBCXX17_CONSTEXPR int
 315:/usr/include/c++/9.2.0/bits/char_traits.h ****       compare(const char_type* __s1, const char_type* __s2, size_t __n)
 316:/usr/include/c++/9.2.0/bits/char_traits.h ****       {
 317:/usr/include/c++/9.2.0/bits/char_traits.h **** 	if (__n == 0)
 318:/usr/include/c++/9.2.0/bits/char_traits.h **** 	  return 0;
 319:/usr/include/c++/9.2.0/bits/char_traits.h **** #if __cplusplus >= 201703L
 320:/usr/include/c++/9.2.0/bits/char_traits.h **** 	if (__builtin_constant_p(__n)
 321:/usr/include/c++/9.2.0/bits/char_traits.h **** 	    && __constant_char_array_p(__s1, __n)
 322:/usr/include/c++/9.2.0/bits/char_traits.h **** 	    && __constant_char_array_p(__s2, __n))
 323:/usr/include/c++/9.2.0/bits/char_traits.h **** 	  return __gnu_cxx::char_traits<char_type>::compare(__s1, __s2, __n);
 324:/usr/include/c++/9.2.0/bits/char_traits.h **** #endif
 325:/usr/include/c++/9.2.0/bits/char_traits.h **** 	return __builtin_memcmp(__s1, __s2, __n);
 326:/usr/include/c++/9.2.0/bits/char_traits.h ****       }
 327:/usr/include/c++/9.2.0/bits/char_traits.h **** 
 328:/usr/include/c++/9.2.0/bits/char_traits.h ****       static _GLIBCXX17_CONSTEXPR size_t
 329:/usr/include/c++/9.2.0/bits/char_traits.h ****       length(const char_type* __s)
 330:/usr/include/c++/9.2.0/bits/char_traits.h ****       {
 331:/usr/include/c++/9.2.0/bits/char_traits.h **** #if __cplusplus >= 201703L
 332:/usr/include/c++/9.2.0/bits/char_traits.h **** 	if (__constant_string_p(__s))
 333:/usr/include/c++/9.2.0/bits/char_traits.h **** 	  return __gnu_cxx::char_traits<char_type>::length(__s);
 334:/usr/include/c++/9.2.0/bits/char_traits.h **** #endif
 335:/usr/include/c++/9.2.0/bits/char_traits.h **** 	return __builtin_strlen(__s);
 520              		.loc 4 335 2 is_stmt 1 view .LVU146
 521              	.LBB31:
 522              	.LBB30:
 566:/usr/include/c++/9.2.0/ostream ****     {
 567:/usr/include/c++/9.2.0/ostream ****       if (!__s)
 568:/usr/include/c++/9.2.0/ostream **** 	__out.setstate(ios_base::badbit);
 569:/usr/include/c++/9.2.0/ostream ****       else
 570:/usr/include/c++/9.2.0/ostream **** 	__ostream_insert(__out, __s,
 523              		.loc 3 570 18 is_stmt 0 view .LVU147
 524 01e2 BA110000 		movl	$17, %edx
 524      00
 525 01e7 488D3500 		leaq	.LC0(%rip), %rsi
 525      000000
 526 01ee 488D3D00 		leaq	_ZSt4cerr(%rip), %rdi
 526      000000
 527 01f5 E8000000 		call	_ZSt16__ostream_insertIcSt11char_traitsIcEERSt13basic_ostreamIT_T0_ES6_PKS3_l@PLT
 527      00
 528              	.LVL55:
 571:/usr/include/c++/9.2.0/ostream **** 			 static_cast<streamsize>(_Traits::length(__s)));
 572:/usr/include/c++/9.2.0/ostream ****       return __out;
 529              		.loc 3 572 14 view .LVU148
 530 01fa EB05     		jmp	.L35
 531              	.LVL56:
 532              	.L38:
 533              		.loc 3 572 14 view .LVU149
 534              	.LBE30:
 535              	.LBE31:
  89:Src/translator.cpp **** 
 536              		.loc 1 89 20 view .LVU150
 537 01fc BD650000 		movl	$101, %ebp
 537      00
 538              	.LVL57:
 539              	.L35:
 104:Src/translator.cpp **** 
 540              		.loc 1 104 5 view .LVU151
GAS LISTING /tmp/ccBuC8w2.s 			page 36


 541 0201 89E8     		movl	%ebp, %eax
 542 0203 4883C408 		addq	$8, %rsp
 543              		.cfi_remember_state
 544              		.cfi_def_cfa_offset 40
 545 0207 5B       		popq	%rbx
 546              		.cfi_def_cfa_offset 32
 547              	.LVL58:
 104:Src/translator.cpp **** 
 548              		.loc 1 104 5 view .LVU152
 549 0208 5D       		popq	%rbp
 550              		.cfi_def_cfa_offset 24
 551 0209 415C     		popq	%r12
 552              		.cfi_def_cfa_offset 16
 553              	.LVL59:
 104:Src/translator.cpp **** 
 554              		.loc 1 104 5 view .LVU153
 555 020b 415D     		popq	%r13
 556              		.cfi_def_cfa_offset 8
 557 020d C3       		ret
 558              	.LVL60:
 559              	.L40:
 560              		.cfi_restore_state
  97:Src/translator.cpp **** 
 561              		.loc 1 97 20 view .LVU154
 562 020e BD660000 		movl	$102, %ebp
 562      00
 563              	.LVL61:
  97:Src/translator.cpp **** 
 564              		.loc 1 97 20 view .LVU155
 565 0213 EBEC     		jmp	.L35
 566              		.cfi_endproc
 567              	.LFE1506:
 569              		.globl	_ZN10translator8parseCmdEPh
 571              	_ZN10translator8parseCmdEPh:
 572              	.LVL62:
 573              	.LFB1507:
 107:Src/translator.cpp ****         uint8_t var = getType(package);
 574              		.loc 1 107 5 is_stmt 1 view -0
 575              		.cfi_startproc
 107:Src/translator.cpp ****         uint8_t var = getType(package);
 576              		.loc 1 107 5 is_stmt 0 view .LVU157
 577 0215 55       		pushq	%rbp
 578              		.cfi_def_cfa_offset 16
 579              		.cfi_offset 6, -16
 580 0216 53       		pushq	%rbx
 581              		.cfi_def_cfa_offset 24
 582              		.cfi_offset 3, -24
 583 0217 4889FB   		movq	%rdi, %rbx
 108:Src/translator.cpp ****         if(var != TYPE_CMD)
 584              		.loc 1 108 9 is_stmt 1 view .LVU158
 108:Src/translator.cpp ****         if(var != TYPE_CMD)
 585              		.loc 1 108 30 is_stmt 0 view .LVU159
 586 021a E8000000 		call	_ZN10translator7getTypeEPKh
 586      00
 587              	.LVL63:
 109:Src/translator.cpp ****             return ~0;
 588              		.loc 1 109 9 is_stmt 1 view .LVU160
GAS LISTING /tmp/ccBuC8w2.s 			page 37


 589 021f 3C01     		cmpb	$1, %al
 590 0221 7532     		jne	.L45
 112:Src/translator.cpp ****         if(var != 1)
 591              		.loc 1 112 9 view .LVU161
 112:Src/translator.cpp ****         if(var != 1)
 592              		.loc 1 112 21 is_stmt 0 view .LVU162
 593 0223 4889DF   		movq	%rbx, %rdi
 594 0226 E8000000 		call	_ZN10translator6getLenEPKh
 594      00
 595              	.LVL64:
 113:Src/translator.cpp ****             return ~0;
 596              		.loc 1 113 9 is_stmt 1 view .LVU163
 597 022b 3C01     		cmpb	$1, %al
 598 022d 7409     		je	.L49
 114:Src/translator.cpp **** 
 599              		.loc 1 114 21 is_stmt 0 view .LVU164
 600 022f 48C7C0FF 		movq	$-1, %rax
 600      FFFFFF
 601              	.LVL65:
 114:Src/translator.cpp **** 
 602              		.loc 1 114 21 view .LVU165
 603 0236 EB24     		jmp	.L43
 604              	.LVL66:
 605              	.L49:
 116:Src/translator.cpp ****         if(check != getCheckSum(package))
 606              		.loc 1 116 9 is_stmt 1 view .LVU166
 116:Src/translator.cpp ****         if(check != getCheckSum(package))
 607              		.loc 1 116 39 is_stmt 0 view .LVU167
 608 0238 4889DF   		movq	%rbx, %rdi
 609 023b E8000000 		call	_ZN10translator11genCheckSumEPKh
 609      00
 610              	.LVL67:
 116:Src/translator.cpp ****         if(check != getCheckSum(package))
 611              		.loc 1 116 39 view .LVU168
 612 0240 89C5     		movl	%eax, %ebp
 613              	.LVL68:
 117:Src/translator.cpp ****             return ~0;
 614              		.loc 1 117 9 is_stmt 1 view .LVU169
 117:Src/translator.cpp ****             return ~0;
 615              		.loc 1 117 32 is_stmt 0 view .LVU170
 616 0242 4889DF   		movq	%rbx, %rdi
 617 0245 E8000000 		call	_ZN10translator11getCheckSumEPKh
 617      00
 618              	.LVL69:
 117:Src/translator.cpp ****             return ~0;
 619              		.loc 1 117 9 view .LVU171
 620 024a 6639E8   		cmpw	%bp, %ax
 621 024d 7510     		jne	.L47
 119:Src/translator.cpp ****     }
 622              		.loc 1 119 9 is_stmt 1 view .LVU172
 119:Src/translator.cpp ****     }
 623              		.loc 1 119 31 is_stmt 0 view .LVU173
 624 024f 0FB64303 		movzbl	3(%rbx), %eax
 625 0253 EB07     		jmp	.L43
 626              	.LVL70:
 627              	.L45:
 110:Src/translator.cpp **** 
GAS LISTING /tmp/ccBuC8w2.s 			page 38


 628              		.loc 1 110 21 view .LVU174
 629 0255 48C7C0FF 		movq	$-1, %rax
 629      FFFFFF
 630              	.LVL71:
 631              	.L43:
 120:Src/translator.cpp **** 
 632              		.loc 1 120 5 view .LVU175
 633 025c 5B       		popq	%rbx
 634              		.cfi_remember_state
 635              		.cfi_def_cfa_offset 16
 636              	.LVL72:
 120:Src/translator.cpp **** 
 637              		.loc 1 120 5 view .LVU176
 638 025d 5D       		popq	%rbp
 639              		.cfi_def_cfa_offset 8
 640 025e C3       		ret
 641              	.LVL73:
 642              	.L47:
 643              		.cfi_restore_state
 118:Src/translator.cpp ****         return package[SYS_LEN];
 644              		.loc 1 118 21 view .LVU177
 645 025f 48C7C0FF 		movq	$-1, %rax
 645      FFFFFF
 646 0266 EBF4     		jmp	.L43
 647              		.cfi_endproc
 648              	.LFE1507:
 650              		.globl	_ZN10translator11generateCmdEhPh
 652              	_ZN10translator11generateCmdEhPh:
 653              	.LVL74:
 654              	.LFB1512:
 157:Src/translator.cpp ****         tgt[0] = getZeroByte(TYPE_CMD, 1);
 655              		.loc 1 157 5 is_stmt 1 view -0
 656              		.cfi_startproc
 157:Src/translator.cpp ****         tgt[0] = getZeroByte(TYPE_CMD, 1);
 657              		.loc 1 157 5 is_stmt 0 view .LVU179
 658 0268 55       		pushq	%rbp
 659              		.cfi_def_cfa_offset 16
 660              		.cfi_offset 6, -16
 661 0269 53       		pushq	%rbx
 662              		.cfi_def_cfa_offset 24
 663              		.cfi_offset 3, -24
 664 026a 89FD     		movl	%edi, %ebp
 665 026c 4889F3   		movq	%rsi, %rbx
 158:Src/translator.cpp ****         #ifdef USE_MULTIDEVICE
 666              		.loc 1 158 9 is_stmt 1 view .LVU180
 158:Src/translator.cpp ****         #ifdef USE_MULTIDEVICE
 667              		.loc 1 158 29 is_stmt 0 view .LVU181
 668 026f BE010000 		movl	$1, %esi
 668      00
 669              	.LVL75:
 158:Src/translator.cpp ****         #ifdef USE_MULTIDEVICE
 670              		.loc 1 158 29 view .LVU182
 671 0274 BF010000 		movl	$1, %edi
 671      00
 672              	.LVL76:
 158:Src/translator.cpp ****         #ifdef USE_MULTIDEVICE
 673              		.loc 1 158 29 view .LVU183
GAS LISTING /tmp/ccBuC8w2.s 			page 39


 674 0279 E8000000 		call	_ZN10translator11getZeroByteEhh
 674      00
 675              	.LVL77:
 158:Src/translator.cpp ****         #ifdef USE_MULTIDEVICE
 676              		.loc 1 158 16 view .LVU184
 677 027e 8803     		movb	%al, (%rbx)
 162:Src/translator.cpp ****         checksum_t check = genCheckSum(tgt);
 678              		.loc 1 162 9 is_stmt 1 view .LVU185
 162:Src/translator.cpp ****         checksum_t check = genCheckSum(tgt);
 679              		.loc 1 162 22 is_stmt 0 view .LVU186
 680 0280 40886B03 		movb	%bpl, 3(%rbx)
 163:Src/translator.cpp ****         tgt[1] = check >> 8;
 681              		.loc 1 163 9 is_stmt 1 view .LVU187
 163:Src/translator.cpp ****         tgt[1] = check >> 8;
 682              		.loc 1 163 39 is_stmt 0 view .LVU188
 683 0284 4889DF   		movq	%rbx, %rdi
 684 0287 E8000000 		call	_ZN10translator11genCheckSumEPKh
 684      00
 685              	.LVL78:
 164:Src/translator.cpp ****         tgt[2] = check & 0xFF;
 686              		.loc 1 164 9 is_stmt 1 view .LVU189
 164:Src/translator.cpp ****         tgt[2] = check & 0xFF;
 687              		.loc 1 164 24 is_stmt 0 view .LVU190
 688 028c 0FB6D4   		movzbl	%ah, %edx
 164:Src/translator.cpp ****         tgt[2] = check & 0xFF;
 689              		.loc 1 164 16 view .LVU191
 690 028f 885301   		movb	%dl, 1(%rbx)
 165:Src/translator.cpp ****     }
 691              		.loc 1 165 9 is_stmt 1 view .LVU192
 165:Src/translator.cpp ****     }
 692              		.loc 1 165 16 is_stmt 0 view .LVU193
 693 0292 884302   		movb	%al, 2(%rbx)
 166:Src/translator.cpp **** 
 694              		.loc 1 166 5 view .LVU194
 695 0295 5B       		popq	%rbx
 696              		.cfi_def_cfa_offset 16
 697              	.LVL79:
 166:Src/translator.cpp **** 
 698              		.loc 1 166 5 view .LVU195
 699 0296 5D       		popq	%rbp
 700              		.cfi_def_cfa_offset 8
 701 0297 C3       		ret
 702              		.cfi_endproc
 703              	.LFE1512:
 705              		.globl	_ZN10translator8validateEPKh
 707              	_ZN10translator8validateEPKh:
 708              	.LVL80:
 709              	.LFB1513:
 171:Src/translator.cpp ****         uint8_t type = getType(package);
 710              		.loc 1 171 5 is_stmt 1 view -0
 711              		.cfi_startproc
 171:Src/translator.cpp ****         uint8_t type = getType(package);
 712              		.loc 1 171 5 is_stmt 0 view .LVU197
 713 0298 55       		pushq	%rbp
 714              		.cfi_def_cfa_offset 16
 715              		.cfi_offset 6, -16
 716 0299 53       		pushq	%rbx
GAS LISTING /tmp/ccBuC8w2.s 			page 40


 717              		.cfi_def_cfa_offset 24
 718              		.cfi_offset 3, -24
 719 029a 4889FB   		movq	%rdi, %rbx
 172:Src/translator.cpp ****         switch (type)
 720              		.loc 1 172 9 is_stmt 1 view .LVU198
 172:Src/translator.cpp ****         switch (type)
 721              		.loc 1 172 31 is_stmt 0 view .LVU199
 722 029d E8000000 		call	_ZN10translator7getTypeEPKh
 722      00
 723              	.LVL81:
 173:Src/translator.cpp ****         {
 724              		.loc 1 173 9 is_stmt 1 view .LVU200
 725 02a2 3C01     		cmpb	$1, %al
 726 02a4 7432     		je	.L53
 727 02a6 84C0     		testb	%al, %al
 728 02a8 7441     		je	.L57
 729 02aa 83E802   		subl	$2, %eax
 730              	.LVL82:
 173:Src/translator.cpp ****         {
 731              		.loc 1 173 9 is_stmt 0 view .LVU201
 732 02ad 3C01     		cmpb	$1, %al
 733 02af 7741     		ja	.L63
 181:Src/translator.cpp ****             case TYPE_ARR:
 734              		.loc 1 181 13 is_stmt 1 view .LVU202
 182:Src/translator.cpp ****             {
 735              		.loc 1 182 13 view .LVU203
 183:Src/translator.cpp ****                 if(getLen(package) <= 1)
 736              		.loc 1 183 13 view .LVU204
 184:Src/translator.cpp ****                     return false;
 737              		.loc 1 184 17 view .LVU205
 184:Src/translator.cpp ****                     return false;
 738              		.loc 1 184 26 is_stmt 0 view .LVU206
 739 02b1 4889DF   		movq	%rbx, %rdi
 740 02b4 E8000000 		call	_ZN10translator6getLenEPKh
 740      00
 741              	.LVL83:
 184:Src/translator.cpp ****                     return false;
 742              		.loc 1 184 17 view .LVU207
 743 02b9 3C01     		cmpb	$1, %al
 744 02bb 763C     		jbe	.L60
 745              	.L56:
 191:Src/translator.cpp ****     }
 746              		.loc 1 191 9 is_stmt 1 view .LVU208
 191:Src/translator.cpp ****     }
 747              		.loc 1 191 28 is_stmt 0 view .LVU209
 748 02bd 4889DF   		movq	%rbx, %rdi
 749 02c0 E8000000 		call	_ZN10translator11getCheckSumEPKh
 749      00
 750              	.LVL84:
 751 02c5 89C5     		movl	%eax, %ebp
 191:Src/translator.cpp ****     }
 752              		.loc 1 191 52 view .LVU210
 753 02c7 4889DF   		movq	%rbx, %rdi
 754 02ca E8000000 		call	_ZN10translator11genCheckSumEPKh
 754      00
 755              	.LVL85:
 191:Src/translator.cpp ****     }
GAS LISTING /tmp/ccBuC8w2.s 			page 41


 756              		.loc 1 191 61 view .LVU211
 757 02cf 6639C5   		cmpw	%ax, %bp
 758 02d2 0F94C0   		sete	%al
 759              	.L52:
 192:Src/translator.cpp **** 
 760              		.loc 1 192 5 view .LVU212
 761 02d5 5B       		popq	%rbx
 762              		.cfi_remember_state
 763              		.cfi_def_cfa_offset 16
 764              	.LVL86:
 192:Src/translator.cpp **** 
 765              		.loc 1 192 5 view .LVU213
 766 02d6 5D       		popq	%rbp
 767              		.cfi_def_cfa_offset 8
 768 02d7 C3       		ret
 769              	.LVL87:
 770              	.L53:
 771              		.cfi_restore_state
 175:Src/translator.cpp ****             {
 772              		.loc 1 175 13 is_stmt 1 view .LVU214
 176:Src/translator.cpp ****                 if(getLen(package) != 1)
 773              		.loc 1 176 13 view .LVU215
 177:Src/translator.cpp ****                     return false;
 774              		.loc 1 177 17 view .LVU216
 177:Src/translator.cpp ****                     return false;
 775              		.loc 1 177 26 is_stmt 0 view .LVU217
 776 02d8 4889DF   		movq	%rbx, %rdi
 777 02db E8000000 		call	_ZN10translator6getLenEPKh
 777      00
 778              	.LVL88:
 177:Src/translator.cpp ****                     return false;
 779              		.loc 1 177 17 view .LVU218
 780 02e0 3C01     		cmpb	$1, %al
 781 02e2 74D9     		je	.L56
 178:Src/translator.cpp ****                 break;
 782              		.loc 1 178 28 view .LVU219
 783 02e4 B8000000 		movl	$0, %eax
 783      00
 784 02e9 EBEA     		jmp	.L52
 785              	.LVL89:
 786              	.L57:
 173:Src/translator.cpp ****         {
 787              		.loc 1 173 9 view .LVU220
 788 02eb B8000000 		movl	$0, %eax
 788      00
 789              	.LVL90:
 173:Src/translator.cpp ****         {
 790              		.loc 1 173 9 view .LVU221
 791 02f0 EBE3     		jmp	.L52
 792              	.L63:
 793 02f2 B8000000 		movl	$0, %eax
 793      00
 794 02f7 EBDC     		jmp	.L52
 795              	.L60:
 185:Src/translator.cpp ****                 break;
 796              		.loc 1 185 28 view .LVU222
 797 02f9 B8000000 		movl	$0, %eax
GAS LISTING /tmp/ccBuC8w2.s 			page 42


 797      00
 798 02fe EBD5     		jmp	.L52
 799              		.cfi_endproc
 800              	.LFE1513:
 802              		.globl	_ZN10translator11generateVarEhhPKhPh
 804              	_ZN10translator11generateVarEhhPKhPh:
 805              	.LVL91:
 806              	.LFB1514:
 196:Src/translator.cpp ****         tgt[0] = getZeroByte(TYPE_VAR, varlen + 1);
 807              		.loc 1 196 5 is_stmt 1 view -0
 808              		.cfi_startproc
 196:Src/translator.cpp ****         tgt[0] = getZeroByte(TYPE_VAR, varlen + 1);
 809              		.loc 1 196 5 is_stmt 0 view .LVU224
 810 0300 4155     		pushq	%r13
 811              		.cfi_def_cfa_offset 16
 812              		.cfi_offset 13, -16
 813 0302 4154     		pushq	%r12
 814              		.cfi_def_cfa_offset 24
 815              		.cfi_offset 12, -24
 816 0304 55       		pushq	%rbp
 817              		.cfi_def_cfa_offset 32
 818              		.cfi_offset 6, -32
 819 0305 53       		pushq	%rbx
 820              		.cfi_def_cfa_offset 40
 821              		.cfi_offset 3, -40
 822 0306 4189FD   		movl	%edi, %r13d
 823 0309 4989D4   		movq	%rdx, %r12
 824 030c 4889CD   		movq	%rcx, %rbp
 825 030f 89F3     		movl	%esi, %ebx
 197:Src/translator.cpp ****         tgt[SYS_LEN] = id;
 826              		.loc 1 197 9 is_stmt 1 view .LVU225
 197:Src/translator.cpp ****         tgt[SYS_LEN] = id;
 827              		.loc 1 197 47 is_stmt 0 view .LVU226
 828 0311 83C601   		addl	$1, %esi
 829              	.LVL92:
 197:Src/translator.cpp ****         tgt[SYS_LEN] = id;
 830              		.loc 1 197 29 view .LVU227
 831 0314 400FB6F6 		movzbl	%sil, %esi
 832 0318 BF020000 		movl	$2, %edi
 832      00
 833              	.LVL93:
 197:Src/translator.cpp ****         tgt[SYS_LEN] = id;
 834              		.loc 1 197 29 view .LVU228
 835 031d E8000000 		call	_ZN10translator11getZeroByteEhh
 835      00
 836              	.LVL94:
 197:Src/translator.cpp ****         tgt[SYS_LEN] = id;
 837              		.loc 1 197 16 view .LVU229
 838 0322 884500   		movb	%al, 0(%rbp)
 198:Src/translator.cpp ****         for(uint8_t i = 0; i < varlen; i++)
 839              		.loc 1 198 9 is_stmt 1 view .LVU230
 198:Src/translator.cpp ****         for(uint8_t i = 0; i < varlen; i++)
 840              		.loc 1 198 22 is_stmt 0 view .LVU231
 841 0325 44886D03 		movb	%r13b, 3(%rbp)
 199:Src/translator.cpp ****         {
 842              		.loc 1 199 9 is_stmt 1 view .LVU232
 843              	.LVL95:
GAS LISTING /tmp/ccBuC8w2.s 			page 43


 844              	.LBB32:
 199:Src/translator.cpp ****         {
 845              		.loc 1 199 21 is_stmt 0 view .LVU233
 846 0329 B9000000 		movl	$0, %ecx
 846      00
 847              	.LVL96:
 848              	.L66:
 199:Src/translator.cpp ****         {
 849              		.loc 1 199 30 is_stmt 1 discriminator 3 view .LVU234
 850 032e 38D9     		cmpb	%bl, %cl
 851 0330 731F     		jnb	.L65
 201:Src/translator.cpp ****             // std::cout << "from " << (int)(i) << " to " << (int)(i + 4) << " set 0x" << std::hex 
 852              		.loc 1 201 13 discriminator 2 view .LVU235
 201:Src/translator.cpp ****             // std::cout << "from " << (int)(i) << " to " << (int)(i + 4) << " set 0x" << std::hex 
 853              		.loc 1 201 40 is_stmt 0 discriminator 2 view .LVU236
 854 0332 0FB6C3   		movzbl	%bl, %eax
 201:Src/translator.cpp ****             // std::cout << "from " << (int)(i) << " to " << (int)(i + 4) << " set 0x" << std::hex 
 855              		.loc 1 201 49 discriminator 2 view .LVU237
 856 0335 0FB6D1   		movzbl	%cl, %edx
 201:Src/translator.cpp ****             // std::cout << "from " << (int)(i) << " to " << (int)(i + 4) << " set 0x" << std::hex 
 857              		.loc 1 201 47 discriminator 2 view .LVU238
 858 0338 29D0     		subl	%edx, %eax
 859 033a 4898     		cltq
 201:Src/translator.cpp ****             // std::cout << "from " << (int)(i) << " to " << (int)(i + 4) << " set 0x" << std::hex 
 860              		.loc 1 201 29 discriminator 2 view .LVU239
 861 033c 83C204   		addl	$4, %edx
 862 033f 4863D2   		movslq	%edx, %rdx
 201:Src/translator.cpp ****             // std::cout << "from " << (int)(i) << " to " << (int)(i + 4) << " set 0x" << std::hex 
 863              		.loc 1 201 54 discriminator 2 view .LVU240
 864 0342 410FB644 		movzbl	-1(%r12,%rax), %eax
 864      04FF
 201:Src/translator.cpp ****             // std::cout << "from " << (int)(i) << " to " << (int)(i + 4) << " set 0x" << std::hex 
 865              		.loc 1 201 34 discriminator 2 view .LVU241
 866 0348 88441500 		movb	%al, 0(%rbp,%rdx)
 199:Src/translator.cpp ****         {
 867              		.loc 1 199 9 is_stmt 1 discriminator 2 view .LVU242
 868 034c 83C101   		addl	$1, %ecx
 869              	.LVL97:
 199:Src/translator.cpp ****         {
 870              		.loc 1 199 9 is_stmt 0 discriminator 2 view .LVU243
 871 034f EBDD     		jmp	.L66
 872              	.L65:
 199:Src/translator.cpp ****         {
 873              		.loc 1 199 9 discriminator 2 view .LVU244
 874              	.LBE32:
 209:Src/translator.cpp ****         tgt[1] = check >> 8;
 875              		.loc 1 209 9 is_stmt 1 view .LVU245
 209:Src/translator.cpp ****         tgt[1] = check >> 8;
 876              		.loc 1 209 39 is_stmt 0 view .LVU246
 877 0351 4889EF   		movq	%rbp, %rdi
 878 0354 E8000000 		call	_ZN10translator11genCheckSumEPKh
 878      00
 879              	.LVL98:
 210:Src/translator.cpp ****         tgt[2] = check & 0xFF;
 880              		.loc 1 210 9 is_stmt 1 view .LVU247
 210:Src/translator.cpp ****         tgt[2] = check & 0xFF;
 881              		.loc 1 210 24 is_stmt 0 view .LVU248
GAS LISTING /tmp/ccBuC8w2.s 			page 44


 882 0359 0FB6D4   		movzbl	%ah, %edx
 210:Src/translator.cpp ****         tgt[2] = check & 0xFF;
 883              		.loc 1 210 16 view .LVU249
 884 035c 885501   		movb	%dl, 1(%rbp)
 211:Src/translator.cpp **** 
 885              		.loc 1 211 9 is_stmt 1 view .LVU250
 211:Src/translator.cpp **** 
 886              		.loc 1 211 16 is_stmt 0 view .LVU251
 887 035f 884502   		movb	%al, 2(%rbp)
 213:Src/translator.cpp **** 
 888              		.loc 1 213 5 view .LVU252
 889 0362 5B       		popq	%rbx
 890              		.cfi_def_cfa_offset 32
 891              	.LVL99:
 213:Src/translator.cpp **** 
 892              		.loc 1 213 5 view .LVU253
 893 0363 5D       		popq	%rbp
 894              		.cfi_def_cfa_offset 24
 895              	.LVL100:
 213:Src/translator.cpp **** 
 896              		.loc 1 213 5 view .LVU254
 897 0364 415C     		popq	%r12
 898              		.cfi_def_cfa_offset 16
 899              	.LVL101:
 213:Src/translator.cpp **** 
 900              		.loc 1 213 5 view .LVU255
 901 0366 415D     		popq	%r13
 902              		.cfi_def_cfa_offset 8
 903 0368 C3       		ret
 904              		.cfi_endproc
 905              	.LFE1514:
 907              		.globl	_ZN10translator8parseVarEPhS0_h
 909              	_ZN10translator8parseVarEPhS0_h:
 910              	.LVL102:
 911              	.LFB1515:
 218:Src/translator.cpp ****         uint8_t type = getType(package);
 912              		.loc 1 218 5 is_stmt 1 view -0
 913              		.cfi_startproc
 218:Src/translator.cpp ****         uint8_t type = getType(package);
 914              		.loc 1 218 5 is_stmt 0 view .LVU257
 915 0369 4157     		pushq	%r15
 916              		.cfi_def_cfa_offset 16
 917              		.cfi_offset 15, -16
 918 036b 4156     		pushq	%r14
 919              		.cfi_def_cfa_offset 24
 920              		.cfi_offset 14, -24
 921 036d 4155     		pushq	%r13
 922              		.cfi_def_cfa_offset 32
 923              		.cfi_offset 13, -32
 924 036f 4154     		pushq	%r12
 925              		.cfi_def_cfa_offset 40
 926              		.cfi_offset 12, -40
 927 0371 55       		pushq	%rbp
 928              		.cfi_def_cfa_offset 48
 929              		.cfi_offset 6, -48
 930 0372 53       		pushq	%rbx
 931              		.cfi_def_cfa_offset 56
GAS LISTING /tmp/ccBuC8w2.s 			page 45


 932              		.cfi_offset 3, -56
 933 0373 4889FB   		movq	%rdi, %rbx
 934 0376 4989F4   		movq	%rsi, %r12
 935 0379 4189D5   		movl	%edx, %r13d
 219:Src/translator.cpp ****         if(type != TYPE_VAR)
 936              		.loc 1 219 9 is_stmt 1 view .LVU258
 219:Src/translator.cpp ****         if(type != TYPE_VAR)
 937              		.loc 1 219 31 is_stmt 0 view .LVU259
 938 037c E8000000 		call	_ZN10translator7getTypeEPKh
 938      00
 939              	.LVL103:
 220:Src/translator.cpp ****             return TYPE_BAD_TYPE;
 940              		.loc 1 220 9 is_stmt 1 view .LVU260
 941 0381 3C02     		cmpb	$2, %al
 942 0383 7564     		jne	.L71
 943 0385 89C5     		movl	%eax, %ebp
 222:Src/translator.cpp ****         if(len < 2)
 944              		.loc 1 222 9 view .LVU261
 222:Src/translator.cpp ****         if(len < 2)
 945              		.loc 1 222 29 is_stmt 0 view .LVU262
 946 0387 4889DF   		movq	%rbx, %rdi
 947 038a E8000000 		call	_ZN10translator6getLenEPKh
 947      00
 948              	.LVL104:
 222:Src/translator.cpp ****         if(len < 2)
 949              		.loc 1 222 29 view .LVU263
 950 038f 4189C6   		movl	%eax, %r14d
 951              	.LVL105:
 223:Src/translator.cpp ****             return TYPE_BAD_LEN;
 952              		.loc 1 223 9 is_stmt 1 view .LVU264
 953 0392 3C01     		cmpb	$1, %al
 954 0394 7665     		jbe	.L72
 225:Src/translator.cpp ****                     thischeck = getCheckSum(package);
 955              		.loc 1 225 9 view .LVU265
 225:Src/translator.cpp ****                     thischeck = getCheckSum(package);
 956              		.loc 1 225 40 is_stmt 0 view .LVU266
 957 0396 4889DF   		movq	%rbx, %rdi
 958 0399 E8000000 		call	_ZN10translator11genCheckSumEPKh
 958      00
 959              	.LVL106:
 225:Src/translator.cpp ****                     thischeck = getCheckSum(package);
 960              		.loc 1 225 40 view .LVU267
 961 039e 4189C7   		movl	%eax, %r15d
 962              	.LVL107:
 226:Src/translator.cpp ****         if(check != thischeck)
 963              		.loc 1 226 44 view .LVU268
 964 03a1 4889DF   		movq	%rbx, %rdi
 965 03a4 E8000000 		call	_ZN10translator11getCheckSumEPKh
 965      00
 966              	.LVL108:
 227:Src/translator.cpp ****             return TYPE_BAD_CHECKSUM;
 967              		.loc 1 227 9 is_stmt 1 view .LVU269
 968 03a9 664139C7 		cmpw	%ax, %r15w
 969 03ad 7553     		jne	.L73
 230:Src/translator.cpp ****         for(uint8_t i = 0; i < len - 1; i++)
 970              		.loc 1 230 9 view .LVU270
 230:Src/translator.cpp ****         for(uint8_t i = 0; i < len - 1; i++)
GAS LISTING /tmp/ccBuC8w2.s 			page 46


 971              		.loc 1 230 17 is_stmt 0 view .LVU271
 972 03af 0FB67303 		movzbl	3(%rbx), %esi
 973              	.LVL109:
 231:Src/translator.cpp ****         {
 974              		.loc 1 231 9 is_stmt 1 view .LVU272
 975              	.LBB33:
 231:Src/translator.cpp ****         {
 976              		.loc 1 231 21 is_stmt 0 view .LVU273
 977 03b3 B9000000 		movl	$0, %ecx
 977      00
 978              	.LVL110:
 979              	.L70:
 231:Src/translator.cpp ****         {
 980              		.loc 1 231 30 is_stmt 1 discriminator 3 view .LVU274
 231:Src/translator.cpp ****         {
 981              		.loc 1 231 28 is_stmt 0 discriminator 3 view .LVU275
 982 03b8 0FB6C1   		movzbl	%cl, %eax
 231:Src/translator.cpp ****         {
 983              		.loc 1 231 32 discriminator 3 view .LVU276
 984 03bb 410FB6D6 		movzbl	%r14b, %edx
 231:Src/translator.cpp ****         {
 985              		.loc 1 231 36 discriminator 3 view .LVU277
 986 03bf 83EA01   		subl	$1, %edx
 231:Src/translator.cpp ****         {
 987              		.loc 1 231 30 discriminator 3 view .LVU278
 988 03c2 39D0     		cmpl	%edx, %eax
 989 03c4 7D28     		jge	.L68
 233:Src/translator.cpp ****         }
 990              		.loc 1 233 13 is_stmt 1 discriminator 2 view .LVU279
 233:Src/translator.cpp ****         }
 991              		.loc 1 233 50 is_stmt 0 discriminator 2 view .LVU280
 992 03c6 8D5003   		leal	3(%rax), %edx
 993 03c9 4863D2   		movslq	%edx, %rdx
 233:Src/translator.cpp ****         }
 994              		.loc 1 233 20 discriminator 2 view .LVU281
 995 03cc 400FB6FE 		movzbl	%sil, %edi
 233:Src/translator.cpp ****         }
 996              		.loc 1 233 23 discriminator 2 view .LVU282
 997 03d0 01F8     		addl	%edi, %eax
 233:Src/translator.cpp ****         }
 998              		.loc 1 233 30 discriminator 2 view .LVU283
 999 03d2 410FB6FD 		movzbl	%r13b, %edi
 233:Src/translator.cpp ****         }
 1000              		.loc 1 233 28 discriminator 2 view .LVU284
 1001 03d6 0FAFC7   		imull	%edi, %eax
 1002 03d9 4898     		cltq
 233:Src/translator.cpp ****         }
 1003              		.loc 1 233 63 discriminator 2 view .LVU285
 1004 03db 0FB65413 		movzbl	1(%rbx,%rdx), %edx
 1004      01
 233:Src/translator.cpp ****         }
 1005              		.loc 1 233 38 discriminator 2 view .LVU286
 1006 03e0 41881404 		movb	%dl, (%r12,%rax)
 231:Src/translator.cpp ****         {
 1007              		.loc 1 231 9 is_stmt 1 discriminator 2 view .LVU287
 1008 03e4 83C101   		addl	$1, %ecx
 1009              	.LVL111:
GAS LISTING /tmp/ccBuC8w2.s 			page 47


 231:Src/translator.cpp ****         {
 1010              		.loc 1 231 9 is_stmt 0 discriminator 2 view .LVU288
 1011 03e7 EBCF     		jmp	.L70
 1012              	.LVL112:
 1013              	.L71:
 231:Src/translator.cpp ****         {
 1014              		.loc 1 231 9 discriminator 2 view .LVU289
 1015              	.LBE33:
 221:Src/translator.cpp ****         uint8_t len = getLen(package);
 1016              		.loc 1 221 20 view .LVU290
 1017 03e9 BD650000 		movl	$101, %ebp
 1017      00
 1018              	.LVL113:
 1019              	.L68:
 236:Src/translator.cpp ****     
 1020              		.loc 1 236 5 view .LVU291
 1021 03ee 89E8     		movl	%ebp, %eax
 1022 03f0 5B       		popq	%rbx
 1023              		.cfi_remember_state
 1024              		.cfi_def_cfa_offset 48
 1025              	.LVL114:
 236:Src/translator.cpp ****     
 1026              		.loc 1 236 5 view .LVU292
 1027 03f1 5D       		popq	%rbp
 1028              		.cfi_def_cfa_offset 40
 1029 03f2 415C     		popq	%r12
 1030              		.cfi_def_cfa_offset 32
 1031              	.LVL115:
 236:Src/translator.cpp ****     
 1032              		.loc 1 236 5 view .LVU293
 1033 03f4 415D     		popq	%r13
 1034              		.cfi_def_cfa_offset 24
 1035              	.LVL116:
 236:Src/translator.cpp ****     
 1036              		.loc 1 236 5 view .LVU294
 1037 03f6 415E     		popq	%r14
 1038              		.cfi_def_cfa_offset 16
 1039 03f8 415F     		popq	%r15
 1040              		.cfi_def_cfa_offset 8
 1041 03fa C3       		ret
 1042              	.LVL117:
 1043              	.L72:
 1044              		.cfi_restore_state
 224:Src/translator.cpp ****         checksum_t  check = genCheckSum(package),
 1045              		.loc 1 224 20 view .LVU295
 1046 03fb BD640000 		movl	$100, %ebp
 1046      00
 1047              	.LVL118:
 224:Src/translator.cpp ****         checksum_t  check = genCheckSum(package),
 1048              		.loc 1 224 20 view .LVU296
 1049 0400 EBEC     		jmp	.L68
 1050              	.LVL119:
 1051              	.L73:
 228:Src/translator.cpp **** 
 1052              		.loc 1 228 20 view .LVU297
 1053 0402 BD660000 		movl	$102, %ebp
 1053      00
GAS LISTING /tmp/ccBuC8w2.s 			page 48


 1054              	.LVL120:
 228:Src/translator.cpp **** 
 1055              		.loc 1 228 20 view .LVU298
 1056 0407 EBE5     		jmp	.L68
 1057              		.cfi_endproc
 1058              	.LFE1515:
 1060              		.globl	_ZN10translator11generateArrEhhhPKhPh
 1062              	_ZN10translator11generateArrEhhhPKhPh:
 1063              	.LVL121:
 1064              	.LFB1516:
 241:Src/translator.cpp ****         tgt[0] = getZeroByte(TYPE_ARR, (arrlen * elsize) + 1);
 1065              		.loc 1 241 5 is_stmt 1 view -0
 1066              		.cfi_startproc
 241:Src/translator.cpp ****         tgt[0] = getZeroByte(TYPE_ARR, (arrlen * elsize) + 1);
 1067              		.loc 1 241 5 is_stmt 0 view .LVU300
 1068 0409 4156     		pushq	%r14
 1069              		.cfi_def_cfa_offset 16
 1070              		.cfi_offset 14, -16
 1071 040b 4155     		pushq	%r13
 1072              		.cfi_def_cfa_offset 24
 1073              		.cfi_offset 13, -24
 1074 040d 4154     		pushq	%r12
 1075              		.cfi_def_cfa_offset 32
 1076              		.cfi_offset 12, -32
 1077 040f 55       		pushq	%rbp
 1078              		.cfi_def_cfa_offset 40
 1079              		.cfi_offset 6, -40
 1080 0410 53       		pushq	%rbx
 1081              		.cfi_def_cfa_offset 48
 1082              		.cfi_offset 3, -48
 1083 0411 4189FE   		movl	%edi, %r14d
 1084 0414 89D0     		movl	%edx, %eax
 1085 0416 4989CC   		movq	%rcx, %r12
 1086 0419 4C89C5   		movq	%r8, %rbp
 1087 041c 4189F5   		movl	%esi, %r13d
 1088 041f 89D3     		movl	%edx, %ebx
 242:Src/translator.cpp ****         tgt[SYS_LEN] = id;
 1089              		.loc 1 242 9 is_stmt 1 view .LVU301
 242:Src/translator.cpp ****         tgt[SYS_LEN] = id;
 1090              		.loc 1 242 48 is_stmt 0 view .LVU302
 1091 0421 0FAFC6   		imull	%esi, %eax
 242:Src/translator.cpp ****         tgt[SYS_LEN] = id;
 1092              		.loc 1 242 58 view .LVU303
 1093 0424 8D7001   		leal	1(%rax), %esi
 1094              	.LVL122:
 242:Src/translator.cpp ****         tgt[SYS_LEN] = id;
 1095              		.loc 1 242 29 view .LVU304
 1096 0427 400FB6F6 		movzbl	%sil, %esi
 1097 042b BF030000 		movl	$3, %edi
 1097      00
 1098              	.LVL123:
 242:Src/translator.cpp ****         tgt[SYS_LEN] = id;
 1099              		.loc 1 242 29 view .LVU305
 1100 0430 E8000000 		call	_ZN10translator11getZeroByteEhh
 1100      00
 1101              	.LVL124:
 242:Src/translator.cpp ****         tgt[SYS_LEN] = id;
GAS LISTING /tmp/ccBuC8w2.s 			page 49


 1102              		.loc 1 242 16 view .LVU306
 1103 0435 884500   		movb	%al, 0(%rbp)
 243:Src/translator.cpp ****         for(uint8_t i = 0; i < arrlen; i++)
 1104              		.loc 1 243 9 is_stmt 1 view .LVU307
 243:Src/translator.cpp ****         for(uint8_t i = 0; i < arrlen; i++)
 1105              		.loc 1 243 22 is_stmt 0 view .LVU308
 1106 0438 44887503 		movb	%r14b, 3(%rbp)
 244:Src/translator.cpp ****         {
 1107              		.loc 1 244 9 is_stmt 1 view .LVU309
 1108              	.LVL125:
 1109              	.LBB34:
 244:Src/translator.cpp ****         {
 1110              		.loc 1 244 21 is_stmt 0 view .LVU310
 1111 043c BE000000 		movl	$0, %esi
 1111      00
 1112 0441 EB03     		jmp	.L79
 1113              	.LVL126:
 1114              	.L77:
 244:Src/translator.cpp ****         {
 1115              		.loc 1 244 9 is_stmt 1 discriminator 2 view .LVU311
 1116 0443 83C601   		addl	$1, %esi
 1117              	.LVL127:
 1118              	.L79:
 244:Src/translator.cpp ****         {
 1119              		.loc 1 244 30 discriminator 1 view .LVU312
 1120 0446 4438EE   		cmpb	%r13b, %sil
 1121 0449 7333     		jnb	.L76
 1122              	.LBB35:
 246:Src/translator.cpp ****             {
 1123              		.loc 1 246 25 is_stmt 0 view .LVU313
 1124 044b B9000000 		movl	$0, %ecx
 1124      00
 1125              	.L78:
 1126              	.LVL128:
 246:Src/translator.cpp ****             {
 1127              		.loc 1 246 34 is_stmt 1 discriminator 3 view .LVU314
 1128 0450 38D9     		cmpb	%bl, %cl
 1129 0452 73EF     		jnb	.L77
 248:Src/translator.cpp ****             }
 1130              		.loc 1 248 17 discriminator 2 view .LVU315
 248:Src/translator.cpp ****             }
 1131              		.loc 1 248 60 is_stmt 0 discriminator 2 view .LVU316
 1132 0454 400FB6C6 		movzbl	%sil, %eax
 248:Src/translator.cpp ****             }
 1133              		.loc 1 248 64 discriminator 2 view .LVU317
 1134 0458 0FB6D3   		movzbl	%bl, %edx
 248:Src/translator.cpp ****             }
 1135              		.loc 1 248 62 discriminator 2 view .LVU318
 1136 045b 0FAFC2   		imull	%edx, %eax
 248:Src/translator.cpp ****             }
 1137              		.loc 1 248 84 discriminator 2 view .LVU319
 1138 045e 0FB6F9   		movzbl	%cl, %edi
 248:Src/translator.cpp ****             }
 1139              		.loc 1 248 82 discriminator 2 view .LVU320
 1140 0461 29FA     		subl	%edi, %edx
 248:Src/translator.cpp ****             }
 1141              		.loc 1 248 72 discriminator 2 view .LVU321
GAS LISTING /tmp/ccBuC8w2.s 			page 50


 1142 0463 8D5410FF 		leal	-1(%rax,%rdx), %edx
 1143 0467 4863D2   		movslq	%edx, %rdx
 248:Src/translator.cpp ****             }
 1144              		.loc 1 248 48 discriminator 2 view .LVU322
 1145 046a 8D443804 		leal	4(%rax,%rdi), %eax
 1146 046e 4898     		cltq
 248:Src/translator.cpp ****             }
 1147              		.loc 1 248 90 discriminator 2 view .LVU323
 1148 0470 410FB614 		movzbl	(%r12,%rdx), %edx
 1148      14
 248:Src/translator.cpp ****             }
 1149              		.loc 1 248 53 discriminator 2 view .LVU324
 1150 0475 88540500 		movb	%dl, 0(%rbp,%rax)
 246:Src/translator.cpp ****             {
 1151              		.loc 1 246 13 is_stmt 1 discriminator 2 view .LVU325
 1152 0479 83C101   		addl	$1, %ecx
 1153              	.LVL129:
 246:Src/translator.cpp ****             {
 1154              		.loc 1 246 13 is_stmt 0 discriminator 2 view .LVU326
 1155 047c EBD2     		jmp	.L78
 1156              	.LVL130:
 1157              	.L76:
 246:Src/translator.cpp ****             {
 1158              		.loc 1 246 13 discriminator 2 view .LVU327
 1159              	.LBE35:
 1160              	.LBE34:
 256:Src/translator.cpp ****         tgt[1] = check >> 8;
 1161              		.loc 1 256 9 is_stmt 1 view .LVU328
 256:Src/translator.cpp ****         tgt[1] = check >> 8;
 1162              		.loc 1 256 39 is_stmt 0 view .LVU329
 1163 047e 4889EF   		movq	%rbp, %rdi
 1164 0481 E8000000 		call	_ZN10translator11genCheckSumEPKh
 1164      00
 1165              	.LVL131:
 257:Src/translator.cpp ****         tgt[2] = check & 0xFF;
 1166              		.loc 1 257 9 is_stmt 1 view .LVU330
 257:Src/translator.cpp ****         tgt[2] = check & 0xFF;
 1167              		.loc 1 257 24 is_stmt 0 view .LVU331
 1168 0486 0FB6D4   		movzbl	%ah, %edx
 257:Src/translator.cpp ****         tgt[2] = check & 0xFF;
 1169              		.loc 1 257 16 view .LVU332
 1170 0489 885501   		movb	%dl, 1(%rbp)
 258:Src/translator.cpp ****     }
 1171              		.loc 1 258 9 is_stmt 1 view .LVU333
 258:Src/translator.cpp ****     }
 1172              		.loc 1 258 16 is_stmt 0 view .LVU334
 1173 048c 884502   		movb	%al, 2(%rbp)
 259:Src/translator.cpp ****     
 1174              		.loc 1 259 5 view .LVU335
 1175 048f 5B       		popq	%rbx
 1176              		.cfi_def_cfa_offset 40
 1177              	.LVL132:
 259:Src/translator.cpp ****     
 1178              		.loc 1 259 5 view .LVU336
 1179 0490 5D       		popq	%rbp
 1180              		.cfi_def_cfa_offset 32
 1181              	.LVL133:
GAS LISTING /tmp/ccBuC8w2.s 			page 51


 259:Src/translator.cpp ****     
 1182              		.loc 1 259 5 view .LVU337
 1183 0491 415C     		popq	%r12
 1184              		.cfi_def_cfa_offset 24
 1185              	.LVL134:
 259:Src/translator.cpp ****     
 1186              		.loc 1 259 5 view .LVU338
 1187 0493 415D     		popq	%r13
 1188              		.cfi_def_cfa_offset 16
 1189              	.LVL135:
 259:Src/translator.cpp ****     
 1190              		.loc 1 259 5 view .LVU339
 1191 0495 415E     		popq	%r14
 1192              		.cfi_def_cfa_offset 8
 1193 0497 C3       		ret
 1194              		.cfi_endproc
 1195              	.LFE1516:
 1197              		.globl	_ZN10translator8parseArrEPhPS0_
 1199              	_ZN10translator8parseArrEPhPS0_:
 1200              	.LVL136:
 1201              	.LFB1517:
 264:Src/translator.cpp ****         uint8_t type = getType(package);
 1202              		.loc 1 264 5 is_stmt 1 view -0
 1203              		.cfi_startproc
 264:Src/translator.cpp ****         uint8_t type = getType(package);
 1204              		.loc 1 264 5 is_stmt 0 view .LVU341
 1205 0498 4156     		pushq	%r14
 1206              		.cfi_def_cfa_offset 16
 1207              		.cfi_offset 14, -16
 1208 049a 4155     		pushq	%r13
 1209              		.cfi_def_cfa_offset 24
 1210              		.cfi_offset 13, -24
 1211 049c 4154     		pushq	%r12
 1212              		.cfi_def_cfa_offset 32
 1213              		.cfi_offset 12, -32
 1214 049e 55       		pushq	%rbp
 1215              		.cfi_def_cfa_offset 40
 1216              		.cfi_offset 6, -40
 1217 049f 53       		pushq	%rbx
 1218              		.cfi_def_cfa_offset 48
 1219              		.cfi_offset 3, -48
 1220 04a0 4889FB   		movq	%rdi, %rbx
 1221 04a3 4989F4   		movq	%rsi, %r12
 265:Src/translator.cpp ****         if(type != TYPE_ARR)
 1222              		.loc 1 265 9 is_stmt 1 view .LVU342
 265:Src/translator.cpp ****         if(type != TYPE_ARR)
 1223              		.loc 1 265 31 is_stmt 0 view .LVU343
 1224 04a6 E8000000 		call	_ZN10translator7getTypeEPKh
 1224      00
 1225              	.LVL137:
 266:Src/translator.cpp ****             return TYPE_BAD_TYPE;
 1226              		.loc 1 266 9 is_stmt 1 view .LVU344
 1227 04ab 3C03     		cmpb	$3, %al
 1228 04ad 755C     		jne	.L84
 1229 04af 89C5     		movl	%eax, %ebp
 268:Src/translator.cpp ****         if(len < 2)
 1230              		.loc 1 268 9 view .LVU345
GAS LISTING /tmp/ccBuC8w2.s 			page 52


 268:Src/translator.cpp ****         if(len < 2)
 1231              		.loc 1 268 29 is_stmt 0 view .LVU346
 1232 04b1 4889DF   		movq	%rbx, %rdi
 1233 04b4 E8000000 		call	_ZN10translator6getLenEPKh
 1233      00
 1234              	.LVL138:
 268:Src/translator.cpp ****         if(len < 2)
 1235              		.loc 1 268 29 view .LVU347
 1236 04b9 4189C5   		movl	%eax, %r13d
 1237              	.LVL139:
 269:Src/translator.cpp ****             return TYPE_BAD_LEN;
 1238              		.loc 1 269 9 is_stmt 1 view .LVU348
 1239 04bc 3C01     		cmpb	$1, %al
 1240 04be 765B     		jbe	.L85
 271:Src/translator.cpp ****                     thischeck = getCheckSum(package);
 1241              		.loc 1 271 9 view .LVU349
 271:Src/translator.cpp ****                     thischeck = getCheckSum(package);
 1242              		.loc 1 271 40 is_stmt 0 view .LVU350
 1243 04c0 4889DF   		movq	%rbx, %rdi
 1244 04c3 E8000000 		call	_ZN10translator11genCheckSumEPKh
 1244      00
 1245              	.LVL140:
 271:Src/translator.cpp ****                     thischeck = getCheckSum(package);
 1246              		.loc 1 271 40 view .LVU351
 1247 04c8 4189C6   		movl	%eax, %r14d
 1248              	.LVL141:
 272:Src/translator.cpp ****         if(check != thischeck)
 1249              		.loc 1 272 44 view .LVU352
 1250 04cb 4889DF   		movq	%rbx, %rdi
 1251 04ce E8000000 		call	_ZN10translator11getCheckSumEPKh
 1251      00
 1252              	.LVL142:
 273:Src/translator.cpp ****             return TYPE_BAD_CHECKSUM;
 1253              		.loc 1 273 9 is_stmt 1 view .LVU353
 1254 04d3 664139C6 		cmpw	%ax, %r14w
 1255 04d7 7549     		jne	.L86
 276:Src/translator.cpp ****         for(uint8_t i = 0; i < len - 1; i++)
 1256              		.loc 1 276 9 view .LVU354
 276:Src/translator.cpp ****         for(uint8_t i = 0; i < len - 1; i++)
 1257              		.loc 1 276 17 is_stmt 0 view .LVU355
 1258 04d9 0FB67B03 		movzbl	3(%rbx), %edi
 1259              	.LVL143:
 277:Src/translator.cpp ****         {
 1260              		.loc 1 277 9 is_stmt 1 view .LVU356
 1261              	.LBB36:
 277:Src/translator.cpp ****         {
 1262              		.loc 1 277 21 is_stmt 0 view .LVU357
 1263 04dd B9000000 		movl	$0, %ecx
 1263      00
 1264              	.LVL144:
 1265              	.L83:
 277:Src/translator.cpp ****         {
 1266              		.loc 1 277 30 is_stmt 1 discriminator 3 view .LVU358
 277:Src/translator.cpp ****         {
 1267              		.loc 1 277 28 is_stmt 0 discriminator 3 view .LVU359
 1268 04e2 0FB6C1   		movzbl	%cl, %eax
 277:Src/translator.cpp ****         {
GAS LISTING /tmp/ccBuC8w2.s 			page 53


 1269              		.loc 1 277 32 discriminator 3 view .LVU360
 1270 04e5 410FB6D5 		movzbl	%r13b, %edx
 277:Src/translator.cpp ****         {
 1271              		.loc 1 277 36 discriminator 3 view .LVU361
 1272 04e9 83EA01   		subl	$1, %edx
 277:Src/translator.cpp ****         {
 1273              		.loc 1 277 30 discriminator 3 view .LVU362
 1274 04ec 39D0     		cmpl	%edx, %eax
 1275 04ee 7D20     		jge	.L81
 279:Src/translator.cpp ****         }
 1276              		.loc 1 279 13 is_stmt 1 discriminator 2 view .LVU363
 279:Src/translator.cpp ****         }
 1277              		.loc 1 279 48 is_stmt 0 discriminator 2 view .LVU364
 1278 04f0 83C004   		addl	$4, %eax
 1279 04f3 4898     		cltq
 279:Src/translator.cpp ****         }
 1280              		.loc 1 279 19 discriminator 2 view .LVU365
 1281 04f5 400FB6F7 		movzbl	%dil, %esi
 279:Src/translator.cpp ****         }
 1282              		.loc 1 279 23 discriminator 2 view .LVU366
 1283 04f9 0FB6D1   		movzbl	%cl, %edx
 279:Src/translator.cpp ****         }
 1284              		.loc 1 279 24 discriminator 2 view .LVU367
 1285 04fc 490314F4 		addq	(%r12,%rsi,8), %rdx
 279:Src/translator.cpp ****         }
 1286              		.loc 1 279 51 discriminator 2 view .LVU368
 1287 0500 0FB60403 		movzbl	(%rbx,%rax), %eax
 279:Src/translator.cpp ****         }
 1288              		.loc 1 279 26 discriminator 2 view .LVU369
 1289 0504 8802     		movb	%al, (%rdx)
 277:Src/translator.cpp ****         {
 1290              		.loc 1 277 9 is_stmt 1 discriminator 2 view .LVU370
 1291 0506 83C101   		addl	$1, %ecx
 1292              	.LVL145:
 277:Src/translator.cpp ****         {
 1293              		.loc 1 277 9 is_stmt 0 discriminator 2 view .LVU371
 1294 0509 EBD7     		jmp	.L83
 1295              	.LVL146:
 1296              	.L84:
 277:Src/translator.cpp ****         {
 1297              		.loc 1 277 9 discriminator 2 view .LVU372
 1298              	.LBE36:
 267:Src/translator.cpp ****         uint8_t len = getLen(package);
 1299              		.loc 1 267 20 view .LVU373
 1300 050b BD650000 		movl	$101, %ebp
 1300      00
 1301              	.LVL147:
 1302              	.L81:
 282:Src/translator.cpp ****     
 1303              		.loc 1 282 5 view .LVU374
 1304 0510 89E8     		movl	%ebp, %eax
 1305 0512 5B       		popq	%rbx
 1306              		.cfi_remember_state
 1307              		.cfi_def_cfa_offset 40
 1308              	.LVL148:
 282:Src/translator.cpp ****     
 1309              		.loc 1 282 5 view .LVU375
GAS LISTING /tmp/ccBuC8w2.s 			page 54


 1310 0513 5D       		popq	%rbp
 1311              		.cfi_def_cfa_offset 32
 1312 0514 415C     		popq	%r12
 1313              		.cfi_def_cfa_offset 24
 1314              	.LVL149:
 282:Src/translator.cpp ****     
 1315              		.loc 1 282 5 view .LVU376
 1316 0516 415D     		popq	%r13
 1317              		.cfi_def_cfa_offset 16
 1318 0518 415E     		popq	%r14
 1319              		.cfi_def_cfa_offset 8
 1320 051a C3       		ret
 1321              	.LVL150:
 1322              	.L85:
 1323              		.cfi_restore_state
 270:Src/translator.cpp ****         checksum_t  check = genCheckSum(package),
 1324              		.loc 1 270 20 view .LVU377
 1325 051b BD640000 		movl	$100, %ebp
 1325      00
 1326              	.LVL151:
 270:Src/translator.cpp ****         checksum_t  check = genCheckSum(package),
 1327              		.loc 1 270 20 view .LVU378
 1328 0520 EBEE     		jmp	.L81
 1329              	.LVL152:
 1330              	.L86:
 274:Src/translator.cpp **** 
 1331              		.loc 1 274 20 view .LVU379
 1332 0522 BD660000 		movl	$102, %ebp
 1332      00
 1333              	.LVL153:
 274:Src/translator.cpp **** 
 1334              		.loc 1 274 20 view .LVU380
 1335 0527 EBE7     		jmp	.L81
 1336              		.cfi_endproc
 1337              	.LFE1517:
 1339              		.globl	_ZN10translator6isFullEPhh
 1341              	_ZN10translator6isFullEPhh:
 1342              	.LVL154:
 1343              	.LFB1518:
 287:Src/translator.cpp **** 
 1344              		.loc 1 287 5 is_stmt 1 view -0
 1345              		.cfi_startproc
 289:Src/translator.cpp ****             return false;
 1346              		.loc 1 289 9 view .LVU382
 1347 0529 4080FE02 		cmpb	$2, %sil
 1348 052d 764F     		jbe	.L92
 287:Src/translator.cpp **** 
 1349              		.loc 1 287 5 is_stmt 0 view .LVU383
 1350 052f 4154     		pushq	%r12
 1351              		.cfi_def_cfa_offset 16
 1352              		.cfi_offset 12, -16
 1353 0531 55       		pushq	%rbp
 1354              		.cfi_def_cfa_offset 24
 1355              		.cfi_offset 6, -24
 1356 0532 53       		pushq	%rbx
 1357              		.cfi_def_cfa_offset 32
 1358              		.cfi_offset 3, -32
GAS LISTING /tmp/ccBuC8w2.s 			page 55


 1359 0533 4889FD   		movq	%rdi, %rbp
 1360 0536 89F3     		movl	%esi, %ebx
 291:Src/translator.cpp ****             return false;
 1361              		.loc 1 291 9 is_stmt 1 view .LVU384
 291:Src/translator.cpp ****             return false;
 1362              		.loc 1 291 19 is_stmt 0 view .LVU385
 1363 0538 E8000000 		call	_ZN10translator6getLenEPKh
 1363      00
 1364              	.LVL155:
 291:Src/translator.cpp ****             return false;
 1365              		.loc 1 291 19 view .LVU386
 1366 053d 4189C4   		movl	%eax, %r12d
 1367 0540 0FB6C0   		movzbl	%al, %eax
 291:Src/translator.cpp ****             return false;
 1368              		.loc 1 291 29 view .LVU387
 1369 0543 83C003   		addl	$3, %eax
 291:Src/translator.cpp ****             return false;
 1370              		.loc 1 291 43 view .LVU388
 1371 0546 0FB6DB   		movzbl	%bl, %ebx
 291:Src/translator.cpp ****             return false;
 1372              		.loc 1 291 9 view .LVU389
 1373 0549 39D8     		cmpl	%ebx, %eax
 1374 054b 7537     		jne	.L93
 293:Src/translator.cpp ****         {
 1375              		.loc 1 293 9 is_stmt 1 view .LVU390
 293:Src/translator.cpp ****         {
 1376              		.loc 1 293 24 is_stmt 0 view .LVU391
 1377 054d 4889EF   		movq	%rbp, %rdi
 1378 0550 E8000000 		call	_ZN10translator7getTypeEPKh
 1378      00
 1379              	.LVL156:
 293:Src/translator.cpp ****         {
 1380              		.loc 1 293 9 view .LVU392
 1381 0555 3C01     		cmpb	$1, %al
 1382 0557 7418     		je	.L90
 1383 0559 84C0     		testb	%al, %al
 1384 055b 7431     		je	.L94
 1385 055d 83E802   		subl	$2, %eax
 1386 0560 3C01     		cmpb	$1, %al
 1387 0562 7731     		ja	.L103
 301:Src/translator.cpp ****             case TYPE_ARR:
 1388              		.loc 1 301 13 is_stmt 1 view .LVU393
 302:Src/translator.cpp ****             {
 1389              		.loc 1 302 13 view .LVU394
 303:Src/translator.cpp ****                 if(getLen(package) <= 1)
 1390              		.loc 1 303 13 view .LVU395
 304:Src/translator.cpp ****                     return false;
 1391              		.loc 1 304 17 view .LVU396
 1392 0564 4180FC01 		cmpb	$1, %r12b
 1393 0568 7639     		jbe	.L97
 311:Src/translator.cpp ****     }
 1394              		.loc 1 311 16 is_stmt 0 view .LVU397
 1395 056a B8010000 		movl	$1, %eax
 1395      00
 1396 056f EB18     		jmp	.L88
 1397              	.L90:
 295:Src/translator.cpp ****             {
GAS LISTING /tmp/ccBuC8w2.s 			page 56


 1398              		.loc 1 295 13 is_stmt 1 view .LVU398
 296:Src/translator.cpp ****                 if(getLen(package) != 1)
 1399              		.loc 1 296 13 view .LVU399
 297:Src/translator.cpp ****                     return false;
 1400              		.loc 1 297 17 view .LVU400
 1401 0571 4180FC01 		cmpb	$1, %r12b
 1402 0575 7525     		jne	.L96
 311:Src/translator.cpp ****     }
 1403              		.loc 1 311 16 is_stmt 0 view .LVU401
 1404 0577 B8010000 		movl	$1, %eax
 1404      00
 1405 057c EB0B     		jmp	.L88
 1406              	.LVL157:
 1407              	.L92:
 1408              		.cfi_def_cfa_offset 8
 1409              		.cfi_restore 3
 1410              		.cfi_restore 6
 1411              		.cfi_restore 12
 290:Src/translator.cpp ****         if((getLen(package) + SYS_LEN) != len)
 1412              		.loc 1 290 20 view .LVU402
 1413 057e B8000000 		movl	$0, %eax
 1413      00
 312:Src/translator.cpp **** }
 1414              		.loc 1 312 5 view .LVU403
 1415 0583 C3       		ret
 1416              	.LVL158:
 1417              	.L93:
 1418              		.cfi_def_cfa_offset 32
 1419              		.cfi_offset 3, -32
 1420              		.cfi_offset 6, -24
 1421              		.cfi_offset 12, -16
 292:Src/translator.cpp ****         switch (getType(package))
 1422              		.loc 1 292 20 view .LVU404
 1423 0584 B8000000 		movl	$0, %eax
 1423      00
 1424              	.L88:
 312:Src/translator.cpp **** }
 1425              		.loc 1 312 5 view .LVU405
 1426 0589 5B       		popq	%rbx
 1427              		.cfi_remember_state
 1428              		.cfi_def_cfa_offset 24
 1429 058a 5D       		popq	%rbp
 1430              		.cfi_def_cfa_offset 16
 1431              	.LVL159:
 312:Src/translator.cpp **** }
 1432              		.loc 1 312 5 view .LVU406
 1433 058b 415C     		popq	%r12
 1434              		.cfi_def_cfa_offset 8
 1435 058d C3       		ret
 1436              	.LVL160:
 1437              	.L94:
 1438              		.cfi_restore_state
 293:Src/translator.cpp ****         {
 1439              		.loc 1 293 9 view .LVU407
 1440 058e B8000000 		movl	$0, %eax
 1440      00
 1441 0593 EBF4     		jmp	.L88
GAS LISTING /tmp/ccBuC8w2.s 			page 57


 1442              	.L103:
 1443 0595 B8000000 		movl	$0, %eax
 1443      00
 1444 059a EBED     		jmp	.L88
 1445              	.L96:
 298:Src/translator.cpp ****                 break;
 1446              		.loc 1 298 28 view .LVU408
 1447 059c B8000000 		movl	$0, %eax
 1447      00
 1448 05a1 EBE6     		jmp	.L88
 1449              	.L97:
 305:Src/translator.cpp ****                 break;
 1450              		.loc 1 305 28 view .LVU409
 1451 05a3 B8000000 		movl	$0, %eax
 1451      00
 1452 05a8 EBDF     		jmp	.L88
 1453              		.cfi_endproc
 1454              	.LFE1518:
 1457              	_GLOBAL__sub_I__ZN10translator7SYS_LENE:
 1458              	.LFB1839:
 1459              		.loc 1 313 1 is_stmt 1 view -0
 1460              		.cfi_startproc
 1461 05aa 4883EC08 		subq	$8, %rsp
 1462              		.cfi_def_cfa_offset 16
 1463              		.loc 1 313 1 is_stmt 0 view .LVU411
 1464 05ae BEFFFF00 		movl	$65535, %esi
 1464      00
 1465 05b3 BF010000 		movl	$1, %edi
 1465      00
 1466 05b8 E843FAFF 		call	_Z41__static_initialization_and_destruction_0ii
 1466      FF
 1467              	.LVL161:
 1468 05bd 4883C408 		addq	$8, %rsp
 1469              		.cfi_def_cfa_offset 8
 1470 05c1 C3       		ret
 1471              		.cfi_endproc
 1472              	.LFE1839:
 1474              		.section	.init_array,"aw"
 1475              		.align 8
 1476 0000 00000000 		.quad	_GLOBAL__sub_I__ZN10translator7SYS_LENE
 1476      00000000 
 1477              		.globl	_ZN10translator7SYS_LENE
 1478              		.section	.rodata
 1481              	_ZN10translator7SYS_LENE:
 1482 0000 03       		.byte	3
 1483              		.local	_ZStL8__ioinit
 1484              		.comm	_ZStL8__ioinit,1,1
 1485              		.text
 1486              	.Letext0:
 1487              		.file 5 "/usr/include/c++/9.2.0/cwchar"
 1488              		.file 6 "/usr/include/c++/9.2.0/new"
 1489              		.file 7 "/usr/include/c++/9.2.0/bits/exception_ptr.h"
 1490              		.file 8 "/usr/include/c++/9.2.0/type_traits"
 1491              		.file 9 "/usr/include/c++/9.2.0/x86_64-pc-linux-gnu/bits/c++config.h"
 1492              		.file 10 "/usr/include/c++/9.2.0/bits/stl_pair.h"
 1493              		.file 11 "/usr/include/c++/9.2.0/debug/debug.h"
 1494              		.file 12 "/usr/include/c++/9.2.0/cstdint"
GAS LISTING /tmp/ccBuC8w2.s 			page 58


 1495              		.file 13 "/usr/include/c++/9.2.0/clocale"
 1496              		.file 14 "/usr/include/c++/9.2.0/cstdlib"
 1497              		.file 15 "/usr/include/c++/9.2.0/cstdio"
 1498              		.file 16 "/usr/include/c++/9.2.0/system_error"
 1499              		.file 17 "/usr/include/c++/9.2.0/bits/ios_base.h"
 1500              		.file 18 "/usr/include/c++/9.2.0/cwctype"
 1501              		.file 19 "/usr/include/c++/9.2.0/iosfwd"
 1502              		.file 20 "/usr/include/c++/9.2.0/bits/basic_ios.h"
 1503              		.file 21 "/usr/include/c++/9.2.0/bits/predefined_ops.h"
 1504              		.file 22 "/usr/include/c++/9.2.0/ext/new_allocator.h"
 1505              		.file 23 "/usr/include/c++/9.2.0/ext/numeric_traits.h"
 1506              		.file 24 "/usr/lib/gcc/x86_64-pc-linux-gnu/9.2.0/include/stddef.h"
 1507              		.file 25 "<built-in>"
 1508              		.file 26 "/usr/include/bits/types/wint_t.h"
 1509              		.file 27 "/usr/include/bits/types/__mbstate_t.h"
 1510              		.file 28 "/usr/include/bits/types/mbstate_t.h"
 1511              		.file 29 "/usr/include/bits/types/__FILE.h"
 1512              		.file 30 "/usr/include/bits/types/struct_FILE.h"
 1513              		.file 31 "/usr/include/bits/types/FILE.h"
 1514              		.file 32 "/usr/include/wchar.h"
 1515              		.file 33 "/usr/include/bits/types/struct_tm.h"
 1516              		.file 34 "/usr/include/bits/types.h"
 1517              		.file 35 "/usr/include/bits/stdint-intn.h"
 1518              		.file 36 "/usr/include/bits/stdint-uintn.h"
 1519              		.file 37 "/usr/include/stdint.h"
 1520              		.file 38 "/usr/include/locale.h"
 1521              		.file 39 "/usr/include/time.h"
 1522              		.file 40 "/usr/include/c++/9.2.0/x86_64-pc-linux-gnu/bits/atomic_word.h"
 1523              		.file 41 "/usr/include/stdlib.h"
 1524              		.file 42 "/usr/include/bits/stdlib-float.h"
 1525              		.file 43 "/usr/include/bits/stdlib-bsearch.h"
 1526              		.file 44 "/usr/include/bits/types/__fpos_t.h"
 1527              		.file 45 "/usr/include/stdio.h"
 1528              		.file 46 "/usr/include/bits/sys_errlist.h"
 1529              		.file 47 "/usr/include/bits/stdio.h"
 1530              		.file 48 "/usr/include/errno.h"
 1531              		.file 49 "/usr/include/bits/wctype-wchar.h"
 1532              		.file 50 "/usr/include/wctype.h"
 1533              		.file 51 "Inc/translator.hpp"
 1534              		.file 52 "/usr/include/c++/9.2.0/bits/ostream_insert.h"
GAS LISTING /tmp/ccBuC8w2.s 			page 59


DEFINED SYMBOLS
                            *ABS*:0000000000000000 translator.cpp
     /tmp/ccBuC8w2.s:5      .text:0000000000000000 _Z41__static_initialization_and_destruction_0ii
                             .bss:0000000000000000 _ZStL8__ioinit
     /tmp/ccBuC8w2.s:45     .text:000000000000003d _ZN10translator7getTypeEPKh
     /tmp/ccBuC8w2.s:62     .text:0000000000000044 _ZN10translator6getLenEPKh
     /tmp/ccBuC8w2.s:79     .text:000000000000004b _ZN10translator11genCheckSumEPKh
     /tmp/ccBuC8w2.s:159    .text:0000000000000092 _ZN10translator6equalsEPKhS1_
     /tmp/ccBuC8w2.s:254    .text:00000000000000e2 _ZN10translator11getZeroByteEhh
     /tmp/ccBuC8w2.s:276    .text:00000000000000ef _ZN10translator11getCheckSumEPKh
     /tmp/ccBuC8w2.s:298    .text:00000000000000ff _ZN10translator11parsePacketEPhS0_
     /tmp/ccBuC8w2.s:437    .text:000000000000018a _ZN10translator8parseCmdEPhPPFvvE
     /tmp/ccBuC8w2.s:571    .text:0000000000000215 _ZN10translator8parseCmdEPh
     /tmp/ccBuC8w2.s:652    .text:0000000000000268 _ZN10translator11generateCmdEhPh
     /tmp/ccBuC8w2.s:707    .text:0000000000000298 _ZN10translator8validateEPKh
     /tmp/ccBuC8w2.s:804    .text:0000000000000300 _ZN10translator11generateVarEhhPKhPh
     /tmp/ccBuC8w2.s:909    .text:0000000000000369 _ZN10translator8parseVarEPhS0_h
     /tmp/ccBuC8w2.s:1062   .text:0000000000000409 _ZN10translator11generateArrEhhhPKhPh
     /tmp/ccBuC8w2.s:1199   .text:0000000000000498 _ZN10translator8parseArrEPhPS0_
     /tmp/ccBuC8w2.s:1341   .text:0000000000000529 _ZN10translator6isFullEPhh
     /tmp/ccBuC8w2.s:1457   .text:00000000000005aa _GLOBAL__sub_I__ZN10translator7SYS_LENE
     /tmp/ccBuC8w2.s:1481   .rodata:0000000000000000 _ZN10translator7SYS_LENE
     /tmp/ccBuC8w2.s:432    .rodata.str1.1:0000000000000000 .LC0

UNDEFINED SYMBOLS
_GLOBAL_OFFSET_TABLE_
_ZNSt8ios_base4InitC1Ev
__dso_handle
_ZNSt8ios_base4InitD1Ev
__cxa_atexit
_ZSt4cerr
_ZSt16__ostream_insertIcSt11char_traitsIcEERSt13basic_ostreamIT_T0_ES6_PKS3_l
