GAS LISTING /tmp/ccKEMYUq.s 			page 1


   1              		.file	"translator.cpp"
   2              		.text
   3              	.Ltext0:
   5              	_Z41__static_initialization_and_destruction_0ii:
   6              	.LVL0:
   7              	.LFB1834:
   8              		.file 1 "Src/translator.cpp"
   1:Src/translator.cpp **** #include "translator.hpp"
   2:Src/translator.cpp **** 
   3:Src/translator.cpp **** namespace translator
   4:Src/translator.cpp **** {
   5:Src/translator.cpp **** 
   6:Src/translator.cpp ****     using namespace std;
   7:Src/translator.cpp **** 
   8:Src/translator.cpp ****     //generate checksum for char array
   9:Src/translator.cpp ****     checksum_t genCheckSum(const uint8_t* c)
  10:Src/translator.cpp ****     {
  11:Src/translator.cpp ****         checksum_t ret = 0;
  12:Src/translator.cpp ****         uint8_t len = getLen(c);
  13:Src/translator.cpp ****         for(uint8_t i = 0; i < len; i++)
  14:Src/translator.cpp ****         {
  15:Src/translator.cpp ****             ret |= (c[3 + i]) << (8 * ((i % 2) == 1));
  16:Src/translator.cpp ****         }
  17:Src/translator.cpp ****         return ret;
  18:Src/translator.cpp ****     }
  19:Src/translator.cpp **** 
  20:Src/translator.cpp ****     //get type of package
  21:Src/translator.cpp ****     uint8_t getType(const uint8_t* package)
  22:Src/translator.cpp ****     {
  23:Src/translator.cpp ****         return ((package[0] & (~LEN_MASK)) >> 6);
  24:Src/translator.cpp ****     }
  25:Src/translator.cpp **** 
  26:Src/translator.cpp **** 
  27:Src/translator.cpp ****     //parse input package, get payload, return type of package
  28:Src/translator.cpp ****     uint8_t parsePacket(uint8_t* package, uint8_t* payloadto)
  29:Src/translator.cpp ****     {
  30:Src/translator.cpp ****         uint8_t type = getType(package);
  31:Src/translator.cpp ****         if(type != TYPE_ARR && type != TYPE_CMD && type != TYPE_VAR)
  32:Src/translator.cpp ****             return TYPE_BAD_TYPE;
  33:Src/translator.cpp ****         uint8_t len = getLen(package);
  34:Src/translator.cpp ****         if(len == 0)
  35:Src/translator.cpp ****             return TYPE_BAD_LEN;
  36:Src/translator.cpp **** 
  37:Src/translator.cpp ****         if(genCheckSum(package) != getCheckSum(package))
  38:Src/translator.cpp ****             return TYPE_BAD_CHECKSUM;
  39:Src/translator.cpp **** 
  40:Src/translator.cpp **** 
  41:Src/translator.cpp ****         for(uint8_t i = 0; i < len; i++)
  42:Src/translator.cpp ****         {
  43:Src/translator.cpp ****             payloadto[i] = package[i + 3];
  44:Src/translator.cpp ****         }
  45:Src/translator.cpp ****         return type;
  46:Src/translator.cpp ****     }
  47:Src/translator.cpp **** 
  48:Src/translator.cpp **** 
  49:Src/translator.cpp ****     //parse cmd from package, call funcArr[cmd], return type of package, max num of funcs - 255
  50:Src/translator.cpp ****     uint8_t parseCmd(uint8_t* package, void (*funcArr [])())
GAS LISTING /tmp/ccKEMYUq.s 			page 2


  51:Src/translator.cpp ****     {
  52:Src/translator.cpp ****         uint8_t var = getType(package);
  53:Src/translator.cpp ****         if(var != TYPE_CMD)
  54:Src/translator.cpp ****             return TYPE_BAD_TYPE;
  55:Src/translator.cpp **** 
  56:Src/translator.cpp ****         var = getLen(package);
  57:Src/translator.cpp ****         if(var != 1)
  58:Src/translator.cpp ****             return TYPE_BAD_LEN;
  59:Src/translator.cpp **** 
  60:Src/translator.cpp ****         checksum_t check = genCheckSum(package);
  61:Src/translator.cpp ****         if(check != getCheckSum(package))
  62:Src/translator.cpp ****             return TYPE_BAD_CHECKSUM;
  63:Src/translator.cpp **** 
  64:Src/translator.cpp ****         if(funcArr[package[3]] != NULL)
  65:Src/translator.cpp ****             funcArr[package[3]]();
  66:Src/translator.cpp ****         return TYPE_CMD;
  67:Src/translator.cpp ****     }
  68:Src/translator.cpp **** 
  69:Src/translator.cpp **** 
  70:Src/translator.cpp ****     //get payload from package to addr
  71:Src/translator.cpp ****     void getPayload(const uint8_t* package, uint8_t* to)
  72:Src/translator.cpp ****     {
  73:Src/translator.cpp ****         uint8_t len = getLen(package);
  74:Src/translator.cpp ****         for(uint8_t i = 0; i < len; i++)
  75:Src/translator.cpp ****         {
  76:Src/translator.cpp ****             to[i] = package[i + 3];
  77:Src/translator.cpp ****         }
  78:Src/translator.cpp ****     }
  79:Src/translator.cpp **** 
  80:Src/translator.cpp ****     //get len of payload
  81:Src/translator.cpp ****     uint8_t getLen(const uint8_t* package)
  82:Src/translator.cpp ****     {
  83:Src/translator.cpp ****         return package[0] & LEN_MASK;
  84:Src/translator.cpp ****     }
  85:Src/translator.cpp **** 
  86:Src/translator.cpp ****     bool equals(const uint8_t* p1, const uint8_t* p2)
  87:Src/translator.cpp ****     {
  88:Src/translator.cpp ****         if(p1[0] != p2[0])
  89:Src/translator.cpp ****             return false;
  90:Src/translator.cpp **** 
  91:Src/translator.cpp ****         uint8_t len = getLen(p1);
  92:Src/translator.cpp ****         for(uint8_t i = 0; i < len; i++)
  93:Src/translator.cpp ****         {
  94:Src/translator.cpp ****             if(p1[i] != p2[i])
  95:Src/translator.cpp ****                 return false;
  96:Src/translator.cpp ****         }
  97:Src/translator.cpp ****         return true;
  98:Src/translator.cpp ****     }
  99:Src/translator.cpp **** 
 100:Src/translator.cpp ****     uint8_t getZeroByte(const uint8_t type, const uint8_t len)
 101:Src/translator.cpp ****     {
 102:Src/translator.cpp ****         return (uint8_t)(((type & 0b11) << 6) | (len & LEN_MASK));
 103:Src/translator.cpp ****     }
 104:Src/translator.cpp **** 
 105:Src/translator.cpp **** 
 106:Src/translator.cpp ****     checksum_t getCheckSum(const uint8_t* package)
 107:Src/translator.cpp ****     {
GAS LISTING /tmp/ccKEMYUq.s 			page 3


 108:Src/translator.cpp ****         return (package[1] << 8) | package[2];
 109:Src/translator.cpp ****     }
 110:Src/translator.cpp **** 
 111:Src/translator.cpp **** 
 112:Src/translator.cpp ****     //gets cmd num at 'cmd', returns final package into target pointer
 113:Src/translator.cpp ****     void generateCmd(const uint8_t cmd, uint8_t* tgt)
 114:Src/translator.cpp ****     {
 115:Src/translator.cpp ****         tgt[0] = getZeroByte(TYPE_CMD, 1);
 116:Src/translator.cpp ****         tgt[3] = cmd;
 117:Src/translator.cpp ****         checksum_t check = getCheckSum(tgt);
 118:Src/translator.cpp ****         tgt[1] = check >> 8;
 119:Src/translator.cpp ****         tgt[2] = check & 0xFF;
 120:Src/translator.cpp ****     }
 121:Src/translator.cpp **** 
 122:Src/translator.cpp **** 
 123:Src/translator.cpp ****     //get id of var in payload of package
 124:Src/translator.cpp ****     uint8_t getVarId(const uint8_t* pack)
 125:Src/translator.cpp ****     {
 126:Src/translator.cpp ****         if(!validate(pack))
 127:Src/translator.cpp ****             return 0xFF;
 128:Src/translator.cpp **** 
 129:Src/translator.cpp ****         return pack[3];
 130:Src/translator.cpp ****     }
 131:Src/translator.cpp **** 
 132:Src/translator.cpp **** 
 133:Src/translator.cpp ****     //validate checksum, type, len
 134:Src/translator.cpp ****     bool validate(const uint8_t* pack)
 135:Src/translator.cpp ****     {
 136:Src/translator.cpp ****         uint8_t type = getType(pack);
 137:Src/translator.cpp ****         switch (type)
 138:Src/translator.cpp ****         {
 139:Src/translator.cpp ****             case TYPE_CMD:
 140:Src/translator.cpp ****             {
 141:Src/translator.cpp ****                 if(getLen(pack) != 1)
 142:Src/translator.cpp ****                     return false;
 143:Src/translator.cpp ****                 break;
 144:Src/translator.cpp ****             }
 145:Src/translator.cpp ****             case TYPE_VAR:
 146:Src/translator.cpp ****             case TYPE_ARR:
 147:Src/translator.cpp ****             {
 148:Src/translator.cpp ****                 if(getLen(pack) <= 1)
 149:Src/translator.cpp ****                     return false;
 150:Src/translator.cpp ****                 break;
 151:Src/translator.cpp ****             }
 152:Src/translator.cpp ****             default:
 153:Src/translator.cpp ****                 return false;
 154:Src/translator.cpp ****         }
 155:Src/translator.cpp ****         return (getCheckSum(pack) == genCheckSum(pack));
 156:Src/translator.cpp ****     }
 157:Src/translator.cpp **** 
 158:Src/translator.cpp ****     //create var package
 159:Src/translator.cpp ****     void generateVar(const uint8_t id, const uint8_t varlen, const uint8_t* var, uint8_t* tgt)
 160:Src/translator.cpp ****     {
 161:Src/translator.cpp ****         tgt[0] = getZeroByte(TYPE_VAR, varlen + 1);
 162:Src/translator.cpp ****         tgt[3] = id;
 163:Src/translator.cpp ****         for(uint8_t i = 0; i < varlen; i++)
 164:Src/translator.cpp ****         {
GAS LISTING /tmp/ccKEMYUq.s 			page 4


 165:Src/translator.cpp ****             tgt[4 + i] = var[varlen - i - 1];
 166:Src/translator.cpp ****             // std::cout << "from " << (int)(i) << " to " << (int)(i + 4) << " set 0x" << std::hex 
 167:Src/translator.cpp ****         }
 168:Src/translator.cpp ****         checksum_t check = genCheckSum(tgt);
 169:Src/translator.cpp ****         tgt[1] = check >> 8;
 170:Src/translator.cpp ****         tgt[2] = check & 0xFF;
 171:Src/translator.cpp ****     }
 172:Src/translator.cpp **** 
 173:Src/translator.cpp **** 
 174:Src/translator.cpp ****     //parse var from var package and write into toArr[id], return type of package
 175:Src/translator.cpp ****     uint8_t parseVar(uint8_t* package, uint8_t* toArr, uint8_t elsize)
 176:Src/translator.cpp ****     {
 177:Src/translator.cpp ****         uint8_t type = getType(package);
 178:Src/translator.cpp ****         if(type != TYPE_VAR)
 179:Src/translator.cpp ****             return TYPE_BAD_TYPE;
 180:Src/translator.cpp ****         uint8_t len = getLen(package);
 181:Src/translator.cpp ****         if(len < 2)
 182:Src/translator.cpp ****             return TYPE_BAD_LEN;
 183:Src/translator.cpp ****         checksum_t  check = genCheckSum(package),
 184:Src/translator.cpp ****                     thischeck = getCheckSum(package);
 185:Src/translator.cpp ****         if(check != thischeck)
 186:Src/translator.cpp ****             return TYPE_BAD_CHECKSUM;
 187:Src/translator.cpp **** 
 188:Src/translator.cpp ****         uint8_t id = package[3];
 189:Src/translator.cpp ****         for(uint8_t i = 0; i < len - 1; i++)
 190:Src/translator.cpp ****         {
 191:Src/translator.cpp ****             toArr[(id + i) * elsize] = package[i + 4];
 192:Src/translator.cpp ****             // std::cout << "from " << (int)((id + i) * elsize) << " to " << (int)(i + 4) << std::e
 193:Src/translator.cpp ****         }
 194:Src/translator.cpp ****         return TYPE_VAR;
 195:Src/translator.cpp ****     }
 196:Src/translator.cpp ****     
 197:Src/translator.cpp ****     
 198:Src/translator.cpp ****     //create array package
 199:Src/translator.cpp ****     void generateArr(const uint8_t id, const uint8_t arrlen, const uint8_t elsize, const uint8_t* a
 200:Src/translator.cpp ****     {
 201:Src/translator.cpp ****         tgt[0] = getZeroByte(TYPE_ARR, (arrlen * elsize) + 1);
 202:Src/translator.cpp ****         tgt[3] = id;
 203:Src/translator.cpp ****         for(uint8_t i = 0; i < arrlen; i++)
 204:Src/translator.cpp ****         {
 205:Src/translator.cpp ****             for(uint8_t j = 0; j < elsize; j++)
 206:Src/translator.cpp ****             {
 207:Src/translator.cpp ****                 tgt[4 + (i * elsize) + j] = arr[(i * elsize) + (elsize - j - 1)];
 208:Src/translator.cpp ****             }
 209:Src/translator.cpp ****             // tgt[4 + i] = arr[i];
 210:Src/translator.cpp ****         }
 211:Src/translator.cpp ****         checksum_t check = genCheckSum(tgt);
 212:Src/translator.cpp ****         tgt[1] = check >> 8;
 213:Src/translator.cpp ****         tgt[2] = check & 0xFF;
 214:Src/translator.cpp ****     }
 215:Src/translator.cpp **** }
   9              		.loc 1 215 1 view -0
  10              		.cfi_startproc
  11              		.loc 1 215 1 is_stmt 0 view .LVU1
  12 0000 83FF01   		cmpl	$1, %edi
  13 0003 7401     		je	.L7
  14              	.L4:
GAS LISTING /tmp/ccKEMYUq.s 			page 5


  15 0005 C3       		ret
  16              	.L7:
  17              		.loc 1 215 1 discriminator 1 view .LVU2
  18 0006 81FEFFFF 		cmpl	$65535, %esi
  18      0000
  19 000c 75F7     		jne	.L4
  20              		.loc 1 215 1 view .LVU3
  21 000e 4883EC08 		subq	$8, %rsp
  22              		.cfi_def_cfa_offset 16
  23              		.file 2 "/usr/include/c++/9.1.0/iostream"
   1:/usr/include/c++/9.1.0/iostream **** // Standard iostream objects -*- C++ -*-
   2:/usr/include/c++/9.1.0/iostream **** 
   3:/usr/include/c++/9.1.0/iostream **** // Copyright (C) 1997-2019 Free Software Foundation, Inc.
   4:/usr/include/c++/9.1.0/iostream **** //
   5:/usr/include/c++/9.1.0/iostream **** // This file is part of the GNU ISO C++ Library.  This library is free
   6:/usr/include/c++/9.1.0/iostream **** // software; you can redistribute it and/or modify it under the
   7:/usr/include/c++/9.1.0/iostream **** // terms of the GNU General Public License as published by the
   8:/usr/include/c++/9.1.0/iostream **** // Free Software Foundation; either version 3, or (at your option)
   9:/usr/include/c++/9.1.0/iostream **** // any later version.
  10:/usr/include/c++/9.1.0/iostream **** 
  11:/usr/include/c++/9.1.0/iostream **** // This library is distributed in the hope that it will be useful,
  12:/usr/include/c++/9.1.0/iostream **** // but WITHOUT ANY WARRANTY; without even the implied warranty of
  13:/usr/include/c++/9.1.0/iostream **** // MERCHANTABILITY or FITNESS FOR A PARTICULAR PURPOSE.  See the
  14:/usr/include/c++/9.1.0/iostream **** // GNU General Public License for more details.
  15:/usr/include/c++/9.1.0/iostream **** 
  16:/usr/include/c++/9.1.0/iostream **** // Under Section 7 of GPL version 3, you are granted additional
  17:/usr/include/c++/9.1.0/iostream **** // permissions described in the GCC Runtime Library Exception, version
  18:/usr/include/c++/9.1.0/iostream **** // 3.1, as published by the Free Software Foundation.
  19:/usr/include/c++/9.1.0/iostream **** 
  20:/usr/include/c++/9.1.0/iostream **** // You should have received a copy of the GNU General Public License and
  21:/usr/include/c++/9.1.0/iostream **** // a copy of the GCC Runtime Library Exception along with this program;
  22:/usr/include/c++/9.1.0/iostream **** // see the files COPYING3 and COPYING.RUNTIME respectively.  If not, see
  23:/usr/include/c++/9.1.0/iostream **** // <http://www.gnu.org/licenses/>.
  24:/usr/include/c++/9.1.0/iostream **** 
  25:/usr/include/c++/9.1.0/iostream **** /** @file include/iostream
  26:/usr/include/c++/9.1.0/iostream ****  *  This is a Standard C++ Library header.
  27:/usr/include/c++/9.1.0/iostream ****  */
  28:/usr/include/c++/9.1.0/iostream **** 
  29:/usr/include/c++/9.1.0/iostream **** //
  30:/usr/include/c++/9.1.0/iostream **** // ISO C++ 14882: 27.3  Standard iostream objects
  31:/usr/include/c++/9.1.0/iostream **** //
  32:/usr/include/c++/9.1.0/iostream **** 
  33:/usr/include/c++/9.1.0/iostream **** #ifndef _GLIBCXX_IOSTREAM
  34:/usr/include/c++/9.1.0/iostream **** #define _GLIBCXX_IOSTREAM 1
  35:/usr/include/c++/9.1.0/iostream **** 
  36:/usr/include/c++/9.1.0/iostream **** #pragma GCC system_header
  37:/usr/include/c++/9.1.0/iostream **** 
  38:/usr/include/c++/9.1.0/iostream **** #include <bits/c++config.h>
  39:/usr/include/c++/9.1.0/iostream **** #include <ostream>
  40:/usr/include/c++/9.1.0/iostream **** #include <istream>
  41:/usr/include/c++/9.1.0/iostream **** 
  42:/usr/include/c++/9.1.0/iostream **** namespace std _GLIBCXX_VISIBILITY(default)
  43:/usr/include/c++/9.1.0/iostream **** {
  44:/usr/include/c++/9.1.0/iostream **** _GLIBCXX_BEGIN_NAMESPACE_VERSION
  45:/usr/include/c++/9.1.0/iostream **** 
  46:/usr/include/c++/9.1.0/iostream ****   /**
  47:/usr/include/c++/9.1.0/iostream ****    *  @name Standard Stream Objects
GAS LISTING /tmp/ccKEMYUq.s 			page 6


  48:/usr/include/c++/9.1.0/iostream ****    *
  49:/usr/include/c++/9.1.0/iostream ****    *  The &lt;iostream&gt; header declares the eight <em>standard stream
  50:/usr/include/c++/9.1.0/iostream ****    *  objects</em>.  For other declarations, see
  51:/usr/include/c++/9.1.0/iostream ****    *  http://gcc.gnu.org/onlinedocs/libstdc++/manual/io.html
  52:/usr/include/c++/9.1.0/iostream ****    *  and the @link iosfwd I/O forward declarations @endlink
  53:/usr/include/c++/9.1.0/iostream ****    *
  54:/usr/include/c++/9.1.0/iostream ****    *  They are required by default to cooperate with the global C
  55:/usr/include/c++/9.1.0/iostream ****    *  library's @c FILE streams, and to be available during program
  56:/usr/include/c++/9.1.0/iostream ****    *  startup and termination. For more information, see the section of the
  57:/usr/include/c++/9.1.0/iostream ****    *  manual linked to above.
  58:/usr/include/c++/9.1.0/iostream ****   */
  59:/usr/include/c++/9.1.0/iostream ****   //@{
  60:/usr/include/c++/9.1.0/iostream ****   extern istream cin;		/// Linked to standard input
  61:/usr/include/c++/9.1.0/iostream ****   extern ostream cout;		/// Linked to standard output
  62:/usr/include/c++/9.1.0/iostream ****   extern ostream cerr;		/// Linked to standard error (unbuffered)
  63:/usr/include/c++/9.1.0/iostream ****   extern ostream clog;		/// Linked to standard error (buffered)
  64:/usr/include/c++/9.1.0/iostream **** 
  65:/usr/include/c++/9.1.0/iostream **** #ifdef _GLIBCXX_USE_WCHAR_T
  66:/usr/include/c++/9.1.0/iostream ****   extern wistream wcin;		/// Linked to standard input
  67:/usr/include/c++/9.1.0/iostream ****   extern wostream wcout;	/// Linked to standard output
  68:/usr/include/c++/9.1.0/iostream ****   extern wostream wcerr;	/// Linked to standard error (unbuffered)
  69:/usr/include/c++/9.1.0/iostream ****   extern wostream wclog;	/// Linked to standard error (buffered)
  70:/usr/include/c++/9.1.0/iostream **** #endif
  71:/usr/include/c++/9.1.0/iostream ****   //@}
  72:/usr/include/c++/9.1.0/iostream **** 
  73:/usr/include/c++/9.1.0/iostream ****   // For construction of filebuffers for cout, cin, cerr, clog et. al.
  74:/usr/include/c++/9.1.0/iostream ****   static ios_base::Init __ioinit;
  24              		.loc 2 74 25 view .LVU4
  25 0012 488D3D00 		leaq	_ZStL8__ioinit(%rip), %rdi
  25      000000
  26              	.LVL1:
  27              		.loc 2 74 25 view .LVU5
  28 0019 E8000000 		call	_ZNSt8ios_base4InitC1Ev@PLT
  28      00
  29              	.LVL2:
  30              		.loc 2 74 25 view .LVU6
  31 001e 488D1500 		leaq	__dso_handle(%rip), %rdx
  31      000000
  32 0025 488D3500 		leaq	_ZStL8__ioinit(%rip), %rsi
  32      000000
  33 002c 488B3D00 		movq	_ZNSt8ios_base4InitD1Ev@GOTPCREL(%rip), %rdi
  33      000000
  34 0033 E8000000 		call	__cxa_atexit@PLT
  34      00
  35              	.LVL3:
  36              		.loc 1 215 1 view .LVU7
  37 0038 4883C408 		addq	$8, %rsp
  38              		.cfi_def_cfa_offset 8
  39 003c C3       		ret
  40              		.cfi_endproc
  41              	.LFE1834:
  43              		.globl	_ZN10translator7getTypeEPKh
  45              	_ZN10translator7getTypeEPKh:
  46              	.LVL4:
  47              	.LFB1504:
  22:Src/translator.cpp ****         return ((package[0] & (~LEN_MASK)) >> 6);
  48              		.loc 1 22 5 is_stmt 1 view -0
GAS LISTING /tmp/ccKEMYUq.s 			page 7


  49              		.cfi_startproc
  23:Src/translator.cpp ****     }
  50              		.loc 1 23 9 view .LVU9
  23:Src/translator.cpp ****     }
  51              		.loc 1 23 27 is_stmt 0 view .LVU10
  52 003d 0FB607   		movzbl	(%rdi), %eax
  23:Src/translator.cpp ****     }
  53              		.loc 1 23 44 view .LVU11
  54 0040 C1F806   		sarl	$6, %eax
  24:Src/translator.cpp **** 
  55              		.loc 1 24 5 view .LVU12
  56 0043 C3       		ret
  57              		.cfi_endproc
  58              	.LFE1504:
  60              		.globl	_ZN10translator6getLenEPKh
  62              	_ZN10translator6getLenEPKh:
  63              	.LVL5:
  64              	.LFB1508:
  82:Src/translator.cpp ****         return package[0] & LEN_MASK;
  65              		.loc 1 82 5 is_stmt 1 view -0
  66              		.cfi_startproc
  83:Src/translator.cpp ****     }
  67              		.loc 1 83 9 view .LVU14
  83:Src/translator.cpp ****     }
  68              		.loc 1 83 27 is_stmt 0 view .LVU15
  69 0044 0FB607   		movzbl	(%rdi), %eax
  83:Src/translator.cpp ****     }
  70              		.loc 1 83 29 view .LVU16
  71 0047 83E03F   		andl	$63, %eax
  84:Src/translator.cpp **** 
  72              		.loc 1 84 5 view .LVU17
  73 004a C3       		ret
  74              		.cfi_endproc
  75              	.LFE1508:
  77              		.globl	_ZN10translator11genCheckSumEPKh
  79              	_ZN10translator11genCheckSumEPKh:
  80              	.LVL6:
  81              	.LFB1503:
  10:Src/translator.cpp ****         checksum_t ret = 0;
  82              		.loc 1 10 5 is_stmt 1 view -0
  83              		.cfi_startproc
  10:Src/translator.cpp ****         checksum_t ret = 0;
  84              		.loc 1 10 5 is_stmt 0 view .LVU19
  85 004b 53       		pushq	%rbx
  86              		.cfi_def_cfa_offset 16
  87              		.cfi_offset 3, -16
  88 004c 4889FB   		movq	%rdi, %rbx
  11:Src/translator.cpp ****         uint8_t len = getLen(c);
  89              		.loc 1 11 9 is_stmt 1 view .LVU20
  90              	.LVL7:
  12:Src/translator.cpp ****         for(uint8_t i = 0; i < len; i++)
  91              		.loc 1 12 9 view .LVU21
  12:Src/translator.cpp ****         for(uint8_t i = 0; i < len; i++)
  92              		.loc 1 12 29 is_stmt 0 view .LVU22
  93 004f E8000000 		call	_ZN10translator6getLenEPKh
  93      00
  94              	.LVL8:
GAS LISTING /tmp/ccKEMYUq.s 			page 8


  12:Src/translator.cpp ****         for(uint8_t i = 0; i < len; i++)
  95              		.loc 1 12 29 view .LVU23
  96 0054 89C7     		movl	%eax, %edi
  97              	.LVL9:
  13:Src/translator.cpp ****         {
  98              		.loc 1 13 9 is_stmt 1 view .LVU24
  99              	.LBB2:
  13:Src/translator.cpp ****         {
 100              		.loc 1 13 21 is_stmt 0 view .LVU25
 101 0056 BA000000 		movl	$0, %edx
 101      00
 102              	.LBE2:
  11:Src/translator.cpp ****         uint8_t len = getLen(c);
 103              		.loc 1 11 20 view .LVU26
 104 005b B8000000 		movl	$0, %eax
 104      00
 105              	.LVL10:
 106              	.L12:
 107              	.LBB3:
  13:Src/translator.cpp ****         {
 108              		.loc 1 13 30 discriminator 3 view .LVU27
 109 0060 4038FA   		cmpb	%dil, %dl
 110 0063 731C     		jnb	.L10
  15:Src/translator.cpp ****         }
 111              		.loc 1 15 13 is_stmt 1 discriminator 2 view .LVU28
  15:Src/translator.cpp ****         }
 112              		.loc 1 15 27 is_stmt 0 discriminator 2 view .LVU29
 113 0065 0FB6CA   		movzbl	%dl, %ecx
  15:Src/translator.cpp ****         }
 114              		.loc 1 15 25 discriminator 2 view .LVU30
 115 0068 8D7103   		leal	3(%rcx), %esi
 116 006b 4863F6   		movslq	%esi, %rsi
  15:Src/translator.cpp ****         }
 117              		.loc 1 15 28 discriminator 2 view .LVU31
 118 006e 0FB63433 		movzbl	(%rbx,%rsi), %esi
  15:Src/translator.cpp ****         }
 119              		.loc 1 15 37 discriminator 2 view .LVU32
 120 0072 C1E103   		sall	$3, %ecx
 121 0075 83E108   		andl	$8, %ecx
  15:Src/translator.cpp ****         }
 122              		.loc 1 15 31 discriminator 2 view .LVU33
 123 0078 D3E6     		sall	%cl, %esi
  15:Src/translator.cpp ****         }
 124              		.loc 1 15 17 discriminator 2 view .LVU34
 125 007a 09F0     		orl	%esi, %eax
 126              	.LVL11:
  13:Src/translator.cpp ****         {
 127              		.loc 1 13 9 discriminator 2 view .LVU35
 128 007c 83C201   		addl	$1, %edx
 129              	.LVL12:
  13:Src/translator.cpp ****         {
 130              		.loc 1 13 9 discriminator 2 view .LVU36
 131 007f EBDF     		jmp	.L12
 132              	.LVL13:
 133              	.L10:
  13:Src/translator.cpp ****         {
 134              		.loc 1 13 9 discriminator 2 view .LVU37
GAS LISTING /tmp/ccKEMYUq.s 			page 9


 135              	.LBE3:
  18:Src/translator.cpp **** 
 136              		.loc 1 18 5 view .LVU38
 137 0081 5B       		popq	%rbx
 138              		.cfi_def_cfa_offset 8
 139              	.LVL14:
  18:Src/translator.cpp **** 
 140              		.loc 1 18 5 view .LVU39
 141 0082 C3       		ret
 142              		.cfi_endproc
 143              	.LFE1503:
 145              		.globl	_ZN10translator10getPayloadEPKhPh
 147              	_ZN10translator10getPayloadEPKhPh:
 148              	.LVL15:
 149              	.LFB1507:
  72:Src/translator.cpp ****         uint8_t len = getLen(package);
 150              		.loc 1 72 5 is_stmt 1 view -0
 151              		.cfi_startproc
  72:Src/translator.cpp ****         uint8_t len = getLen(package);
 152              		.loc 1 72 5 is_stmt 0 view .LVU41
 153 0083 55       		pushq	%rbp
 154              		.cfi_def_cfa_offset 16
 155              		.cfi_offset 6, -16
 156 0084 53       		pushq	%rbx
 157              		.cfi_def_cfa_offset 24
 158              		.cfi_offset 3, -24
 159 0085 4889FB   		movq	%rdi, %rbx
 160 0088 4889F5   		movq	%rsi, %rbp
  73:Src/translator.cpp ****         for(uint8_t i = 0; i < len; i++)
 161              		.loc 1 73 9 is_stmt 1 view .LVU42
  73:Src/translator.cpp ****         for(uint8_t i = 0; i < len; i++)
 162              		.loc 1 73 29 is_stmt 0 view .LVU43
 163 008b E8000000 		call	_ZN10translator6getLenEPKh
 163      00
 164              	.LVL16:
  74:Src/translator.cpp ****         {
 165              		.loc 1 74 9 is_stmt 1 view .LVU44
 166              	.LBB4:
  74:Src/translator.cpp ****         {
 167              		.loc 1 74 21 is_stmt 0 view .LVU45
 168 0090 BA000000 		movl	$0, %edx
 168      00
 169              	.LVL17:
 170              	.L16:
  74:Src/translator.cpp ****         {
 171              		.loc 1 74 30 discriminator 3 view .LVU46
 172 0095 38C2     		cmpb	%al, %dl
 173 0097 7312     		jnb	.L14
  76:Src/translator.cpp ****         }
 174              		.loc 1 76 13 is_stmt 1 discriminator 2 view .LVU47
  76:Src/translator.cpp ****         }
 175              		.loc 1 76 29 is_stmt 0 discriminator 2 view .LVU48
 176 0099 0FB6CA   		movzbl	%dl, %ecx
  76:Src/translator.cpp ****         }
 177              		.loc 1 76 34 discriminator 2 view .LVU49
 178 009c 0FB6740B 		movzbl	3(%rbx,%rcx), %esi
 178      03
GAS LISTING /tmp/ccKEMYUq.s 			page 10


  76:Src/translator.cpp ****         }
 179              		.loc 1 76 19 discriminator 2 view .LVU50
 180 00a1 4088740D 		movb	%sil, 0(%rbp,%rcx)
 180      00
  74:Src/translator.cpp ****         {
 181              		.loc 1 74 9 discriminator 2 view .LVU51
 182 00a6 83C201   		addl	$1, %edx
 183              	.LVL18:
  74:Src/translator.cpp ****         {
 184              		.loc 1 74 9 discriminator 2 view .LVU52
 185 00a9 EBEA     		jmp	.L16
 186              	.L14:
  74:Src/translator.cpp ****         {
 187              		.loc 1 74 9 discriminator 2 view .LVU53
 188              	.LBE4:
  78:Src/translator.cpp **** 
 189              		.loc 1 78 5 view .LVU54
 190 00ab 5B       		popq	%rbx
 191              		.cfi_def_cfa_offset 16
 192              	.LVL19:
  78:Src/translator.cpp **** 
 193              		.loc 1 78 5 view .LVU55
 194 00ac 5D       		popq	%rbp
 195              		.cfi_def_cfa_offset 8
 196              	.LVL20:
  78:Src/translator.cpp **** 
 197              		.loc 1 78 5 view .LVU56
 198 00ad C3       		ret
 199              		.cfi_endproc
 200              	.LFE1507:
 202              		.globl	_ZN10translator6equalsEPKhS1_
 204              	_ZN10translator6equalsEPKhS1_:
 205              	.LVL21:
 206              	.LFB1509:
  87:Src/translator.cpp ****         if(p1[0] != p2[0])
 207              		.loc 1 87 5 is_stmt 1 view -0
 208              		.cfi_startproc
  88:Src/translator.cpp ****             return false;
 209              		.loc 1 88 9 view .LVU58
 210 00ae 0FB606   		movzbl	(%rsi), %eax
 211 00b1 3807     		cmpb	%al, (%rdi)
 212 00b3 7529     		jne	.L21
  87:Src/translator.cpp ****         if(p1[0] != p2[0])
 213              		.loc 1 87 5 is_stmt 0 view .LVU59
 214 00b5 55       		pushq	%rbp
 215              		.cfi_def_cfa_offset 16
 216              		.cfi_offset 6, -16
 217 00b6 53       		pushq	%rbx
 218              		.cfi_def_cfa_offset 24
 219              		.cfi_offset 3, -24
 220 00b7 4889FB   		movq	%rdi, %rbx
 221 00ba 4889F5   		movq	%rsi, %rbp
  91:Src/translator.cpp ****         for(uint8_t i = 0; i < len; i++)
 222              		.loc 1 91 9 is_stmt 1 view .LVU60
  91:Src/translator.cpp ****         for(uint8_t i = 0; i < len; i++)
 223              		.loc 1 91 29 is_stmt 0 view .LVU61
 224 00bd E8000000 		call	_ZN10translator6getLenEPKh
GAS LISTING /tmp/ccKEMYUq.s 			page 11


 224      00
 225              	.LVL22:
  92:Src/translator.cpp ****         {
 226              		.loc 1 92 9 is_stmt 1 view .LVU62
 227              	.LBB5:
  92:Src/translator.cpp ****         {
 228              		.loc 1 92 21 is_stmt 0 view .LVU63
 229 00c2 BA000000 		movl	$0, %edx
 229      00
 230              	.LVL23:
 231              	.L20:
  92:Src/translator.cpp ****         {
 232              		.loc 1 92 30 discriminator 1 view .LVU64
 233 00c7 38C2     		cmpb	%al, %dl
 234 00c9 7319     		jnb	.L22
  94:Src/translator.cpp ****                 return false;
 235              		.loc 1 94 13 is_stmt 1 view .LVU65
  94:Src/translator.cpp ****                 return false;
 236              		.loc 1 94 19 is_stmt 0 view .LVU66
 237 00cb 0FB6CA   		movzbl	%dl, %ecx
  94:Src/translator.cpp ****                 return false;
 238              		.loc 1 94 13 view .LVU67
 239 00ce 0FB6740D 		movzbl	0(%rbp,%rcx), %esi
 239      00
 240 00d3 4038340B 		cmpb	%sil, (%rbx,%rcx)
 241 00d7 7513     		jne	.L23
  92:Src/translator.cpp ****         {
 242              		.loc 1 92 9 discriminator 2 view .LVU68
 243 00d9 83C201   		addl	$1, %edx
 244              	.LVL24:
  92:Src/translator.cpp ****         {
 245              		.loc 1 92 9 discriminator 2 view .LVU69
 246 00dc EBE9     		jmp	.L20
 247              	.LVL25:
 248              	.L21:
 249              		.cfi_def_cfa_offset 8
 250              		.cfi_restore 3
 251              		.cfi_restore 6
  92:Src/translator.cpp ****         {
 252              		.loc 1 92 9 discriminator 2 view .LVU70
 253              	.LBE5:
  89:Src/translator.cpp **** 
 254              		.loc 1 89 20 view .LVU71
 255 00de B8000000 		movl	$0, %eax
 255      00
  98:Src/translator.cpp **** 
 256              		.loc 1 98 5 view .LVU72
 257 00e3 C3       		ret
 258              	.LVL26:
 259              	.L22:
 260              		.cfi_def_cfa_offset 24
 261              		.cfi_offset 3, -24
 262              		.cfi_offset 6, -16
  97:Src/translator.cpp ****     }
 263              		.loc 1 97 16 view .LVU73
 264 00e4 B8010000 		movl	$1, %eax
 264      00
GAS LISTING /tmp/ccKEMYUq.s 			page 12


 265              	.LVL27:
 266              	.L18:
  98:Src/translator.cpp **** 
 267              		.loc 1 98 5 view .LVU74
 268 00e9 5B       		popq	%rbx
 269              		.cfi_remember_state
 270              		.cfi_def_cfa_offset 16
 271              	.LVL28:
  98:Src/translator.cpp **** 
 272              		.loc 1 98 5 view .LVU75
 273 00ea 5D       		popq	%rbp
 274              		.cfi_def_cfa_offset 8
 275              	.LVL29:
  98:Src/translator.cpp **** 
 276              		.loc 1 98 5 view .LVU76
 277 00eb C3       		ret
 278              	.LVL30:
 279              	.L23:
 280              		.cfi_restore_state
 281              	.LBB6:
  95:Src/translator.cpp ****         }
 282              		.loc 1 95 24 view .LVU77
 283 00ec B8000000 		movl	$0, %eax
 283      00
 284              	.LVL31:
  95:Src/translator.cpp ****         }
 285              		.loc 1 95 24 view .LVU78
 286 00f1 EBF6     		jmp	.L18
 287              	.LBE6:
 288              		.cfi_endproc
 289              	.LFE1509:
 291              		.globl	_ZN10translator11getZeroByteEhh
 293              	_ZN10translator11getZeroByteEhh:
 294              	.LVL32:
 295              	.LFB1510:
 101:Src/translator.cpp ****         return (uint8_t)(((type & 0b11) << 6) | (len & LEN_MASK));
 296              		.loc 1 101 5 is_stmt 1 view -0
 297              		.cfi_startproc
 102:Src/translator.cpp ****     }
 298              		.loc 1 102 9 view .LVU80
 102:Src/translator.cpp ****     }
 299              		.loc 1 102 33 is_stmt 0 view .LVU81
 300 00f3 400FB6C7 		movzbl	%dil, %eax
 102:Src/translator.cpp ****     }
 301              		.loc 1 102 41 view .LVU82
 302 00f7 C1E006   		sall	$6, %eax
 102:Src/translator.cpp ****     }
 303              		.loc 1 102 54 view .LVU83
 304 00fa 83E63F   		andl	$63, %esi
 305              	.LVL33:
 102:Src/translator.cpp ****     }
 306              		.loc 1 102 47 view .LVU84
 307 00fd 09F0     		orl	%esi, %eax
 103:Src/translator.cpp **** 
 308              		.loc 1 103 5 view .LVU85
 309 00ff C3       		ret
 310              		.cfi_endproc
GAS LISTING /tmp/ccKEMYUq.s 			page 13


 311              	.LFE1510:
 313              		.globl	_ZN10translator11getCheckSumEPKh
 315              	_ZN10translator11getCheckSumEPKh:
 316              	.LVL34:
 317              	.LFB1511:
 107:Src/translator.cpp ****         return (package[1] << 8) | package[2];
 318              		.loc 1 107 5 is_stmt 1 view -0
 319              		.cfi_startproc
 108:Src/translator.cpp ****     }
 320              		.loc 1 108 9 view .LVU87
 108:Src/translator.cpp ****     }
 321              		.loc 1 108 26 is_stmt 0 view .LVU88
 322 0100 0FB64701 		movzbl	1(%rdi), %eax
 108:Src/translator.cpp ****     }
 323              		.loc 1 108 28 view .LVU89
 324 0104 C1E008   		sall	$8, %eax
 325 0107 89C2     		movl	%eax, %edx
 108:Src/translator.cpp ****     }
 326              		.loc 1 108 45 view .LVU90
 327 0109 0FB64702 		movzbl	2(%rdi), %eax
 108:Src/translator.cpp ****     }
 328              		.loc 1 108 34 view .LVU91
 329 010d 09D0     		orl	%edx, %eax
 109:Src/translator.cpp **** 
 330              		.loc 1 109 5 view .LVU92
 331 010f C3       		ret
 332              		.cfi_endproc
 333              	.LFE1511:
 335              		.globl	_ZN10translator11parsePacketEPhS0_
 337              	_ZN10translator11parsePacketEPhS0_:
 338              	.LVL35:
 339              	.LFB1505:
  29:Src/translator.cpp ****         uint8_t type = getType(package);
 340              		.loc 1 29 5 is_stmt 1 view -0
 341              		.cfi_startproc
  29:Src/translator.cpp ****         uint8_t type = getType(package);
 342              		.loc 1 29 5 is_stmt 0 view .LVU94
 343 0110 4156     		pushq	%r14
 344              		.cfi_def_cfa_offset 16
 345              		.cfi_offset 14, -16
 346 0112 4155     		pushq	%r13
 347              		.cfi_def_cfa_offset 24
 348              		.cfi_offset 13, -24
 349 0114 4154     		pushq	%r12
 350              		.cfi_def_cfa_offset 32
 351              		.cfi_offset 12, -32
 352 0116 55       		pushq	%rbp
 353              		.cfi_def_cfa_offset 40
 354              		.cfi_offset 6, -40
 355 0117 53       		pushq	%rbx
 356              		.cfi_def_cfa_offset 48
 357              		.cfi_offset 3, -48
 358 0118 4889FB   		movq	%rdi, %rbx
 359 011b 4989F5   		movq	%rsi, %r13
  30:Src/translator.cpp ****         if(type != TYPE_ARR && type != TYPE_CMD && type != TYPE_VAR)
 360              		.loc 1 30 9 is_stmt 1 view .LVU95
  30:Src/translator.cpp ****         if(type != TYPE_ARR && type != TYPE_CMD && type != TYPE_VAR)
GAS LISTING /tmp/ccKEMYUq.s 			page 14


 361              		.loc 1 30 31 is_stmt 0 view .LVU96
 362 011e E8000000 		call	_ZN10translator7getTypeEPKh
 362      00
 363              	.LVL36:
  30:Src/translator.cpp ****         if(type != TYPE_ARR && type != TYPE_CMD && type != TYPE_VAR)
 364              		.loc 1 30 31 view .LVU97
 365 0123 4189C4   		movl	%eax, %r12d
 366              	.LVL37:
  31:Src/translator.cpp ****             return TYPE_BAD_TYPE;
 367              		.loc 1 31 9 is_stmt 1 view .LVU98
  31:Src/translator.cpp ****             return TYPE_BAD_TYPE;
 368              		.loc 1 31 17 is_stmt 0 view .LVU99
 369 0126 3C03     		cmpb	$3, %al
 370 0128 0F95C2   		setne	%dl
  31:Src/translator.cpp ****             return TYPE_BAD_TYPE;
 371              		.loc 1 31 37 view .LVU100
 372 012b 3C01     		cmpb	$1, %al
 373 012d 0F95C0   		setne	%al
 374              	.LVL38:
  31:Src/translator.cpp ****             return TYPE_BAD_TYPE;
 375              		.loc 1 31 9 view .LVU101
 376 0130 84C2     		testb	%al, %dl
 377 0132 7406     		je	.L31
  31:Src/translator.cpp ****             return TYPE_BAD_TYPE;
 378              		.loc 1 31 49 discriminator 1 view .LVU102
 379 0134 4180FC02 		cmpb	$2, %r12b
 380 0138 754F     		jne	.L34
 381              	.L31:
  33:Src/translator.cpp ****         if(len == 0)
 382              		.loc 1 33 9 is_stmt 1 view .LVU103
  33:Src/translator.cpp ****         if(len == 0)
 383              		.loc 1 33 29 is_stmt 0 view .LVU104
 384 013a 4889DF   		movq	%rbx, %rdi
 385 013d E8000000 		call	_ZN10translator6getLenEPKh
 385      00
 386              	.LVL39:
 387 0142 89C5     		movl	%eax, %ebp
 388              	.LVL40:
  34:Src/translator.cpp ****             return TYPE_BAD_LEN;
 389              		.loc 1 34 9 is_stmt 1 view .LVU105
 390 0144 84C0     		testb	%al, %al
 391 0146 7449     		je	.L35
  37:Src/translator.cpp ****             return TYPE_BAD_CHECKSUM;
 392              		.loc 1 37 9 view .LVU106
  37:Src/translator.cpp ****             return TYPE_BAD_CHECKSUM;
 393              		.loc 1 37 23 is_stmt 0 view .LVU107
 394 0148 4889DF   		movq	%rbx, %rdi
 395 014b E8000000 		call	_ZN10translator11genCheckSumEPKh
 395      00
 396              	.LVL41:
  37:Src/translator.cpp ****             return TYPE_BAD_CHECKSUM;
 397              		.loc 1 37 23 view .LVU108
 398 0150 4189C6   		movl	%eax, %r14d
  37:Src/translator.cpp ****             return TYPE_BAD_CHECKSUM;
 399              		.loc 1 37 47 view .LVU109
 400 0153 4889DF   		movq	%rbx, %rdi
 401 0156 E8000000 		call	_ZN10translator11getCheckSumEPKh
GAS LISTING /tmp/ccKEMYUq.s 			page 15


 401      00
 402              	.LVL42:
  37:Src/translator.cpp ****             return TYPE_BAD_CHECKSUM;
 403              		.loc 1 37 9 view .LVU110
 404 015b 664439F0 		cmpw	%r14w, %ax
 405 015f 7538     		jne	.L36
 406              	.LBB7:
  41:Src/translator.cpp ****         {
 407              		.loc 1 41 21 view .LVU111
 408 0161 B8000000 		movl	$0, %eax
 408      00
 409 0166 EB10     		jmp	.L33
 410              	.LVL43:
 411              	.L38:
  43:Src/translator.cpp ****         }
 412              		.loc 1 43 13 is_stmt 1 discriminator 2 view .LVU112
  43:Src/translator.cpp ****         }
 413              		.loc 1 43 36 is_stmt 0 discriminator 2 view .LVU113
 414 0168 0FB6D0   		movzbl	%al, %edx
  43:Src/translator.cpp ****         }
 415              		.loc 1 43 41 discriminator 2 view .LVU114
 416 016b 0FB64C13 		movzbl	3(%rbx,%rdx), %ecx
 416      03
  43:Src/translator.cpp ****         }
 417              		.loc 1 43 26 discriminator 2 view .LVU115
 418 0170 41884C15 		movb	%cl, 0(%r13,%rdx)
 418      00
  41:Src/translator.cpp ****         {
 419              		.loc 1 41 9 discriminator 2 view .LVU116
 420 0175 83C001   		addl	$1, %eax
 421              	.LVL44:
 422              	.L33:
  41:Src/translator.cpp ****         {
 423              		.loc 1 41 30 discriminator 3 view .LVU117
 424 0178 4038E8   		cmpb	%bpl, %al
 425 017b 72EB     		jb	.L38
 426              	.LVL45:
 427              	.L30:
  41:Src/translator.cpp ****         {
 428              		.loc 1 41 30 discriminator 3 view .LVU118
 429              	.LBE7:
  46:Src/translator.cpp **** 
 430              		.loc 1 46 5 view .LVU119
 431 017d 4489E0   		movl	%r12d, %eax
 432 0180 5B       		popq	%rbx
 433              		.cfi_remember_state
 434              		.cfi_def_cfa_offset 40
 435              	.LVL46:
  46:Src/translator.cpp **** 
 436              		.loc 1 46 5 view .LVU120
 437 0181 5D       		popq	%rbp
 438              		.cfi_def_cfa_offset 32
 439 0182 415C     		popq	%r12
 440              		.cfi_def_cfa_offset 24
 441 0184 415D     		popq	%r13
 442              		.cfi_def_cfa_offset 16
 443              	.LVL47:
GAS LISTING /tmp/ccKEMYUq.s 			page 16


  46:Src/translator.cpp **** 
 444              		.loc 1 46 5 view .LVU121
 445 0186 415E     		popq	%r14
 446              		.cfi_def_cfa_offset 8
 447 0188 C3       		ret
 448              	.LVL48:
 449              	.L34:
 450              		.cfi_restore_state
  32:Src/translator.cpp ****         uint8_t len = getLen(package);
 451              		.loc 1 32 20 view .LVU122
 452 0189 41BC6500 		movl	$101, %r12d
 452      0000
 453              	.LVL49:
  32:Src/translator.cpp ****         uint8_t len = getLen(package);
 454              		.loc 1 32 20 view .LVU123
 455 018f EBEC     		jmp	.L30
 456              	.LVL50:
 457              	.L35:
  35:Src/translator.cpp **** 
 458              		.loc 1 35 20 view .LVU124
 459 0191 41BC6400 		movl	$100, %r12d
 459      0000
 460              	.LVL51:
  35:Src/translator.cpp **** 
 461              		.loc 1 35 20 view .LVU125
 462 0197 EBE4     		jmp	.L30
 463              	.LVL52:
 464              	.L36:
  38:Src/translator.cpp **** 
 465              		.loc 1 38 20 view .LVU126
 466 0199 41BC6600 		movl	$102, %r12d
 466      0000
 467              	.LVL53:
  38:Src/translator.cpp **** 
 468              		.loc 1 38 20 view .LVU127
 469 019f EBDC     		jmp	.L30
 470              		.cfi_endproc
 471              	.LFE1505:
 473              		.globl	_ZN10translator8parseCmdEPhPPFvvE
 475              	_ZN10translator8parseCmdEPhPPFvvE:
 476              	.LVL54:
 477              	.LFB1506:
  51:Src/translator.cpp ****         uint8_t var = getType(package);
 478              		.loc 1 51 5 is_stmt 1 view -0
 479              		.cfi_startproc
  51:Src/translator.cpp ****         uint8_t var = getType(package);
 480              		.loc 1 51 5 is_stmt 0 view .LVU129
 481 01a1 4155     		pushq	%r13
 482              		.cfi_def_cfa_offset 16
 483              		.cfi_offset 13, -16
 484 01a3 4154     		pushq	%r12
 485              		.cfi_def_cfa_offset 24
 486              		.cfi_offset 12, -24
 487 01a5 55       		pushq	%rbp
 488              		.cfi_def_cfa_offset 32
 489              		.cfi_offset 6, -32
 490 01a6 53       		pushq	%rbx
GAS LISTING /tmp/ccKEMYUq.s 			page 17


 491              		.cfi_def_cfa_offset 40
 492              		.cfi_offset 3, -40
 493 01a7 4883EC08 		subq	$8, %rsp
 494              		.cfi_def_cfa_offset 48
 495 01ab 4889FB   		movq	%rdi, %rbx
 496 01ae 4989F4   		movq	%rsi, %r12
  52:Src/translator.cpp ****         if(var != TYPE_CMD)
 497              		.loc 1 52 9 is_stmt 1 view .LVU130
  52:Src/translator.cpp ****         if(var != TYPE_CMD)
 498              		.loc 1 52 30 is_stmt 0 view .LVU131
 499 01b1 E8000000 		call	_ZN10translator7getTypeEPKh
 499      00
 500              	.LVL55:
  53:Src/translator.cpp ****             return TYPE_BAD_TYPE;
 501              		.loc 1 53 9 is_stmt 1 view .LVU132
 502 01b6 3C01     		cmpb	$1, %al
 503 01b8 7538     		jne	.L41
  56:Src/translator.cpp ****         if(var != 1)
 504              		.loc 1 56 9 view .LVU133
  56:Src/translator.cpp ****         if(var != 1)
 505              		.loc 1 56 21 is_stmt 0 view .LVU134
 506 01ba 4889DF   		movq	%rbx, %rdi
 507 01bd E8000000 		call	_ZN10translator6getLenEPKh
 507      00
 508              	.LVL56:
  56:Src/translator.cpp ****         if(var != 1)
 509              		.loc 1 56 21 view .LVU135
 510 01c2 89C5     		movl	%eax, %ebp
 511              	.LVL57:
  57:Src/translator.cpp ****             return TYPE_BAD_LEN;
 512              		.loc 1 57 9 is_stmt 1 view .LVU136
 513 01c4 3C01     		cmpb	$1, %al
 514 01c6 753C     		jne	.L42
  60:Src/translator.cpp ****         if(check != getCheckSum(package))
 515              		.loc 1 60 9 view .LVU137
  60:Src/translator.cpp ****         if(check != getCheckSum(package))
 516              		.loc 1 60 39 is_stmt 0 view .LVU138
 517 01c8 4889DF   		movq	%rbx, %rdi
 518 01cb E8000000 		call	_ZN10translator11genCheckSumEPKh
 518      00
 519              	.LVL58:
  60:Src/translator.cpp ****         if(check != getCheckSum(package))
 520              		.loc 1 60 39 view .LVU139
 521 01d0 4189C5   		movl	%eax, %r13d
 522              	.LVL59:
  61:Src/translator.cpp ****             return TYPE_BAD_CHECKSUM;
 523              		.loc 1 61 9 is_stmt 1 view .LVU140
  61:Src/translator.cpp ****             return TYPE_BAD_CHECKSUM;
 524              		.loc 1 61 32 is_stmt 0 view .LVU141
 525 01d3 4889DF   		movq	%rbx, %rdi
 526 01d6 E8000000 		call	_ZN10translator11getCheckSumEPKh
 526      00
 527              	.LVL60:
  61:Src/translator.cpp ****             return TYPE_BAD_CHECKSUM;
 528              		.loc 1 61 9 view .LVU142
 529 01db 664439E8 		cmpw	%r13w, %ax
 530 01df 752A     		jne	.L43
GAS LISTING /tmp/ccKEMYUq.s 			page 18


  64:Src/translator.cpp ****             funcArr[package[3]]();
 531              		.loc 1 64 9 is_stmt 1 view .LVU143
  64:Src/translator.cpp ****             funcArr[package[3]]();
 532              		.loc 1 64 29 is_stmt 0 view .LVU144
 533 01e1 0FB64303 		movzbl	3(%rbx), %eax
  64:Src/translator.cpp ****             funcArr[package[3]]();
 534              		.loc 1 64 30 view .LVU145
 535 01e5 498B04C4 		movq	(%r12,%rax,8), %rax
  64:Src/translator.cpp ****             funcArr[package[3]]();
 536              		.loc 1 64 9 view .LVU146
 537 01e9 4885C0   		testq	%rax, %rax
 538 01ec 7409     		je	.L39
  65:Src/translator.cpp ****         return TYPE_CMD;
 539              		.loc 1 65 13 is_stmt 1 view .LVU147
  65:Src/translator.cpp ****         return TYPE_CMD;
 540              		.loc 1 65 32 is_stmt 0 view .LVU148
 541 01ee FFD0     		call	*%rax
 542              	.LVL61:
 543 01f0 EB05     		jmp	.L39
 544              	.LVL62:
 545              	.L41:
  54:Src/translator.cpp **** 
 546              		.loc 1 54 20 view .LVU149
 547 01f2 BD650000 		movl	$101, %ebp
 547      00
 548              	.LVL63:
 549              	.L39:
  67:Src/translator.cpp **** 
 550              		.loc 1 67 5 view .LVU150
 551 01f7 89E8     		movl	%ebp, %eax
 552 01f9 4883C408 		addq	$8, %rsp
 553              		.cfi_remember_state
 554              		.cfi_def_cfa_offset 40
 555 01fd 5B       		popq	%rbx
 556              		.cfi_def_cfa_offset 32
 557              	.LVL64:
  67:Src/translator.cpp **** 
 558              		.loc 1 67 5 view .LVU151
 559 01fe 5D       		popq	%rbp
 560              		.cfi_def_cfa_offset 24
 561 01ff 415C     		popq	%r12
 562              		.cfi_def_cfa_offset 16
 563              	.LVL65:
  67:Src/translator.cpp **** 
 564              		.loc 1 67 5 view .LVU152
 565 0201 415D     		popq	%r13
 566              		.cfi_def_cfa_offset 8
 567 0203 C3       		ret
 568              	.LVL66:
 569              	.L42:
 570              		.cfi_restore_state
  58:Src/translator.cpp **** 
 571              		.loc 1 58 20 view .LVU153
 572 0204 BD640000 		movl	$100, %ebp
 572      00
 573 0209 EBEC     		jmp	.L39
 574              	.LVL67:
GAS LISTING /tmp/ccKEMYUq.s 			page 19


 575              	.L43:
  62:Src/translator.cpp **** 
 576              		.loc 1 62 20 view .LVU154
 577 020b BD660000 		movl	$102, %ebp
 577      00
 578              	.LVL68:
  62:Src/translator.cpp **** 
 579              		.loc 1 62 20 view .LVU155
 580 0210 EBE5     		jmp	.L39
 581              		.cfi_endproc
 582              	.LFE1506:
 584              		.globl	_ZN10translator11generateCmdEhPh
 586              	_ZN10translator11generateCmdEhPh:
 587              	.LVL69:
 588              	.LFB1512:
 114:Src/translator.cpp ****         tgt[0] = getZeroByte(TYPE_CMD, 1);
 589              		.loc 1 114 5 is_stmt 1 view -0
 590              		.cfi_startproc
 114:Src/translator.cpp ****         tgt[0] = getZeroByte(TYPE_CMD, 1);
 591              		.loc 1 114 5 is_stmt 0 view .LVU157
 592 0212 55       		pushq	%rbp
 593              		.cfi_def_cfa_offset 16
 594              		.cfi_offset 6, -16
 595 0213 53       		pushq	%rbx
 596              		.cfi_def_cfa_offset 24
 597              		.cfi_offset 3, -24
 598 0214 89FD     		movl	%edi, %ebp
 599 0216 4889F3   		movq	%rsi, %rbx
 115:Src/translator.cpp ****         tgt[3] = cmd;
 600              		.loc 1 115 9 is_stmt 1 view .LVU158
 115:Src/translator.cpp ****         tgt[3] = cmd;
 601              		.loc 1 115 29 is_stmt 0 view .LVU159
 602 0219 BE010000 		movl	$1, %esi
 602      00
 603              	.LVL70:
 115:Src/translator.cpp ****         tgt[3] = cmd;
 604              		.loc 1 115 29 view .LVU160
 605 021e BF010000 		movl	$1, %edi
 605      00
 606              	.LVL71:
 115:Src/translator.cpp ****         tgt[3] = cmd;
 607              		.loc 1 115 29 view .LVU161
 608 0223 E8000000 		call	_ZN10translator11getZeroByteEhh
 608      00
 609              	.LVL72:
 115:Src/translator.cpp ****         tgt[3] = cmd;
 610              		.loc 1 115 16 view .LVU162
 611 0228 8803     		movb	%al, (%rbx)
 116:Src/translator.cpp ****         checksum_t check = getCheckSum(tgt);
 612              		.loc 1 116 9 is_stmt 1 view .LVU163
 116:Src/translator.cpp ****         checksum_t check = getCheckSum(tgt);
 613              		.loc 1 116 16 is_stmt 0 view .LVU164
 614 022a 40886B03 		movb	%bpl, 3(%rbx)
 117:Src/translator.cpp ****         tgt[1] = check >> 8;
 615              		.loc 1 117 9 is_stmt 1 view .LVU165
 117:Src/translator.cpp ****         tgt[1] = check >> 8;
 616              		.loc 1 117 39 is_stmt 0 view .LVU166
GAS LISTING /tmp/ccKEMYUq.s 			page 20


 617 022e 4889DF   		movq	%rbx, %rdi
 618 0231 E8000000 		call	_ZN10translator11getCheckSumEPKh
 618      00
 619              	.LVL73:
 118:Src/translator.cpp ****         tgt[2] = check & 0xFF;
 620              		.loc 1 118 9 is_stmt 1 view .LVU167
 118:Src/translator.cpp ****         tgt[2] = check & 0xFF;
 621              		.loc 1 118 24 is_stmt 0 view .LVU168
 622 0236 0FB6D4   		movzbl	%ah, %edx
 118:Src/translator.cpp ****         tgt[2] = check & 0xFF;
 623              		.loc 1 118 16 view .LVU169
 624 0239 885301   		movb	%dl, 1(%rbx)
 119:Src/translator.cpp ****     }
 625              		.loc 1 119 9 is_stmt 1 view .LVU170
 119:Src/translator.cpp ****     }
 626              		.loc 1 119 16 is_stmt 0 view .LVU171
 627 023c 884302   		movb	%al, 2(%rbx)
 120:Src/translator.cpp **** 
 628              		.loc 1 120 5 view .LVU172
 629 023f 5B       		popq	%rbx
 630              		.cfi_def_cfa_offset 16
 631              	.LVL74:
 120:Src/translator.cpp **** 
 632              		.loc 1 120 5 view .LVU173
 633 0240 5D       		popq	%rbp
 634              		.cfi_def_cfa_offset 8
 635 0241 C3       		ret
 636              		.cfi_endproc
 637              	.LFE1512:
 639              		.globl	_ZN10translator8validateEPKh
 641              	_ZN10translator8validateEPKh:
 642              	.LVL75:
 643              	.LFB1514:
 135:Src/translator.cpp ****         uint8_t type = getType(pack);
 644              		.loc 1 135 5 is_stmt 1 view -0
 645              		.cfi_startproc
 135:Src/translator.cpp ****         uint8_t type = getType(pack);
 646              		.loc 1 135 5 is_stmt 0 view .LVU175
 647 0242 55       		pushq	%rbp
 648              		.cfi_def_cfa_offset 16
 649              		.cfi_offset 6, -16
 650 0243 53       		pushq	%rbx
 651              		.cfi_def_cfa_offset 24
 652              		.cfi_offset 3, -24
 653 0244 4889FB   		movq	%rdi, %rbx
 136:Src/translator.cpp ****         switch (type)
 654              		.loc 1 136 9 is_stmt 1 view .LVU176
 136:Src/translator.cpp ****         switch (type)
 655              		.loc 1 136 31 is_stmt 0 view .LVU177
 656 0247 E8000000 		call	_ZN10translator7getTypeEPKh
 656      00
 657              	.LVL76:
 137:Src/translator.cpp ****         {
 658              		.loc 1 137 9 is_stmt 1 view .LVU178
 659 024c 3C01     		cmpb	$1, %al
 660 024e 7432     		je	.L48
 661 0250 84C0     		testb	%al, %al
GAS LISTING /tmp/ccKEMYUq.s 			page 21


 662 0252 7441     		je	.L52
 663 0254 83E802   		subl	$2, %eax
 664              	.LVL77:
 137:Src/translator.cpp ****         {
 665              		.loc 1 137 9 is_stmt 0 view .LVU179
 666 0257 3C01     		cmpb	$1, %al
 667 0259 7741     		ja	.L58
 145:Src/translator.cpp ****             case TYPE_ARR:
 668              		.loc 1 145 13 is_stmt 1 view .LVU180
 146:Src/translator.cpp ****             {
 669              		.loc 1 146 13 view .LVU181
 147:Src/translator.cpp ****                 if(getLen(pack) <= 1)
 670              		.loc 1 147 13 view .LVU182
 148:Src/translator.cpp ****                     return false;
 671              		.loc 1 148 17 view .LVU183
 148:Src/translator.cpp ****                     return false;
 672              		.loc 1 148 26 is_stmt 0 view .LVU184
 673 025b 4889DF   		movq	%rbx, %rdi
 674 025e E8000000 		call	_ZN10translator6getLenEPKh
 674      00
 675              	.LVL78:
 148:Src/translator.cpp ****                     return false;
 676              		.loc 1 148 17 view .LVU185
 677 0263 3C01     		cmpb	$1, %al
 678 0265 763C     		jbe	.L55
 679              	.L51:
 155:Src/translator.cpp ****     }
 680              		.loc 1 155 9 is_stmt 1 view .LVU186
 155:Src/translator.cpp ****     }
 681              		.loc 1 155 28 is_stmt 0 view .LVU187
 682 0267 4889DF   		movq	%rbx, %rdi
 683 026a E8000000 		call	_ZN10translator11getCheckSumEPKh
 683      00
 684              	.LVL79:
 685 026f 89C5     		movl	%eax, %ebp
 155:Src/translator.cpp ****     }
 686              		.loc 1 155 49 view .LVU188
 687 0271 4889DF   		movq	%rbx, %rdi
 688 0274 E8000000 		call	_ZN10translator11genCheckSumEPKh
 688      00
 689              	.LVL80:
 155:Src/translator.cpp ****     }
 690              		.loc 1 155 55 view .LVU189
 691 0279 6639C5   		cmpw	%ax, %bp
 692 027c 0F94C0   		sete	%al
 693              	.L47:
 156:Src/translator.cpp **** 
 694              		.loc 1 156 5 view .LVU190
 695 027f 5B       		popq	%rbx
 696              		.cfi_remember_state
 697              		.cfi_def_cfa_offset 16
 698              	.LVL81:
 156:Src/translator.cpp **** 
 699              		.loc 1 156 5 view .LVU191
 700 0280 5D       		popq	%rbp
 701              		.cfi_def_cfa_offset 8
 702 0281 C3       		ret
GAS LISTING /tmp/ccKEMYUq.s 			page 22


 703              	.LVL82:
 704              	.L48:
 705              		.cfi_restore_state
 139:Src/translator.cpp ****             {
 706              		.loc 1 139 13 is_stmt 1 view .LVU192
 140:Src/translator.cpp ****                 if(getLen(pack) != 1)
 707              		.loc 1 140 13 view .LVU193
 141:Src/translator.cpp ****                     return false;
 708              		.loc 1 141 17 view .LVU194
 141:Src/translator.cpp ****                     return false;
 709              		.loc 1 141 26 is_stmt 0 view .LVU195
 710 0282 4889DF   		movq	%rbx, %rdi
 711 0285 E8000000 		call	_ZN10translator6getLenEPKh
 711      00
 712              	.LVL83:
 141:Src/translator.cpp ****                     return false;
 713              		.loc 1 141 17 view .LVU196
 714 028a 3C01     		cmpb	$1, %al
 715 028c 74D9     		je	.L51
 142:Src/translator.cpp ****                 break;
 716              		.loc 1 142 28 view .LVU197
 717 028e B8000000 		movl	$0, %eax
 717      00
 718 0293 EBEA     		jmp	.L47
 719              	.LVL84:
 720              	.L52:
 137:Src/translator.cpp ****         {
 721              		.loc 1 137 9 view .LVU198
 722 0295 B8000000 		movl	$0, %eax
 722      00
 723              	.LVL85:
 137:Src/translator.cpp ****         {
 724              		.loc 1 137 9 view .LVU199
 725 029a EBE3     		jmp	.L47
 726              	.L58:
 727 029c B8000000 		movl	$0, %eax
 727      00
 728 02a1 EBDC     		jmp	.L47
 729              	.L55:
 149:Src/translator.cpp ****                 break;
 730              		.loc 1 149 28 view .LVU200
 731 02a3 B8000000 		movl	$0, %eax
 731      00
 732 02a8 EBD5     		jmp	.L47
 733              		.cfi_endproc
 734              	.LFE1514:
 736              		.globl	_ZN10translator8getVarIdEPKh
 738              	_ZN10translator8getVarIdEPKh:
 739              	.LVL86:
 740              	.LFB1513:
 125:Src/translator.cpp ****         if(!validate(pack))
 741              		.loc 1 125 5 is_stmt 1 view -0
 742              		.cfi_startproc
 125:Src/translator.cpp ****         if(!validate(pack))
 743              		.loc 1 125 5 is_stmt 0 view .LVU202
 744 02aa 53       		pushq	%rbx
 745              		.cfi_def_cfa_offset 16
GAS LISTING /tmp/ccKEMYUq.s 			page 23


 746              		.cfi_offset 3, -16
 747 02ab 4889FB   		movq	%rdi, %rbx
 126:Src/translator.cpp ****             return 0xFF;
 748              		.loc 1 126 9 is_stmt 1 view .LVU203
 126:Src/translator.cpp ****             return 0xFF;
 749              		.loc 1 126 21 is_stmt 0 view .LVU204
 750 02ae E8000000 		call	_ZN10translator8validateEPKh
 750      00
 751              	.LVL87:
 126:Src/translator.cpp ****             return 0xFF;
 752              		.loc 1 126 9 view .LVU205
 753 02b3 84C0     		testb	%al, %al
 754 02b5 7406     		je	.L61
 129:Src/translator.cpp ****     }
 755              		.loc 1 129 9 is_stmt 1 view .LVU206
 129:Src/translator.cpp ****     }
 756              		.loc 1 129 22 is_stmt 0 view .LVU207
 757 02b7 0FB64303 		movzbl	3(%rbx), %eax
 758              	.L59:
 130:Src/translator.cpp **** 
 759              		.loc 1 130 5 view .LVU208
 760 02bb 5B       		popq	%rbx
 761              		.cfi_remember_state
 762              		.cfi_def_cfa_offset 8
 763              	.LVL88:
 130:Src/translator.cpp **** 
 764              		.loc 1 130 5 view .LVU209
 765 02bc C3       		ret
 766              	.LVL89:
 767              	.L61:
 768              		.cfi_restore_state
 127:Src/translator.cpp **** 
 769              		.loc 1 127 20 view .LVU210
 770 02bd B8FFFFFF 		movl	$-1, %eax
 770      FF
 771 02c2 EBF7     		jmp	.L59
 772              		.cfi_endproc
 773              	.LFE1513:
 775              		.globl	_ZN10translator11generateVarEhhPKhPh
 777              	_ZN10translator11generateVarEhhPKhPh:
 778              	.LVL90:
 779              	.LFB1515:
 160:Src/translator.cpp ****         tgt[0] = getZeroByte(TYPE_VAR, varlen + 1);
 780              		.loc 1 160 5 is_stmt 1 view -0
 781              		.cfi_startproc
 160:Src/translator.cpp ****         tgt[0] = getZeroByte(TYPE_VAR, varlen + 1);
 782              		.loc 1 160 5 is_stmt 0 view .LVU212
 783 02c4 4155     		pushq	%r13
 784              		.cfi_def_cfa_offset 16
 785              		.cfi_offset 13, -16
 786 02c6 4154     		pushq	%r12
 787              		.cfi_def_cfa_offset 24
 788              		.cfi_offset 12, -24
 789 02c8 55       		pushq	%rbp
 790              		.cfi_def_cfa_offset 32
 791              		.cfi_offset 6, -32
 792 02c9 53       		pushq	%rbx
GAS LISTING /tmp/ccKEMYUq.s 			page 24


 793              		.cfi_def_cfa_offset 40
 794              		.cfi_offset 3, -40
 795 02ca 4189FD   		movl	%edi, %r13d
 796 02cd 4989D4   		movq	%rdx, %r12
 797 02d0 4889CD   		movq	%rcx, %rbp
 798 02d3 89F3     		movl	%esi, %ebx
 161:Src/translator.cpp ****         tgt[3] = id;
 799              		.loc 1 161 9 is_stmt 1 view .LVU213
 161:Src/translator.cpp ****         tgt[3] = id;
 800              		.loc 1 161 47 is_stmt 0 view .LVU214
 801 02d5 83C601   		addl	$1, %esi
 802              	.LVL91:
 161:Src/translator.cpp ****         tgt[3] = id;
 803              		.loc 1 161 29 view .LVU215
 804 02d8 400FB6F6 		movzbl	%sil, %esi
 805 02dc BF020000 		movl	$2, %edi
 805      00
 806              	.LVL92:
 161:Src/translator.cpp ****         tgt[3] = id;
 807              		.loc 1 161 29 view .LVU216
 808 02e1 E8000000 		call	_ZN10translator11getZeroByteEhh
 808      00
 809              	.LVL93:
 161:Src/translator.cpp ****         tgt[3] = id;
 810              		.loc 1 161 16 view .LVU217
 811 02e6 884500   		movb	%al, 0(%rbp)
 162:Src/translator.cpp ****         for(uint8_t i = 0; i < varlen; i++)
 812              		.loc 1 162 9 is_stmt 1 view .LVU218
 162:Src/translator.cpp ****         for(uint8_t i = 0; i < varlen; i++)
 813              		.loc 1 162 16 is_stmt 0 view .LVU219
 814 02e9 44886D03 		movb	%r13b, 3(%rbp)
 163:Src/translator.cpp ****         {
 815              		.loc 1 163 9 is_stmt 1 view .LVU220
 816              	.LVL94:
 817              	.LBB8:
 163:Src/translator.cpp ****         {
 818              		.loc 1 163 21 is_stmt 0 view .LVU221
 819 02ed B9000000 		movl	$0, %ecx
 819      00
 820              	.LVL95:
 821              	.L65:
 163:Src/translator.cpp ****         {
 822              		.loc 1 163 30 discriminator 3 view .LVU222
 823 02f2 38D9     		cmpb	%bl, %cl
 824 02f4 731F     		jnb	.L64
 165:Src/translator.cpp ****             // std::cout << "from " << (int)(i) << " to " << (int)(i + 4) << " set 0x" << std::hex 
 825              		.loc 1 165 13 is_stmt 1 discriminator 2 view .LVU223
 165:Src/translator.cpp ****             // std::cout << "from " << (int)(i) << " to " << (int)(i + 4) << " set 0x" << std::hex 
 826              		.loc 1 165 30 is_stmt 0 discriminator 2 view .LVU224
 827 02f6 0FB6C3   		movzbl	%bl, %eax
 165:Src/translator.cpp ****             // std::cout << "from " << (int)(i) << " to " << (int)(i + 4) << " set 0x" << std::hex 
 828              		.loc 1 165 39 discriminator 2 view .LVU225
 829 02f9 0FB6D1   		movzbl	%cl, %edx
 165:Src/translator.cpp ****             // std::cout << "from " << (int)(i) << " to " << (int)(i + 4) << " set 0x" << std::hex 
 830              		.loc 1 165 37 discriminator 2 view .LVU226
 831 02fc 29D0     		subl	%edx, %eax
 832 02fe 4898     		cltq
GAS LISTING /tmp/ccKEMYUq.s 			page 25


 165:Src/translator.cpp ****             // std::cout << "from " << (int)(i) << " to " << (int)(i + 4) << " set 0x" << std::hex 
 833              		.loc 1 165 19 discriminator 2 view .LVU227
 834 0300 83C204   		addl	$4, %edx
 835 0303 4863D2   		movslq	%edx, %rdx
 165:Src/translator.cpp ****             // std::cout << "from " << (int)(i) << " to " << (int)(i + 4) << " set 0x" << std::hex 
 836              		.loc 1 165 44 discriminator 2 view .LVU228
 837 0306 410FB644 		movzbl	-1(%r12,%rax), %eax
 837      04FF
 165:Src/translator.cpp ****             // std::cout << "from " << (int)(i) << " to " << (int)(i + 4) << " set 0x" << std::hex 
 838              		.loc 1 165 24 discriminator 2 view .LVU229
 839 030c 88441500 		movb	%al, 0(%rbp,%rdx)
 163:Src/translator.cpp ****         {
 840              		.loc 1 163 9 discriminator 2 view .LVU230
 841 0310 83C101   		addl	$1, %ecx
 842              	.LVL96:
 163:Src/translator.cpp ****         {
 843              		.loc 1 163 9 discriminator 2 view .LVU231
 844 0313 EBDD     		jmp	.L65
 845              	.L64:
 163:Src/translator.cpp ****         {
 846              		.loc 1 163 9 discriminator 2 view .LVU232
 847              	.LBE8:
 168:Src/translator.cpp ****         tgt[1] = check >> 8;
 848              		.loc 1 168 9 is_stmt 1 view .LVU233
 168:Src/translator.cpp ****         tgt[1] = check >> 8;
 849              		.loc 1 168 39 is_stmt 0 view .LVU234
 850 0315 4889EF   		movq	%rbp, %rdi
 851 0318 E8000000 		call	_ZN10translator11genCheckSumEPKh
 851      00
 852              	.LVL97:
 169:Src/translator.cpp ****         tgt[2] = check & 0xFF;
 853              		.loc 1 169 9 is_stmt 1 view .LVU235
 169:Src/translator.cpp ****         tgt[2] = check & 0xFF;
 854              		.loc 1 169 24 is_stmt 0 view .LVU236
 855 031d 0FB6D4   		movzbl	%ah, %edx
 169:Src/translator.cpp ****         tgt[2] = check & 0xFF;
 856              		.loc 1 169 16 view .LVU237
 857 0320 885501   		movb	%dl, 1(%rbp)
 170:Src/translator.cpp ****     }
 858              		.loc 1 170 9 is_stmt 1 view .LVU238
 170:Src/translator.cpp ****     }
 859              		.loc 1 170 16 is_stmt 0 view .LVU239
 860 0323 884502   		movb	%al, 2(%rbp)
 171:Src/translator.cpp **** 
 861              		.loc 1 171 5 view .LVU240
 862 0326 5B       		popq	%rbx
 863              		.cfi_def_cfa_offset 32
 864              	.LVL98:
 171:Src/translator.cpp **** 
 865              		.loc 1 171 5 view .LVU241
 866 0327 5D       		popq	%rbp
 867              		.cfi_def_cfa_offset 24
 868              	.LVL99:
 171:Src/translator.cpp **** 
 869              		.loc 1 171 5 view .LVU242
 870 0328 415C     		popq	%r12
 871              		.cfi_def_cfa_offset 16
GAS LISTING /tmp/ccKEMYUq.s 			page 26


 872              	.LVL100:
 171:Src/translator.cpp **** 
 873              		.loc 1 171 5 view .LVU243
 874 032a 415D     		popq	%r13
 875              		.cfi_def_cfa_offset 8
 876 032c C3       		ret
 877              		.cfi_endproc
 878              	.LFE1515:
 880              		.globl	_ZN10translator8parseVarEPhS0_h
 882              	_ZN10translator8parseVarEPhS0_h:
 883              	.LVL101:
 884              	.LFB1516:
 176:Src/translator.cpp ****         uint8_t type = getType(package);
 885              		.loc 1 176 5 is_stmt 1 view -0
 886              		.cfi_startproc
 176:Src/translator.cpp ****         uint8_t type = getType(package);
 887              		.loc 1 176 5 is_stmt 0 view .LVU245
 888 032d 4157     		pushq	%r15
 889              		.cfi_def_cfa_offset 16
 890              		.cfi_offset 15, -16
 891 032f 4156     		pushq	%r14
 892              		.cfi_def_cfa_offset 24
 893              		.cfi_offset 14, -24
 894 0331 4155     		pushq	%r13
 895              		.cfi_def_cfa_offset 32
 896              		.cfi_offset 13, -32
 897 0333 4154     		pushq	%r12
 898              		.cfi_def_cfa_offset 40
 899              		.cfi_offset 12, -40
 900 0335 55       		pushq	%rbp
 901              		.cfi_def_cfa_offset 48
 902              		.cfi_offset 6, -48
 903 0336 53       		pushq	%rbx
 904              		.cfi_def_cfa_offset 56
 905              		.cfi_offset 3, -56
 906 0337 4889FB   		movq	%rdi, %rbx
 907 033a 4989F4   		movq	%rsi, %r12
 908 033d 4189D5   		movl	%edx, %r13d
 177:Src/translator.cpp ****         if(type != TYPE_VAR)
 909              		.loc 1 177 9 is_stmt 1 view .LVU246
 177:Src/translator.cpp ****         if(type != TYPE_VAR)
 910              		.loc 1 177 31 is_stmt 0 view .LVU247
 911 0340 E8000000 		call	_ZN10translator7getTypeEPKh
 911      00
 912              	.LVL102:
 178:Src/translator.cpp ****             return TYPE_BAD_TYPE;
 913              		.loc 1 178 9 is_stmt 1 view .LVU248
 914 0345 3C02     		cmpb	$2, %al
 915 0347 7561     		jne	.L70
 916 0349 89C5     		movl	%eax, %ebp
 180:Src/translator.cpp ****         if(len < 2)
 917              		.loc 1 180 9 view .LVU249
 180:Src/translator.cpp ****         if(len < 2)
 918              		.loc 1 180 29 is_stmt 0 view .LVU250
 919 034b 4889DF   		movq	%rbx, %rdi
 920 034e E8000000 		call	_ZN10translator6getLenEPKh
 920      00
GAS LISTING /tmp/ccKEMYUq.s 			page 27


 921              	.LVL103:
 180:Src/translator.cpp ****         if(len < 2)
 922              		.loc 1 180 29 view .LVU251
 923 0353 4189C6   		movl	%eax, %r14d
 924              	.LVL104:
 181:Src/translator.cpp ****             return TYPE_BAD_LEN;
 925              		.loc 1 181 9 is_stmt 1 view .LVU252
 926 0356 3C01     		cmpb	$1, %al
 927 0358 7662     		jbe	.L71
 183:Src/translator.cpp ****                     thischeck = getCheckSum(package);
 928              		.loc 1 183 9 view .LVU253
 183:Src/translator.cpp ****                     thischeck = getCheckSum(package);
 929              		.loc 1 183 40 is_stmt 0 view .LVU254
 930 035a 4889DF   		movq	%rbx, %rdi
 931 035d E8000000 		call	_ZN10translator11genCheckSumEPKh
 931      00
 932              	.LVL105:
 183:Src/translator.cpp ****                     thischeck = getCheckSum(package);
 933              		.loc 1 183 40 view .LVU255
 934 0362 4189C7   		movl	%eax, %r15d
 935              	.LVL106:
 184:Src/translator.cpp ****         if(check != thischeck)
 936              		.loc 1 184 44 view .LVU256
 937 0365 4889DF   		movq	%rbx, %rdi
 938 0368 E8000000 		call	_ZN10translator11getCheckSumEPKh
 938      00
 939              	.LVL107:
 185:Src/translator.cpp ****             return TYPE_BAD_CHECKSUM;
 940              		.loc 1 185 9 is_stmt 1 view .LVU257
 941 036d 664139C7 		cmpw	%ax, %r15w
 942 0371 7550     		jne	.L72
 188:Src/translator.cpp ****         for(uint8_t i = 0; i < len - 1; i++)
 943              		.loc 1 188 9 view .LVU258
 188:Src/translator.cpp ****         for(uint8_t i = 0; i < len - 1; i++)
 944              		.loc 1 188 17 is_stmt 0 view .LVU259
 945 0373 0FB67303 		movzbl	3(%rbx), %esi
 946              	.LVL108:
 189:Src/translator.cpp ****         {
 947              		.loc 1 189 9 is_stmt 1 view .LVU260
 948              	.LBB9:
 189:Src/translator.cpp ****         {
 949              		.loc 1 189 21 is_stmt 0 view .LVU261
 950 0377 B9000000 		movl	$0, %ecx
 950      00
 951              	.LVL109:
 952              	.L69:
 189:Src/translator.cpp ****         {
 953              		.loc 1 189 28 discriminator 3 view .LVU262
 954 037c 0FB6C1   		movzbl	%cl, %eax
 189:Src/translator.cpp ****         {
 955              		.loc 1 189 32 discriminator 3 view .LVU263
 956 037f 410FB6D6 		movzbl	%r14b, %edx
 189:Src/translator.cpp ****         {
 957              		.loc 1 189 36 discriminator 3 view .LVU264
 958 0383 83EA01   		subl	$1, %edx
 189:Src/translator.cpp ****         {
 959              		.loc 1 189 30 discriminator 3 view .LVU265
GAS LISTING /tmp/ccKEMYUq.s 			page 28


 960 0386 39D0     		cmpl	%edx, %eax
 961 0388 7D25     		jge	.L67
 191:Src/translator.cpp ****             // std::cout << "from " << (int)((id + i) * elsize) << " to " << (int)(i + 4) << std::e
 962              		.loc 1 191 13 is_stmt 1 discriminator 2 view .LVU266
 191:Src/translator.cpp ****             // std::cout << "from " << (int)((id + i) * elsize) << " to " << (int)(i + 4) << std::e
 963              		.loc 1 191 48 is_stmt 0 discriminator 2 view .LVU267
 964 038a 0FB6D1   		movzbl	%cl, %edx
 191:Src/translator.cpp ****             // std::cout << "from " << (int)((id + i) * elsize) << " to " << (int)(i + 4) << std::e
 965              		.loc 1 191 20 discriminator 2 view .LVU268
 966 038d 400FB6FE 		movzbl	%sil, %edi
 191:Src/translator.cpp ****             // std::cout << "from " << (int)((id + i) * elsize) << " to " << (int)(i + 4) << std::e
 967              		.loc 1 191 23 discriminator 2 view .LVU269
 968 0391 01F8     		addl	%edi, %eax
 191:Src/translator.cpp ****             // std::cout << "from " << (int)((id + i) * elsize) << " to " << (int)(i + 4) << std::e
 969              		.loc 1 191 30 discriminator 2 view .LVU270
 970 0393 410FB6FD 		movzbl	%r13b, %edi
 191:Src/translator.cpp ****             // std::cout << "from " << (int)((id + i) * elsize) << " to " << (int)(i + 4) << std::e
 971              		.loc 1 191 28 discriminator 2 view .LVU271
 972 0397 0FAFC7   		imull	%edi, %eax
 973 039a 4898     		cltq
 191:Src/translator.cpp ****             // std::cout << "from " << (int)((id + i) * elsize) << " to " << (int)(i + 4) << std::e
 974              		.loc 1 191 53 discriminator 2 view .LVU272
 975 039c 0FB65413 		movzbl	4(%rbx,%rdx), %edx
 975      04
 191:Src/translator.cpp ****             // std::cout << "from " << (int)((id + i) * elsize) << " to " << (int)(i + 4) << std::e
 976              		.loc 1 191 38 discriminator 2 view .LVU273
 977 03a1 41881404 		movb	%dl, (%r12,%rax)
 189:Src/translator.cpp ****         {
 978              		.loc 1 189 9 discriminator 2 view .LVU274
 979 03a5 83C101   		addl	$1, %ecx
 980              	.LVL110:
 189:Src/translator.cpp ****         {
 981              		.loc 1 189 9 discriminator 2 view .LVU275
 982 03a8 EBD2     		jmp	.L69
 983              	.LVL111:
 984              	.L70:
 189:Src/translator.cpp ****         {
 985              		.loc 1 189 9 discriminator 2 view .LVU276
 986              	.LBE9:
 179:Src/translator.cpp ****         uint8_t len = getLen(package);
 987              		.loc 1 179 20 view .LVU277
 988 03aa BD650000 		movl	$101, %ebp
 988      00
 989              	.LVL112:
 990              	.L67:
 195:Src/translator.cpp ****     
 991              		.loc 1 195 5 view .LVU278
 992 03af 89E8     		movl	%ebp, %eax
 993 03b1 5B       		popq	%rbx
 994              		.cfi_remember_state
 995              		.cfi_def_cfa_offset 48
 996              	.LVL113:
 195:Src/translator.cpp ****     
 997              		.loc 1 195 5 view .LVU279
 998 03b2 5D       		popq	%rbp
 999              		.cfi_def_cfa_offset 40
 1000 03b3 415C     		popq	%r12
GAS LISTING /tmp/ccKEMYUq.s 			page 29


 1001              		.cfi_def_cfa_offset 32
 1002              	.LVL114:
 195:Src/translator.cpp ****     
 1003              		.loc 1 195 5 view .LVU280
 1004 03b5 415D     		popq	%r13
 1005              		.cfi_def_cfa_offset 24
 1006              	.LVL115:
 195:Src/translator.cpp ****     
 1007              		.loc 1 195 5 view .LVU281
 1008 03b7 415E     		popq	%r14
 1009              		.cfi_def_cfa_offset 16
 1010 03b9 415F     		popq	%r15
 1011              		.cfi_def_cfa_offset 8
 1012 03bb C3       		ret
 1013              	.LVL116:
 1014              	.L71:
 1015              		.cfi_restore_state
 182:Src/translator.cpp ****         checksum_t  check = genCheckSum(package),
 1016              		.loc 1 182 20 view .LVU282
 1017 03bc BD640000 		movl	$100, %ebp
 1017      00
 1018              	.LVL117:
 182:Src/translator.cpp ****         checksum_t  check = genCheckSum(package),
 1019              		.loc 1 182 20 view .LVU283
 1020 03c1 EBEC     		jmp	.L67
 1021              	.LVL118:
 1022              	.L72:
 186:Src/translator.cpp **** 
 1023              		.loc 1 186 20 view .LVU284
 1024 03c3 BD660000 		movl	$102, %ebp
 1024      00
 1025              	.LVL119:
 186:Src/translator.cpp **** 
 1026              		.loc 1 186 20 view .LVU285
 1027 03c8 EBE5     		jmp	.L67
 1028              		.cfi_endproc
 1029              	.LFE1516:
 1031              		.globl	_ZN10translator11generateArrEhhhPKhPh
 1033              	_ZN10translator11generateArrEhhhPKhPh:
 1034              	.LVL120:
 1035              	.LFB1517:
 200:Src/translator.cpp ****         tgt[0] = getZeroByte(TYPE_ARR, (arrlen * elsize) + 1);
 1036              		.loc 1 200 5 is_stmt 1 view -0
 1037              		.cfi_startproc
 200:Src/translator.cpp ****         tgt[0] = getZeroByte(TYPE_ARR, (arrlen * elsize) + 1);
 1038              		.loc 1 200 5 is_stmt 0 view .LVU287
 1039 03ca 4156     		pushq	%r14
 1040              		.cfi_def_cfa_offset 16
 1041              		.cfi_offset 14, -16
 1042 03cc 4155     		pushq	%r13
 1043              		.cfi_def_cfa_offset 24
 1044              		.cfi_offset 13, -24
 1045 03ce 4154     		pushq	%r12
 1046              		.cfi_def_cfa_offset 32
 1047              		.cfi_offset 12, -32
 1048 03d0 55       		pushq	%rbp
 1049              		.cfi_def_cfa_offset 40
GAS LISTING /tmp/ccKEMYUq.s 			page 30


 1050              		.cfi_offset 6, -40
 1051 03d1 53       		pushq	%rbx
 1052              		.cfi_def_cfa_offset 48
 1053              		.cfi_offset 3, -48
 1054 03d2 4189FE   		movl	%edi, %r14d
 1055 03d5 89D0     		movl	%edx, %eax
 1056 03d7 4989CC   		movq	%rcx, %r12
 1057 03da 4C89C5   		movq	%r8, %rbp
 1058 03dd 4189F5   		movl	%esi, %r13d
 1059 03e0 89D3     		movl	%edx, %ebx
 201:Src/translator.cpp ****         tgt[3] = id;
 1060              		.loc 1 201 9 is_stmt 1 view .LVU288
 201:Src/translator.cpp ****         tgt[3] = id;
 1061              		.loc 1 201 48 is_stmt 0 view .LVU289
 1062 03e2 0FAFC6   		imull	%esi, %eax
 201:Src/translator.cpp ****         tgt[3] = id;
 1063              		.loc 1 201 58 view .LVU290
 1064 03e5 8D7001   		leal	1(%rax), %esi
 1065              	.LVL121:
 201:Src/translator.cpp ****         tgt[3] = id;
 1066              		.loc 1 201 29 view .LVU291
 1067 03e8 400FB6F6 		movzbl	%sil, %esi
 1068 03ec BF030000 		movl	$3, %edi
 1068      00
 1069              	.LVL122:
 201:Src/translator.cpp ****         tgt[3] = id;
 1070              		.loc 1 201 29 view .LVU292
 1071 03f1 E8000000 		call	_ZN10translator11getZeroByteEhh
 1071      00
 1072              	.LVL123:
 201:Src/translator.cpp ****         tgt[3] = id;
 1073              		.loc 1 201 16 view .LVU293
 1074 03f6 884500   		movb	%al, 0(%rbp)
 202:Src/translator.cpp ****         for(uint8_t i = 0; i < arrlen; i++)
 1075              		.loc 1 202 9 is_stmt 1 view .LVU294
 202:Src/translator.cpp ****         for(uint8_t i = 0; i < arrlen; i++)
 1076              		.loc 1 202 16 is_stmt 0 view .LVU295
 1077 03f9 44887503 		movb	%r14b, 3(%rbp)
 203:Src/translator.cpp ****         {
 1078              		.loc 1 203 9 is_stmt 1 view .LVU296
 1079              	.LVL124:
 1080              	.LBB10:
 203:Src/translator.cpp ****         {
 1081              		.loc 1 203 21 is_stmt 0 view .LVU297
 1082 03fd BE000000 		movl	$0, %esi
 1082      00
 1083 0402 EB03     		jmp	.L78
 1084              	.LVL125:
 1085              	.L76:
 203:Src/translator.cpp ****         {
 1086              		.loc 1 203 9 discriminator 2 view .LVU298
 1087 0404 83C601   		addl	$1, %esi
 1088              	.LVL126:
 1089              	.L78:
 203:Src/translator.cpp ****         {
 1090              		.loc 1 203 30 discriminator 1 view .LVU299
 1091 0407 4438EE   		cmpb	%r13b, %sil
GAS LISTING /tmp/ccKEMYUq.s 			page 31


 1092 040a 7333     		jnb	.L75
 1093              	.LBB11:
 205:Src/translator.cpp ****             {
 1094              		.loc 1 205 25 view .LVU300
 1095 040c B9000000 		movl	$0, %ecx
 1095      00
 1096              	.L77:
 1097              	.LVL127:
 205:Src/translator.cpp ****             {
 1098              		.loc 1 205 34 discriminator 3 view .LVU301
 1099 0411 38D9     		cmpb	%bl, %cl
 1100 0413 73EF     		jnb	.L76
 207:Src/translator.cpp ****             }
 1101              		.loc 1 207 17 is_stmt 1 discriminator 2 view .LVU302
 207:Src/translator.cpp ****             }
 1102              		.loc 1 207 50 is_stmt 0 discriminator 2 view .LVU303
 1103 0415 400FB6C6 		movzbl	%sil, %eax
 207:Src/translator.cpp ****             }
 1104              		.loc 1 207 54 discriminator 2 view .LVU304
 1105 0419 0FB6D3   		movzbl	%bl, %edx
 207:Src/translator.cpp ****             }
 1106              		.loc 1 207 52 discriminator 2 view .LVU305
 1107 041c 0FAFC2   		imull	%edx, %eax
 207:Src/translator.cpp ****             }
 1108              		.loc 1 207 74 discriminator 2 view .LVU306
 1109 041f 0FB6F9   		movzbl	%cl, %edi
 207:Src/translator.cpp ****             }
 1110              		.loc 1 207 72 discriminator 2 view .LVU307
 1111 0422 29FA     		subl	%edi, %edx
 207:Src/translator.cpp ****             }
 1112              		.loc 1 207 62 discriminator 2 view .LVU308
 1113 0424 8D5410FF 		leal	-1(%rax,%rdx), %edx
 1114 0428 4863D2   		movslq	%edx, %rdx
 207:Src/translator.cpp ****             }
 1115              		.loc 1 207 38 discriminator 2 view .LVU309
 1116 042b 8D443804 		leal	4(%rax,%rdi), %eax
 1117 042f 4898     		cltq
 207:Src/translator.cpp ****             }
 1118              		.loc 1 207 80 discriminator 2 view .LVU310
 1119 0431 410FB614 		movzbl	(%r12,%rdx), %edx
 1119      14
 207:Src/translator.cpp ****             }
 1120              		.loc 1 207 43 discriminator 2 view .LVU311
 1121 0436 88540500 		movb	%dl, 0(%rbp,%rax)
 205:Src/translator.cpp ****             {
 1122              		.loc 1 205 13 discriminator 2 view .LVU312
 1123 043a 83C101   		addl	$1, %ecx
 1124              	.LVL128:
 205:Src/translator.cpp ****             {
 1125              		.loc 1 205 13 discriminator 2 view .LVU313
 1126 043d EBD2     		jmp	.L77
 1127              	.LVL129:
 1128              	.L75:
 205:Src/translator.cpp ****             {
 1129              		.loc 1 205 13 discriminator 2 view .LVU314
 1130              	.LBE11:
 1131              	.LBE10:
GAS LISTING /tmp/ccKEMYUq.s 			page 32


 211:Src/translator.cpp ****         tgt[1] = check >> 8;
 1132              		.loc 1 211 9 is_stmt 1 view .LVU315
 211:Src/translator.cpp ****         tgt[1] = check >> 8;
 1133              		.loc 1 211 39 is_stmt 0 view .LVU316
 1134 043f 4889EF   		movq	%rbp, %rdi
 1135 0442 E8000000 		call	_ZN10translator11genCheckSumEPKh
 1135      00
 1136              	.LVL130:
 212:Src/translator.cpp ****         tgt[2] = check & 0xFF;
 1137              		.loc 1 212 9 is_stmt 1 view .LVU317
 212:Src/translator.cpp ****         tgt[2] = check & 0xFF;
 1138              		.loc 1 212 24 is_stmt 0 view .LVU318
 1139 0447 0FB6D4   		movzbl	%ah, %edx
 212:Src/translator.cpp ****         tgt[2] = check & 0xFF;
 1140              		.loc 1 212 16 view .LVU319
 1141 044a 885501   		movb	%dl, 1(%rbp)
 213:Src/translator.cpp ****     }
 1142              		.loc 1 213 9 is_stmt 1 view .LVU320
 213:Src/translator.cpp ****     }
 1143              		.loc 1 213 16 is_stmt 0 view .LVU321
 1144 044d 884502   		movb	%al, 2(%rbp)
 214:Src/translator.cpp **** }
 1145              		.loc 1 214 5 view .LVU322
 1146 0450 5B       		popq	%rbx
 1147              		.cfi_def_cfa_offset 40
 1148              	.LVL131:
 214:Src/translator.cpp **** }
 1149              		.loc 1 214 5 view .LVU323
 1150 0451 5D       		popq	%rbp
 1151              		.cfi_def_cfa_offset 32
 1152              	.LVL132:
 214:Src/translator.cpp **** }
 1153              		.loc 1 214 5 view .LVU324
 1154 0452 415C     		popq	%r12
 1155              		.cfi_def_cfa_offset 24
 1156              	.LVL133:
 214:Src/translator.cpp **** }
 1157              		.loc 1 214 5 view .LVU325
 1158 0454 415D     		popq	%r13
 1159              		.cfi_def_cfa_offset 16
 1160              	.LVL134:
 214:Src/translator.cpp **** }
 1161              		.loc 1 214 5 view .LVU326
 1162 0456 415E     		popq	%r14
 1163              		.cfi_def_cfa_offset 8
 1164 0458 C3       		ret
 1165              		.cfi_endproc
 1166              	.LFE1517:
 1169              	_GLOBAL__sub_I__ZN10translator11genCheckSumEPKh:
 1170              	.LFB1835:
 1171              		.loc 1 215 1 is_stmt 1 view -0
 1172              		.cfi_startproc
 1173 0459 4883EC08 		subq	$8, %rsp
 1174              		.cfi_def_cfa_offset 16
 1175              		.loc 1 215 1 is_stmt 0 view .LVU328
 1176 045d BEFFFF00 		movl	$65535, %esi
 1176      00
GAS LISTING /tmp/ccKEMYUq.s 			page 33


 1177 0462 BF010000 		movl	$1, %edi
 1177      00
 1178 0467 E894FBFF 		call	_Z41__static_initialization_and_destruction_0ii
 1178      FF
 1179              	.LVL135:
 1180 046c 4883C408 		addq	$8, %rsp
 1181              		.cfi_def_cfa_offset 8
 1182 0470 C3       		ret
 1183              		.cfi_endproc
 1184              	.LFE1835:
 1186              		.section	.init_array,"aw"
 1187              		.align 8
 1188 0000 00000000 		.quad	_GLOBAL__sub_I__ZN10translator11genCheckSumEPKh
 1188      00000000 
 1189              		.local	_ZStL8__ioinit
 1190              		.comm	_ZStL8__ioinit,1,1
 1191              		.text
 1192              	.Letext0:
 1193              		.file 3 "/usr/include/c++/9.1.0/cwchar"
 1194              		.file 4 "/usr/include/c++/9.1.0/new"
 1195              		.file 5 "/usr/include/c++/9.1.0/bits/exception_ptr.h"
 1196              		.file 6 "/usr/include/c++/9.1.0/type_traits"
 1197              		.file 7 "/usr/include/c++/9.1.0/x86_64-pc-linux-gnu/bits/c++config.h"
 1198              		.file 8 "/usr/include/c++/9.1.0/bits/stl_pair.h"
 1199              		.file 9 "/usr/include/c++/9.1.0/debug/debug.h"
 1200              		.file 10 "/usr/include/c++/9.1.0/bits/char_traits.h"
 1201              		.file 11 "/usr/include/c++/9.1.0/cstdint"
 1202              		.file 12 "/usr/include/c++/9.1.0/clocale"
 1203              		.file 13 "/usr/include/c++/9.1.0/cstdlib"
 1204              		.file 14 "/usr/include/c++/9.1.0/cstdio"
 1205              		.file 15 "/usr/include/c++/9.1.0/system_error"
 1206              		.file 16 "/usr/include/c++/9.1.0/bits/ios_base.h"
 1207              		.file 17 "/usr/include/c++/9.1.0/cwctype"
 1208              		.file 18 "/usr/include/c++/9.1.0/iosfwd"
 1209              		.file 19 "/usr/include/c++/9.1.0/bits/predefined_ops.h"
 1210              		.file 20 "/usr/include/c++/9.1.0/ext/new_allocator.h"
 1211              		.file 21 "/usr/include/c++/9.1.0/ext/numeric_traits.h"
 1212              		.file 22 "/usr/lib/gcc/x86_64-pc-linux-gnu/9.1.0/include/stddef.h"
 1213              		.file 23 "<built-in>"
 1214              		.file 24 "/usr/include/bits/types/wint_t.h"
 1215              		.file 25 "/usr/include/bits/types/__mbstate_t.h"
 1216              		.file 26 "/usr/include/bits/types/mbstate_t.h"
 1217              		.file 27 "/usr/include/bits/types/__FILE.h"
 1218              		.file 28 "/usr/include/bits/types/struct_FILE.h"
 1219              		.file 29 "/usr/include/bits/types/FILE.h"
 1220              		.file 30 "/usr/include/wchar.h"
 1221              		.file 31 "/usr/include/bits/types/struct_tm.h"
 1222              		.file 32 "/usr/include/bits/types.h"
 1223              		.file 33 "/usr/include/bits/stdint-intn.h"
 1224              		.file 34 "/usr/include/bits/stdint-uintn.h"
 1225              		.file 35 "/usr/include/stdint.h"
 1226              		.file 36 "/usr/include/locale.h"
 1227              		.file 37 "/usr/include/time.h"
 1228              		.file 38 "/usr/include/c++/9.1.0/x86_64-pc-linux-gnu/bits/atomic_word.h"
 1229              		.file 39 "/usr/include/stdlib.h"
 1230              		.file 40 "/usr/include/bits/stdlib-float.h"
 1231              		.file 41 "/usr/include/bits/stdlib-bsearch.h"
GAS LISTING /tmp/ccKEMYUq.s 			page 34


 1232              		.file 42 "/usr/include/bits/types/__fpos_t.h"
 1233              		.file 43 "/usr/include/stdio.h"
 1234              		.file 44 "/usr/include/bits/sys_errlist.h"
 1235              		.file 45 "/usr/include/bits/stdio.h"
 1236              		.file 46 "/usr/include/errno.h"
 1237              		.file 47 "/usr/include/bits/wctype-wchar.h"
 1238              		.file 48 "/usr/include/wctype.h"
 1239              		.file 49 "Inc/translator.hpp"
GAS LISTING /tmp/ccKEMYUq.s 			page 35


DEFINED SYMBOLS
                            *ABS*:0000000000000000 translator.cpp
     /tmp/ccKEMYUq.s:5      .text:0000000000000000 _Z41__static_initialization_and_destruction_0ii
                             .bss:0000000000000000 _ZStL8__ioinit
     /tmp/ccKEMYUq.s:45     .text:000000000000003d _ZN10translator7getTypeEPKh
     /tmp/ccKEMYUq.s:62     .text:0000000000000044 _ZN10translator6getLenEPKh
     /tmp/ccKEMYUq.s:79     .text:000000000000004b _ZN10translator11genCheckSumEPKh
     /tmp/ccKEMYUq.s:147    .text:0000000000000083 _ZN10translator10getPayloadEPKhPh
     /tmp/ccKEMYUq.s:204    .text:00000000000000ae _ZN10translator6equalsEPKhS1_
     /tmp/ccKEMYUq.s:293    .text:00000000000000f3 _ZN10translator11getZeroByteEhh
     /tmp/ccKEMYUq.s:315    .text:0000000000000100 _ZN10translator11getCheckSumEPKh
     /tmp/ccKEMYUq.s:337    .text:0000000000000110 _ZN10translator11parsePacketEPhS0_
     /tmp/ccKEMYUq.s:475    .text:00000000000001a1 _ZN10translator8parseCmdEPhPPFvvE
     /tmp/ccKEMYUq.s:586    .text:0000000000000212 _ZN10translator11generateCmdEhPh
     /tmp/ccKEMYUq.s:641    .text:0000000000000242 _ZN10translator8validateEPKh
     /tmp/ccKEMYUq.s:738    .text:00000000000002aa _ZN10translator8getVarIdEPKh
     /tmp/ccKEMYUq.s:777    .text:00000000000002c4 _ZN10translator11generateVarEhhPKhPh
     /tmp/ccKEMYUq.s:882    .text:000000000000032d _ZN10translator8parseVarEPhS0_h
     /tmp/ccKEMYUq.s:1033   .text:00000000000003ca _ZN10translator11generateArrEhhhPKhPh
     /tmp/ccKEMYUq.s:1169   .text:0000000000000459 _GLOBAL__sub_I__ZN10translator11genCheckSumEPKh

UNDEFINED SYMBOLS
_GLOBAL_OFFSET_TABLE_
_ZNSt8ios_base4InitC1Ev
__dso_handle
_ZNSt8ios_base4InitD1Ev
__cxa_atexit
