GAS LISTING /tmp/ccGRrKPJ.s 			page 1


   1              		.file	"translator.cpp"
   2              		.text
   3              	.Ltext0:
   5              	_Z41__static_initialization_and_destruction_0ii:
   6              	.LVL0:
   7              	.LFB1832:
   8              		.file 1 "Src/translator.cpp"
   1:Src/translator.cpp **** #include "translator.hpp"
   2:Src/translator.cpp **** 
   3:Src/translator.cpp **** namespace translator
   4:Src/translator.cpp **** {
   5:Src/translator.cpp **** 
   6:Src/translator.cpp ****     using namespace std;
   7:Src/translator.cpp **** 
   8:Src/translator.cpp ****     //generate checksum for char array
   9:Src/translator.cpp ****     checksum_t genCheckSum(const uint8_t* c)
  10:Src/translator.cpp ****     {
  11:Src/translator.cpp ****         checksum_t ret = 0;
  12:Src/translator.cpp ****         uint8_t len = getLen(c);
  13:Src/translator.cpp ****         for(uint8_t i = 0; i < len; i++)
  14:Src/translator.cpp ****         {
  15:Src/translator.cpp ****             ret |= (c[3 + i]) << (8 * ((i % 2) == 1));
  16:Src/translator.cpp ****         }
  17:Src/translator.cpp ****         return ret;
  18:Src/translator.cpp ****     }
  19:Src/translator.cpp **** 
  20:Src/translator.cpp ****     //get type of package
  21:Src/translator.cpp ****     uint8_t getType(const uint8_t *package)
  22:Src/translator.cpp ****     {
  23:Src/translator.cpp ****         return ((package[0] & (~LEN_MASK)) >> 6);
  24:Src/translator.cpp ****     }
  25:Src/translator.cpp **** 
  26:Src/translator.cpp **** 
  27:Src/translator.cpp ****     //parse input package, get payload, return type of package
  28:Src/translator.cpp ****     uint8_t parsePacket(uint8_t *package, uint8_t *payloadto)
  29:Src/translator.cpp ****     {
  30:Src/translator.cpp ****         uint8_t type = getType(package);
  31:Src/translator.cpp ****         if(type != TYPE_ARR && type != TYPE_CMD && type != TYPE_VAR)
  32:Src/translator.cpp ****             return TYPE_BAD_TYPE;
  33:Src/translator.cpp **** 
  34:Src/translator.cpp ****         uint8_t len = getLen(package);
  35:Src/translator.cpp ****         if(len == 0)
  36:Src/translator.cpp ****             return TYPE_BAD_LEN;
  37:Src/translator.cpp **** 
  38:Src/translator.cpp ****         if(genCheckSum(package) != getCheckSum(package))
  39:Src/translator.cpp ****             return TYPE_BAD_CHECKSUM;
  40:Src/translator.cpp **** 
  41:Src/translator.cpp **** 
  42:Src/translator.cpp ****         for(uint8_t i = 0; i < len; i++)
  43:Src/translator.cpp ****         {
  44:Src/translator.cpp ****             payloadto[i] = package[i + 3];
  45:Src/translator.cpp ****         }
  46:Src/translator.cpp ****         return type;
  47:Src/translator.cpp ****     }
  48:Src/translator.cpp **** 
  49:Src/translator.cpp **** 
  50:Src/translator.cpp ****     //parse cmd from package, call funcArr[cmd], return type of package, max num of funcs - 255
GAS LISTING /tmp/ccGRrKPJ.s 			page 2


  51:Src/translator.cpp ****     uint8_t parseCmd(uint8_t *package, void (*funcArr [])())
  52:Src/translator.cpp ****     {
  53:Src/translator.cpp ****         uint8_t var = getType(package);
  54:Src/translator.cpp ****         if(var != TYPE_CMD)
  55:Src/translator.cpp ****             return TYPE_BAD_TYPE;
  56:Src/translator.cpp **** 
  57:Src/translator.cpp ****         var = getLen(package);
  58:Src/translator.cpp ****         if(var != 1)
  59:Src/translator.cpp ****             return TYPE_BAD_LEN;
  60:Src/translator.cpp **** 
  61:Src/translator.cpp ****         checksum_t check = genCheckSum(package);
  62:Src/translator.cpp ****         if(check != getCheckSum(package))
  63:Src/translator.cpp ****             return TYPE_BAD_CHECKSUM;
  64:Src/translator.cpp **** 
  65:Src/translator.cpp ****         if(funcArr[package[3]] != NULL)
  66:Src/translator.cpp ****             funcArr[package[3]]();
  67:Src/translator.cpp ****         return TYPE_CMD;
  68:Src/translator.cpp ****     }
  69:Src/translator.cpp **** 
  70:Src/translator.cpp **** 
  71:Src/translator.cpp ****     //get payload from package to addr
  72:Src/translator.cpp ****     void getPayload(const uint8_t *package, uint8_t *to)
  73:Src/translator.cpp ****     {
  74:Src/translator.cpp ****         uint8_t len = getLen(package);
  75:Src/translator.cpp ****         for(uint8_t i = 0; i < len; i++)
  76:Src/translator.cpp ****         {
  77:Src/translator.cpp ****             to[i] = package[i + 3];
  78:Src/translator.cpp ****         }
  79:Src/translator.cpp ****     }
  80:Src/translator.cpp **** 
  81:Src/translator.cpp ****     //get len of payload
  82:Src/translator.cpp ****     uint8_t getLen(const uint8_t* package)
  83:Src/translator.cpp ****     {
  84:Src/translator.cpp ****         return package[0] & LEN_MASK;
  85:Src/translator.cpp ****     }
  86:Src/translator.cpp **** 
  87:Src/translator.cpp ****     bool equals(const uint8_t* p1, const uint8_t* p2)
  88:Src/translator.cpp ****     {
  89:Src/translator.cpp ****         if(p1[0] != p2[0])
  90:Src/translator.cpp ****             return false;
  91:Src/translator.cpp **** 
  92:Src/translator.cpp ****         uint8_t len = getLen(p1);
  93:Src/translator.cpp ****         for(uint8_t i = 0; i < len; i++)
  94:Src/translator.cpp ****         {
  95:Src/translator.cpp ****             if(p1[i] != p2[i])
  96:Src/translator.cpp ****                 return false;
  97:Src/translator.cpp ****         }
  98:Src/translator.cpp ****         return true;
  99:Src/translator.cpp ****     }
 100:Src/translator.cpp **** 
 101:Src/translator.cpp ****     uint8_t getZeroByte(const uint8_t type, const uint8_t len)
 102:Src/translator.cpp ****     {
 103:Src/translator.cpp ****         return (uint8_t)(((type & 0b11) << 6) | (len & LEN_MASK));
 104:Src/translator.cpp ****     }
 105:Src/translator.cpp **** 
 106:Src/translator.cpp **** 
 107:Src/translator.cpp ****     checksum_t getCheckSum(const uint8_t* package)
GAS LISTING /tmp/ccGRrKPJ.s 			page 3


 108:Src/translator.cpp ****     {
 109:Src/translator.cpp ****         return (package[1] << 8) | package[2];
 110:Src/translator.cpp ****     }
 111:Src/translator.cpp **** 
 112:Src/translator.cpp **** 
 113:Src/translator.cpp ****     //gets cmd num at 'cmd', returns final package into target pointer
 114:Src/translator.cpp ****     void generateCmd(const uint8_t cmd, uint8_t* tgt)
 115:Src/translator.cpp ****     {
 116:Src/translator.cpp ****         tgt[0] = getZeroByte(TYPE_CMD, 1);
 117:Src/translator.cpp ****         tgt[3] = cmd;
 118:Src/translator.cpp ****         checksum_t check = getCheckSum(tgt);
 119:Src/translator.cpp ****         tgt[1] = check >> 8;
 120:Src/translator.cpp ****         tgt[2] = check & 0xFF;
 121:Src/translator.cpp ****     }
 122:Src/translator.cpp **** 
 123:Src/translator.cpp **** 
 124:Src/translator.cpp ****     //get id of var in payload of package
 125:Src/translator.cpp ****     uint8_t getVarId(const uint8_t *pack)
 126:Src/translator.cpp ****     {
 127:Src/translator.cpp ****         if(!validate(pack))
 128:Src/translator.cpp ****             return 0xFF;
 129:Src/translator.cpp **** 
 130:Src/translator.cpp ****         return pack[3];
 131:Src/translator.cpp ****     }
 132:Src/translator.cpp **** 
 133:Src/translator.cpp **** 
 134:Src/translator.cpp ****     //validate checksum, type, len
 135:Src/translator.cpp ****     bool validate(const uint8_t *pack)
 136:Src/translator.cpp ****     {
 137:Src/translator.cpp ****         uint8_t type = getType(pack);
 138:Src/translator.cpp ****         switch (type)
 139:Src/translator.cpp ****         {
 140:Src/translator.cpp ****             case TYPE_CMD:
 141:Src/translator.cpp ****             {
 142:Src/translator.cpp ****                 if(getLen(pack) != 1)
 143:Src/translator.cpp ****                     return false;
 144:Src/translator.cpp ****                 break;
 145:Src/translator.cpp ****             }
 146:Src/translator.cpp ****             case TYPE_VAR:
 147:Src/translator.cpp ****             case TYPE_ARR:
 148:Src/translator.cpp ****             {
 149:Src/translator.cpp ****                 if(getLen(pack) <= 1)
 150:Src/translator.cpp ****                     return false;
 151:Src/translator.cpp ****                 break;
 152:Src/translator.cpp ****             }
 153:Src/translator.cpp ****             default:
 154:Src/translator.cpp ****                 return false;
 155:Src/translator.cpp ****         }
 156:Src/translator.cpp ****         return (getCheckSum(pack) == genCheckSum(pack));
 157:Src/translator.cpp ****     }
 158:Src/translator.cpp **** 
 159:Src/translator.cpp ****     //create var package
 160:Src/translator.cpp ****     void generateVar(const uint8_t len, const uint8_t id, const uint8_t* var, uint8_t *tgt)
 161:Src/translator.cpp ****     {
 162:Src/translator.cpp ****         tgt[0] = getZeroByte(TYPE_VAR, len + 1);
 163:Src/translator.cpp ****         tgt[3] = id;
 164:Src/translator.cpp ****         for(uint8_t i = 0; i < len; i++)
GAS LISTING /tmp/ccGRrKPJ.s 			page 4


 165:Src/translator.cpp ****             tgt[4 + i] = var[i];
 166:Src/translator.cpp ****         checksum_t check = genCheckSum(tgt);
 167:Src/translator.cpp ****         tgt[1] = check >> 8;
 168:Src/translator.cpp ****         tgt[2] = check & 0xFF;
 169:Src/translator.cpp ****     }
 170:Src/translator.cpp **** }
   9              		.loc 1 170 1 view -0
  10              		.cfi_startproc
  11              		.loc 1 170 1 is_stmt 0 view .LVU1
  12 0000 83FF01   		cmpl	$1, %edi
  13 0003 7401     		je	.L7
  14              	.L4:
  15 0005 C3       		ret
  16              	.L7:
  17              		.loc 1 170 1 discriminator 1 view .LVU2
  18 0006 81FEFFFF 		cmpl	$65535, %esi
  18      0000
  19 000c 75F7     		jne	.L4
  20              		.loc 1 170 1 view .LVU3
  21 000e 4883EC08 		subq	$8, %rsp
  22              		.cfi_def_cfa_offset 16
  23              		.file 2 "/usr/include/c++/9.1.0/iostream"
   1:/usr/include/c++/9.1.0/iostream **** // Standard iostream objects -*- C++ -*-
   2:/usr/include/c++/9.1.0/iostream **** 
   3:/usr/include/c++/9.1.0/iostream **** // Copyright (C) 1997-2019 Free Software Foundation, Inc.
   4:/usr/include/c++/9.1.0/iostream **** //
   5:/usr/include/c++/9.1.0/iostream **** // This file is part of the GNU ISO C++ Library.  This library is free
   6:/usr/include/c++/9.1.0/iostream **** // software; you can redistribute it and/or modify it under the
   7:/usr/include/c++/9.1.0/iostream **** // terms of the GNU General Public License as published by the
   8:/usr/include/c++/9.1.0/iostream **** // Free Software Foundation; either version 3, or (at your option)
   9:/usr/include/c++/9.1.0/iostream **** // any later version.
  10:/usr/include/c++/9.1.0/iostream **** 
  11:/usr/include/c++/9.1.0/iostream **** // This library is distributed in the hope that it will be useful,
  12:/usr/include/c++/9.1.0/iostream **** // but WITHOUT ANY WARRANTY; without even the implied warranty of
  13:/usr/include/c++/9.1.0/iostream **** // MERCHANTABILITY or FITNESS FOR A PARTICULAR PURPOSE.  See the
  14:/usr/include/c++/9.1.0/iostream **** // GNU General Public License for more details.
  15:/usr/include/c++/9.1.0/iostream **** 
  16:/usr/include/c++/9.1.0/iostream **** // Under Section 7 of GPL version 3, you are granted additional
  17:/usr/include/c++/9.1.0/iostream **** // permissions described in the GCC Runtime Library Exception, version
  18:/usr/include/c++/9.1.0/iostream **** // 3.1, as published by the Free Software Foundation.
  19:/usr/include/c++/9.1.0/iostream **** 
  20:/usr/include/c++/9.1.0/iostream **** // You should have received a copy of the GNU General Public License and
  21:/usr/include/c++/9.1.0/iostream **** // a copy of the GCC Runtime Library Exception along with this program;
  22:/usr/include/c++/9.1.0/iostream **** // see the files COPYING3 and COPYING.RUNTIME respectively.  If not, see
  23:/usr/include/c++/9.1.0/iostream **** // <http://www.gnu.org/licenses/>.
  24:/usr/include/c++/9.1.0/iostream **** 
  25:/usr/include/c++/9.1.0/iostream **** /** @file include/iostream
  26:/usr/include/c++/9.1.0/iostream ****  *  This is a Standard C++ Library header.
  27:/usr/include/c++/9.1.0/iostream ****  */
  28:/usr/include/c++/9.1.0/iostream **** 
  29:/usr/include/c++/9.1.0/iostream **** //
  30:/usr/include/c++/9.1.0/iostream **** // ISO C++ 14882: 27.3  Standard iostream objects
  31:/usr/include/c++/9.1.0/iostream **** //
  32:/usr/include/c++/9.1.0/iostream **** 
  33:/usr/include/c++/9.1.0/iostream **** #ifndef _GLIBCXX_IOSTREAM
  34:/usr/include/c++/9.1.0/iostream **** #define _GLIBCXX_IOSTREAM 1
  35:/usr/include/c++/9.1.0/iostream **** 
GAS LISTING /tmp/ccGRrKPJ.s 			page 5


  36:/usr/include/c++/9.1.0/iostream **** #pragma GCC system_header
  37:/usr/include/c++/9.1.0/iostream **** 
  38:/usr/include/c++/9.1.0/iostream **** #include <bits/c++config.h>
  39:/usr/include/c++/9.1.0/iostream **** #include <ostream>
  40:/usr/include/c++/9.1.0/iostream **** #include <istream>
  41:/usr/include/c++/9.1.0/iostream **** 
  42:/usr/include/c++/9.1.0/iostream **** namespace std _GLIBCXX_VISIBILITY(default)
  43:/usr/include/c++/9.1.0/iostream **** {
  44:/usr/include/c++/9.1.0/iostream **** _GLIBCXX_BEGIN_NAMESPACE_VERSION
  45:/usr/include/c++/9.1.0/iostream **** 
  46:/usr/include/c++/9.1.0/iostream ****   /**
  47:/usr/include/c++/9.1.0/iostream ****    *  @name Standard Stream Objects
  48:/usr/include/c++/9.1.0/iostream ****    *
  49:/usr/include/c++/9.1.0/iostream ****    *  The &lt;iostream&gt; header declares the eight <em>standard stream
  50:/usr/include/c++/9.1.0/iostream ****    *  objects</em>.  For other declarations, see
  51:/usr/include/c++/9.1.0/iostream ****    *  http://gcc.gnu.org/onlinedocs/libstdc++/manual/io.html
  52:/usr/include/c++/9.1.0/iostream ****    *  and the @link iosfwd I/O forward declarations @endlink
  53:/usr/include/c++/9.1.0/iostream ****    *
  54:/usr/include/c++/9.1.0/iostream ****    *  They are required by default to cooperate with the global C
  55:/usr/include/c++/9.1.0/iostream ****    *  library's @c FILE streams, and to be available during program
  56:/usr/include/c++/9.1.0/iostream ****    *  startup and termination. For more information, see the section of the
  57:/usr/include/c++/9.1.0/iostream ****    *  manual linked to above.
  58:/usr/include/c++/9.1.0/iostream ****   */
  59:/usr/include/c++/9.1.0/iostream ****   //@{
  60:/usr/include/c++/9.1.0/iostream ****   extern istream cin;		/// Linked to standard input
  61:/usr/include/c++/9.1.0/iostream ****   extern ostream cout;		/// Linked to standard output
  62:/usr/include/c++/9.1.0/iostream ****   extern ostream cerr;		/// Linked to standard error (unbuffered)
  63:/usr/include/c++/9.1.0/iostream ****   extern ostream clog;		/// Linked to standard error (buffered)
  64:/usr/include/c++/9.1.0/iostream **** 
  65:/usr/include/c++/9.1.0/iostream **** #ifdef _GLIBCXX_USE_WCHAR_T
  66:/usr/include/c++/9.1.0/iostream ****   extern wistream wcin;		/// Linked to standard input
  67:/usr/include/c++/9.1.0/iostream ****   extern wostream wcout;	/// Linked to standard output
  68:/usr/include/c++/9.1.0/iostream ****   extern wostream wcerr;	/// Linked to standard error (unbuffered)
  69:/usr/include/c++/9.1.0/iostream ****   extern wostream wclog;	/// Linked to standard error (buffered)
  70:/usr/include/c++/9.1.0/iostream **** #endif
  71:/usr/include/c++/9.1.0/iostream ****   //@}
  72:/usr/include/c++/9.1.0/iostream **** 
  73:/usr/include/c++/9.1.0/iostream ****   // For construction of filebuffers for cout, cin, cerr, clog et. al.
  74:/usr/include/c++/9.1.0/iostream ****   static ios_base::Init __ioinit;
  24              		.loc 2 74 25 view .LVU4
  25 0012 488D3D00 		leaq	_ZStL8__ioinit(%rip), %rdi
  25      000000
  26              	.LVL1:
  27              		.loc 2 74 25 view .LVU5
  28 0019 E8000000 		call	_ZNSt8ios_base4InitC1Ev@PLT
  28      00
  29              	.LVL2:
  30              		.loc 2 74 25 view .LVU6
  31 001e 488D1500 		leaq	__dso_handle(%rip), %rdx
  31      000000
  32 0025 488D3500 		leaq	_ZStL8__ioinit(%rip), %rsi
  32      000000
  33 002c 488B3D00 		movq	_ZNSt8ios_base4InitD1Ev@GOTPCREL(%rip), %rdi
  33      000000
  34 0033 E8000000 		call	__cxa_atexit@PLT
  34      00
  35              	.LVL3:
GAS LISTING /tmp/ccGRrKPJ.s 			page 6


  36              		.loc 1 170 1 view .LVU7
  37 0038 4883C408 		addq	$8, %rsp
  38              		.cfi_def_cfa_offset 8
  39 003c C3       		ret
  40              		.cfi_endproc
  41              	.LFE1832:
  43              		.globl	_ZN10translator7getTypeEPKh
  45              	_ZN10translator7getTypeEPKh:
  46              	.LVL4:
  47              	.LFB1504:
  22:Src/translator.cpp ****         return ((package[0] & (~LEN_MASK)) >> 6);
  48              		.loc 1 22 5 is_stmt 1 view -0
  49              		.cfi_startproc
  23:Src/translator.cpp ****     }
  50              		.loc 1 23 9 view .LVU9
  23:Src/translator.cpp ****     }
  51              		.loc 1 23 27 is_stmt 0 view .LVU10
  52 003d 0FB607   		movzbl	(%rdi), %eax
  23:Src/translator.cpp ****     }
  53              		.loc 1 23 44 view .LVU11
  54 0040 C1F806   		sarl	$6, %eax
  24:Src/translator.cpp **** 
  55              		.loc 1 24 5 view .LVU12
  56 0043 C3       		ret
  57              		.cfi_endproc
  58              	.LFE1504:
  60              		.globl	_ZN10translator6getLenEPKh
  62              	_ZN10translator6getLenEPKh:
  63              	.LVL5:
  64              	.LFB1508:
  83:Src/translator.cpp ****         return package[0] & LEN_MASK;
  65              		.loc 1 83 5 is_stmt 1 view -0
  66              		.cfi_startproc
  84:Src/translator.cpp ****     }
  67              		.loc 1 84 9 view .LVU14
  84:Src/translator.cpp ****     }
  68              		.loc 1 84 27 is_stmt 0 view .LVU15
  69 0044 0FB607   		movzbl	(%rdi), %eax
  84:Src/translator.cpp ****     }
  70              		.loc 1 84 29 view .LVU16
  71 0047 83E03F   		andl	$63, %eax
  85:Src/translator.cpp **** 
  72              		.loc 1 85 5 view .LVU17
  73 004a C3       		ret
  74              		.cfi_endproc
  75              	.LFE1508:
  77              		.globl	_ZN10translator11genCheckSumEPKh
  79              	_ZN10translator11genCheckSumEPKh:
  80              	.LVL6:
  81              	.LFB1503:
  10:Src/translator.cpp ****         checksum_t ret = 0;
  82              		.loc 1 10 5 is_stmt 1 view -0
  83              		.cfi_startproc
  10:Src/translator.cpp ****         checksum_t ret = 0;
  84              		.loc 1 10 5 is_stmt 0 view .LVU19
  85 004b 53       		pushq	%rbx
  86              		.cfi_def_cfa_offset 16
GAS LISTING /tmp/ccGRrKPJ.s 			page 7


  87              		.cfi_offset 3, -16
  88 004c 4889FB   		movq	%rdi, %rbx
  11:Src/translator.cpp ****         uint8_t len = getLen(c);
  89              		.loc 1 11 9 is_stmt 1 view .LVU20
  90              	.LVL7:
  12:Src/translator.cpp ****         for(uint8_t i = 0; i < len; i++)
  91              		.loc 1 12 9 view .LVU21
  12:Src/translator.cpp ****         for(uint8_t i = 0; i < len; i++)
  92              		.loc 1 12 29 is_stmt 0 view .LVU22
  93 004f E8000000 		call	_ZN10translator6getLenEPKh
  93      00
  94              	.LVL8:
  12:Src/translator.cpp ****         for(uint8_t i = 0; i < len; i++)
  95              		.loc 1 12 29 view .LVU23
  96 0054 89C7     		movl	%eax, %edi
  97              	.LVL9:
  13:Src/translator.cpp ****         {
  98              		.loc 1 13 9 is_stmt 1 view .LVU24
  99              	.LBB2:
  13:Src/translator.cpp ****         {
 100              		.loc 1 13 21 is_stmt 0 view .LVU25
 101 0056 BA000000 		movl	$0, %edx
 101      00
 102              	.LBE2:
  11:Src/translator.cpp ****         uint8_t len = getLen(c);
 103              		.loc 1 11 20 view .LVU26
 104 005b B8000000 		movl	$0, %eax
 104      00
 105              	.LVL10:
 106              	.L12:
 107              	.LBB3:
  13:Src/translator.cpp ****         {
 108              		.loc 1 13 30 discriminator 3 view .LVU27
 109 0060 4038FA   		cmpb	%dil, %dl
 110 0063 731C     		jnb	.L10
  15:Src/translator.cpp ****         }
 111              		.loc 1 15 13 is_stmt 1 discriminator 2 view .LVU28
  15:Src/translator.cpp ****         }
 112              		.loc 1 15 27 is_stmt 0 discriminator 2 view .LVU29
 113 0065 0FB6CA   		movzbl	%dl, %ecx
  15:Src/translator.cpp ****         }
 114              		.loc 1 15 25 discriminator 2 view .LVU30
 115 0068 8D7103   		leal	3(%rcx), %esi
 116 006b 4863F6   		movslq	%esi, %rsi
  15:Src/translator.cpp ****         }
 117              		.loc 1 15 28 discriminator 2 view .LVU31
 118 006e 0FB63433 		movzbl	(%rbx,%rsi), %esi
  15:Src/translator.cpp ****         }
 119              		.loc 1 15 37 discriminator 2 view .LVU32
 120 0072 C1E103   		sall	$3, %ecx
 121 0075 83E108   		andl	$8, %ecx
  15:Src/translator.cpp ****         }
 122              		.loc 1 15 31 discriminator 2 view .LVU33
 123 0078 D3E6     		sall	%cl, %esi
  15:Src/translator.cpp ****         }
 124              		.loc 1 15 17 discriminator 2 view .LVU34
 125 007a 09F0     		orl	%esi, %eax
GAS LISTING /tmp/ccGRrKPJ.s 			page 8


 126              	.LVL11:
  13:Src/translator.cpp ****         {
 127              		.loc 1 13 9 discriminator 2 view .LVU35
 128 007c 83C201   		addl	$1, %edx
 129              	.LVL12:
  13:Src/translator.cpp ****         {
 130              		.loc 1 13 9 discriminator 2 view .LVU36
 131 007f EBDF     		jmp	.L12
 132              	.LVL13:
 133              	.L10:
  13:Src/translator.cpp ****         {
 134              		.loc 1 13 9 discriminator 2 view .LVU37
 135              	.LBE3:
  18:Src/translator.cpp **** 
 136              		.loc 1 18 5 view .LVU38
 137 0081 5B       		popq	%rbx
 138              		.cfi_def_cfa_offset 8
 139              	.LVL14:
  18:Src/translator.cpp **** 
 140              		.loc 1 18 5 view .LVU39
 141 0082 C3       		ret
 142              		.cfi_endproc
 143              	.LFE1503:
 145              		.globl	_ZN10translator10getPayloadEPKhPh
 147              	_ZN10translator10getPayloadEPKhPh:
 148              	.LVL15:
 149              	.LFB1507:
  73:Src/translator.cpp ****         uint8_t len = getLen(package);
 150              		.loc 1 73 5 is_stmt 1 view -0
 151              		.cfi_startproc
  73:Src/translator.cpp ****         uint8_t len = getLen(package);
 152              		.loc 1 73 5 is_stmt 0 view .LVU41
 153 0083 55       		pushq	%rbp
 154              		.cfi_def_cfa_offset 16
 155              		.cfi_offset 6, -16
 156 0084 53       		pushq	%rbx
 157              		.cfi_def_cfa_offset 24
 158              		.cfi_offset 3, -24
 159 0085 4889FB   		movq	%rdi, %rbx
 160 0088 4889F5   		movq	%rsi, %rbp
  74:Src/translator.cpp ****         for(uint8_t i = 0; i < len; i++)
 161              		.loc 1 74 9 is_stmt 1 view .LVU42
  74:Src/translator.cpp ****         for(uint8_t i = 0; i < len; i++)
 162              		.loc 1 74 29 is_stmt 0 view .LVU43
 163 008b E8000000 		call	_ZN10translator6getLenEPKh
 163      00
 164              	.LVL16:
  75:Src/translator.cpp ****         {
 165              		.loc 1 75 9 is_stmt 1 view .LVU44
 166              	.LBB4:
  75:Src/translator.cpp ****         {
 167              		.loc 1 75 21 is_stmt 0 view .LVU45
 168 0090 BA000000 		movl	$0, %edx
 168      00
 169              	.LVL17:
 170              	.L16:
  75:Src/translator.cpp ****         {
GAS LISTING /tmp/ccGRrKPJ.s 			page 9


 171              		.loc 1 75 30 discriminator 3 view .LVU46
 172 0095 38C2     		cmpb	%al, %dl
 173 0097 7312     		jnb	.L14
  77:Src/translator.cpp ****         }
 174              		.loc 1 77 13 is_stmt 1 discriminator 2 view .LVU47
  77:Src/translator.cpp ****         }
 175              		.loc 1 77 29 is_stmt 0 discriminator 2 view .LVU48
 176 0099 0FB6CA   		movzbl	%dl, %ecx
  77:Src/translator.cpp ****         }
 177              		.loc 1 77 34 discriminator 2 view .LVU49
 178 009c 0FB6740B 		movzbl	3(%rbx,%rcx), %esi
 178      03
  77:Src/translator.cpp ****         }
 179              		.loc 1 77 19 discriminator 2 view .LVU50
 180 00a1 4088740D 		movb	%sil, 0(%rbp,%rcx)
 180      00
  75:Src/translator.cpp ****         {
 181              		.loc 1 75 9 discriminator 2 view .LVU51
 182 00a6 83C201   		addl	$1, %edx
 183              	.LVL18:
  75:Src/translator.cpp ****         {
 184              		.loc 1 75 9 discriminator 2 view .LVU52
 185 00a9 EBEA     		jmp	.L16
 186              	.L14:
  75:Src/translator.cpp ****         {
 187              		.loc 1 75 9 discriminator 2 view .LVU53
 188              	.LBE4:
  79:Src/translator.cpp **** 
 189              		.loc 1 79 5 view .LVU54
 190 00ab 5B       		popq	%rbx
 191              		.cfi_def_cfa_offset 16
 192              	.LVL19:
  79:Src/translator.cpp **** 
 193              		.loc 1 79 5 view .LVU55
 194 00ac 5D       		popq	%rbp
 195              		.cfi_def_cfa_offset 8
 196              	.LVL20:
  79:Src/translator.cpp **** 
 197              		.loc 1 79 5 view .LVU56
 198 00ad C3       		ret
 199              		.cfi_endproc
 200              	.LFE1507:
 202              		.globl	_ZN10translator6equalsEPKhS1_
 204              	_ZN10translator6equalsEPKhS1_:
 205              	.LVL21:
 206              	.LFB1509:
  88:Src/translator.cpp ****         if(p1[0] != p2[0])
 207              		.loc 1 88 5 is_stmt 1 view -0
 208              		.cfi_startproc
  89:Src/translator.cpp ****             return false;
 209              		.loc 1 89 9 view .LVU58
 210 00ae 0FB606   		movzbl	(%rsi), %eax
 211 00b1 3807     		cmpb	%al, (%rdi)
 212 00b3 7529     		jne	.L21
  88:Src/translator.cpp ****         if(p1[0] != p2[0])
 213              		.loc 1 88 5 is_stmt 0 view .LVU59
 214 00b5 55       		pushq	%rbp
GAS LISTING /tmp/ccGRrKPJ.s 			page 10


 215              		.cfi_def_cfa_offset 16
 216              		.cfi_offset 6, -16
 217 00b6 53       		pushq	%rbx
 218              		.cfi_def_cfa_offset 24
 219              		.cfi_offset 3, -24
 220 00b7 4889FB   		movq	%rdi, %rbx
 221 00ba 4889F5   		movq	%rsi, %rbp
  92:Src/translator.cpp ****         for(uint8_t i = 0; i < len; i++)
 222              		.loc 1 92 9 is_stmt 1 view .LVU60
  92:Src/translator.cpp ****         for(uint8_t i = 0; i < len; i++)
 223              		.loc 1 92 29 is_stmt 0 view .LVU61
 224 00bd E8000000 		call	_ZN10translator6getLenEPKh
 224      00
 225              	.LVL22:
  93:Src/translator.cpp ****         {
 226              		.loc 1 93 9 is_stmt 1 view .LVU62
 227              	.LBB5:
  93:Src/translator.cpp ****         {
 228              		.loc 1 93 21 is_stmt 0 view .LVU63
 229 00c2 BA000000 		movl	$0, %edx
 229      00
 230              	.LVL23:
 231              	.L20:
  93:Src/translator.cpp ****         {
 232              		.loc 1 93 30 discriminator 1 view .LVU64
 233 00c7 38C2     		cmpb	%al, %dl
 234 00c9 7319     		jnb	.L22
  95:Src/translator.cpp ****                 return false;
 235              		.loc 1 95 13 is_stmt 1 view .LVU65
  95:Src/translator.cpp ****                 return false;
 236              		.loc 1 95 19 is_stmt 0 view .LVU66
 237 00cb 0FB6CA   		movzbl	%dl, %ecx
  95:Src/translator.cpp ****                 return false;
 238              		.loc 1 95 13 view .LVU67
 239 00ce 0FB6740D 		movzbl	0(%rbp,%rcx), %esi
 239      00
 240 00d3 4038340B 		cmpb	%sil, (%rbx,%rcx)
 241 00d7 7513     		jne	.L23
  93:Src/translator.cpp ****         {
 242              		.loc 1 93 9 discriminator 2 view .LVU68
 243 00d9 83C201   		addl	$1, %edx
 244              	.LVL24:
  93:Src/translator.cpp ****         {
 245              		.loc 1 93 9 discriminator 2 view .LVU69
 246 00dc EBE9     		jmp	.L20
 247              	.LVL25:
 248              	.L21:
 249              		.cfi_def_cfa_offset 8
 250              		.cfi_restore 3
 251              		.cfi_restore 6
  93:Src/translator.cpp ****         {
 252              		.loc 1 93 9 discriminator 2 view .LVU70
 253              	.LBE5:
  90:Src/translator.cpp **** 
 254              		.loc 1 90 20 view .LVU71
 255 00de B8000000 		movl	$0, %eax
 255      00
GAS LISTING /tmp/ccGRrKPJ.s 			page 11


  99:Src/translator.cpp **** 
 256              		.loc 1 99 5 view .LVU72
 257 00e3 C3       		ret
 258              	.LVL26:
 259              	.L22:
 260              		.cfi_def_cfa_offset 24
 261              		.cfi_offset 3, -24
 262              		.cfi_offset 6, -16
  98:Src/translator.cpp ****     }
 263              		.loc 1 98 16 view .LVU73
 264 00e4 B8010000 		movl	$1, %eax
 264      00
 265              	.LVL27:
 266              	.L18:
  99:Src/translator.cpp **** 
 267              		.loc 1 99 5 view .LVU74
 268 00e9 5B       		popq	%rbx
 269              		.cfi_remember_state
 270              		.cfi_def_cfa_offset 16
 271              	.LVL28:
  99:Src/translator.cpp **** 
 272              		.loc 1 99 5 view .LVU75
 273 00ea 5D       		popq	%rbp
 274              		.cfi_def_cfa_offset 8
 275              	.LVL29:
  99:Src/translator.cpp **** 
 276              		.loc 1 99 5 view .LVU76
 277 00eb C3       		ret
 278              	.LVL30:
 279              	.L23:
 280              		.cfi_restore_state
 281              	.LBB6:
  96:Src/translator.cpp ****         }
 282              		.loc 1 96 24 view .LVU77
 283 00ec B8000000 		movl	$0, %eax
 283      00
 284              	.LVL31:
  96:Src/translator.cpp ****         }
 285              		.loc 1 96 24 view .LVU78
 286 00f1 EBF6     		jmp	.L18
 287              	.LBE6:
 288              		.cfi_endproc
 289              	.LFE1509:
 291              		.globl	_ZN10translator11getZeroByteEhh
 293              	_ZN10translator11getZeroByteEhh:
 294              	.LVL32:
 295              	.LFB1510:
 102:Src/translator.cpp ****         return (uint8_t)(((type & 0b11) << 6) | (len & LEN_MASK));
 296              		.loc 1 102 5 is_stmt 1 view -0
 297              		.cfi_startproc
 103:Src/translator.cpp ****     }
 298              		.loc 1 103 9 view .LVU80
 103:Src/translator.cpp ****     }
 299              		.loc 1 103 33 is_stmt 0 view .LVU81
 300 00f3 400FB6C7 		movzbl	%dil, %eax
 103:Src/translator.cpp ****     }
 301              		.loc 1 103 41 view .LVU82
GAS LISTING /tmp/ccGRrKPJ.s 			page 12


 302 00f7 C1E006   		sall	$6, %eax
 103:Src/translator.cpp ****     }
 303              		.loc 1 103 54 view .LVU83
 304 00fa 83E63F   		andl	$63, %esi
 305              	.LVL33:
 103:Src/translator.cpp ****     }
 306              		.loc 1 103 47 view .LVU84
 307 00fd 09F0     		orl	%esi, %eax
 104:Src/translator.cpp **** 
 308              		.loc 1 104 5 view .LVU85
 309 00ff C3       		ret
 310              		.cfi_endproc
 311              	.LFE1510:
 313              		.globl	_ZN10translator11getCheckSumEPKh
 315              	_ZN10translator11getCheckSumEPKh:
 316              	.LVL34:
 317              	.LFB1511:
 108:Src/translator.cpp ****         return (package[1] << 8) | package[2];
 318              		.loc 1 108 5 is_stmt 1 view -0
 319              		.cfi_startproc
 109:Src/translator.cpp ****     }
 320              		.loc 1 109 9 view .LVU87
 109:Src/translator.cpp ****     }
 321              		.loc 1 109 26 is_stmt 0 view .LVU88
 322 0100 0FB64701 		movzbl	1(%rdi), %eax
 109:Src/translator.cpp ****     }
 323              		.loc 1 109 28 view .LVU89
 324 0104 C1E008   		sall	$8, %eax
 325 0107 89C2     		movl	%eax, %edx
 109:Src/translator.cpp ****     }
 326              		.loc 1 109 45 view .LVU90
 327 0109 0FB64702 		movzbl	2(%rdi), %eax
 109:Src/translator.cpp ****     }
 328              		.loc 1 109 34 view .LVU91
 329 010d 09D0     		orl	%edx, %eax
 110:Src/translator.cpp **** 
 330              		.loc 1 110 5 view .LVU92
 331 010f C3       		ret
 332              		.cfi_endproc
 333              	.LFE1511:
 335              		.globl	_ZN10translator11parsePacketEPhS0_
 337              	_ZN10translator11parsePacketEPhS0_:
 338              	.LVL35:
 339              	.LFB1505:
  29:Src/translator.cpp ****         uint8_t type = getType(package);
 340              		.loc 1 29 5 is_stmt 1 view -0
 341              		.cfi_startproc
  29:Src/translator.cpp ****         uint8_t type = getType(package);
 342              		.loc 1 29 5 is_stmt 0 view .LVU94
 343 0110 4156     		pushq	%r14
 344              		.cfi_def_cfa_offset 16
 345              		.cfi_offset 14, -16
 346 0112 4155     		pushq	%r13
 347              		.cfi_def_cfa_offset 24
 348              		.cfi_offset 13, -24
 349 0114 4154     		pushq	%r12
 350              		.cfi_def_cfa_offset 32
GAS LISTING /tmp/ccGRrKPJ.s 			page 13


 351              		.cfi_offset 12, -32
 352 0116 55       		pushq	%rbp
 353              		.cfi_def_cfa_offset 40
 354              		.cfi_offset 6, -40
 355 0117 53       		pushq	%rbx
 356              		.cfi_def_cfa_offset 48
 357              		.cfi_offset 3, -48
 358 0118 4889FB   		movq	%rdi, %rbx
 359 011b 4989F5   		movq	%rsi, %r13
  30:Src/translator.cpp ****         if(type != TYPE_ARR && type != TYPE_CMD && type != TYPE_VAR)
 360              		.loc 1 30 9 is_stmt 1 view .LVU95
  30:Src/translator.cpp ****         if(type != TYPE_ARR && type != TYPE_CMD && type != TYPE_VAR)
 361              		.loc 1 30 31 is_stmt 0 view .LVU96
 362 011e E8000000 		call	_ZN10translator7getTypeEPKh
 362      00
 363              	.LVL36:
  30:Src/translator.cpp ****         if(type != TYPE_ARR && type != TYPE_CMD && type != TYPE_VAR)
 364              		.loc 1 30 31 view .LVU97
 365 0123 4189C4   		movl	%eax, %r12d
 366              	.LVL37:
  31:Src/translator.cpp ****             return TYPE_BAD_TYPE;
 367              		.loc 1 31 9 is_stmt 1 view .LVU98
  31:Src/translator.cpp ****             return TYPE_BAD_TYPE;
 368              		.loc 1 31 17 is_stmt 0 view .LVU99
 369 0126 3C03     		cmpb	$3, %al
 370 0128 0F95C2   		setne	%dl
  31:Src/translator.cpp ****             return TYPE_BAD_TYPE;
 371              		.loc 1 31 37 view .LVU100
 372 012b 3C01     		cmpb	$1, %al
 373 012d 0F95C0   		setne	%al
 374              	.LVL38:
  31:Src/translator.cpp ****             return TYPE_BAD_TYPE;
 375              		.loc 1 31 9 view .LVU101
 376 0130 84C2     		testb	%al, %dl
 377 0132 7406     		je	.L31
  31:Src/translator.cpp ****             return TYPE_BAD_TYPE;
 378              		.loc 1 31 49 discriminator 1 view .LVU102
 379 0134 4180FC02 		cmpb	$2, %r12b
 380 0138 754F     		jne	.L34
 381              	.L31:
  34:Src/translator.cpp ****         if(len == 0)
 382              		.loc 1 34 9 is_stmt 1 view .LVU103
  34:Src/translator.cpp ****         if(len == 0)
 383              		.loc 1 34 29 is_stmt 0 view .LVU104
 384 013a 4889DF   		movq	%rbx, %rdi
 385 013d E8000000 		call	_ZN10translator6getLenEPKh
 385      00
 386              	.LVL39:
 387 0142 89C5     		movl	%eax, %ebp
 388              	.LVL40:
  35:Src/translator.cpp ****             return TYPE_BAD_LEN;
 389              		.loc 1 35 9 is_stmt 1 view .LVU105
 390 0144 84C0     		testb	%al, %al
 391 0146 7449     		je	.L35
  38:Src/translator.cpp ****             return TYPE_BAD_CHECKSUM;
 392              		.loc 1 38 9 view .LVU106
  38:Src/translator.cpp ****             return TYPE_BAD_CHECKSUM;
GAS LISTING /tmp/ccGRrKPJ.s 			page 14


 393              		.loc 1 38 23 is_stmt 0 view .LVU107
 394 0148 4889DF   		movq	%rbx, %rdi
 395 014b E8000000 		call	_ZN10translator11genCheckSumEPKh
 395      00
 396              	.LVL41:
  38:Src/translator.cpp ****             return TYPE_BAD_CHECKSUM;
 397              		.loc 1 38 23 view .LVU108
 398 0150 4189C6   		movl	%eax, %r14d
  38:Src/translator.cpp ****             return TYPE_BAD_CHECKSUM;
 399              		.loc 1 38 47 view .LVU109
 400 0153 4889DF   		movq	%rbx, %rdi
 401 0156 E8000000 		call	_ZN10translator11getCheckSumEPKh
 401      00
 402              	.LVL42:
  38:Src/translator.cpp ****             return TYPE_BAD_CHECKSUM;
 403              		.loc 1 38 9 view .LVU110
 404 015b 664439F0 		cmpw	%r14w, %ax
 405 015f 7538     		jne	.L36
 406              	.LBB7:
  42:Src/translator.cpp ****         {
 407              		.loc 1 42 21 view .LVU111
 408 0161 B8000000 		movl	$0, %eax
 408      00
 409 0166 EB10     		jmp	.L33
 410              	.LVL43:
 411              	.L38:
  44:Src/translator.cpp ****         }
 412              		.loc 1 44 13 is_stmt 1 discriminator 2 view .LVU112
  44:Src/translator.cpp ****         }
 413              		.loc 1 44 36 is_stmt 0 discriminator 2 view .LVU113
 414 0168 0FB6D0   		movzbl	%al, %edx
  44:Src/translator.cpp ****         }
 415              		.loc 1 44 41 discriminator 2 view .LVU114
 416 016b 0FB64C13 		movzbl	3(%rbx,%rdx), %ecx
 416      03
  44:Src/translator.cpp ****         }
 417              		.loc 1 44 26 discriminator 2 view .LVU115
 418 0170 41884C15 		movb	%cl, 0(%r13,%rdx)
 418      00
  42:Src/translator.cpp ****         {
 419              		.loc 1 42 9 discriminator 2 view .LVU116
 420 0175 83C001   		addl	$1, %eax
 421              	.LVL44:
 422              	.L33:
  42:Src/translator.cpp ****         {
 423              		.loc 1 42 30 discriminator 3 view .LVU117
 424 0178 4038E8   		cmpb	%bpl, %al
 425 017b 72EB     		jb	.L38
 426              	.LVL45:
 427              	.L30:
  42:Src/translator.cpp ****         {
 428              		.loc 1 42 30 discriminator 3 view .LVU118
 429              	.LBE7:
  47:Src/translator.cpp **** 
 430              		.loc 1 47 5 view .LVU119
 431 017d 4489E0   		movl	%r12d, %eax
 432 0180 5B       		popq	%rbx
GAS LISTING /tmp/ccGRrKPJ.s 			page 15


 433              		.cfi_remember_state
 434              		.cfi_def_cfa_offset 40
 435              	.LVL46:
  47:Src/translator.cpp **** 
 436              		.loc 1 47 5 view .LVU120
 437 0181 5D       		popq	%rbp
 438              		.cfi_def_cfa_offset 32
 439 0182 415C     		popq	%r12
 440              		.cfi_def_cfa_offset 24
 441 0184 415D     		popq	%r13
 442              		.cfi_def_cfa_offset 16
 443              	.LVL47:
  47:Src/translator.cpp **** 
 444              		.loc 1 47 5 view .LVU121
 445 0186 415E     		popq	%r14
 446              		.cfi_def_cfa_offset 8
 447 0188 C3       		ret
 448              	.LVL48:
 449              	.L34:
 450              		.cfi_restore_state
  32:Src/translator.cpp **** 
 451              		.loc 1 32 20 view .LVU122
 452 0189 41BC6500 		movl	$101, %r12d
 452      0000
 453              	.LVL49:
  32:Src/translator.cpp **** 
 454              		.loc 1 32 20 view .LVU123
 455 018f EBEC     		jmp	.L30
 456              	.LVL50:
 457              	.L35:
  36:Src/translator.cpp **** 
 458              		.loc 1 36 20 view .LVU124
 459 0191 41BC6400 		movl	$100, %r12d
 459      0000
 460              	.LVL51:
  36:Src/translator.cpp **** 
 461              		.loc 1 36 20 view .LVU125
 462 0197 EBE4     		jmp	.L30
 463              	.LVL52:
 464              	.L36:
  39:Src/translator.cpp **** 
 465              		.loc 1 39 20 view .LVU126
 466 0199 41BC6600 		movl	$102, %r12d
 466      0000
 467              	.LVL53:
  39:Src/translator.cpp **** 
 468              		.loc 1 39 20 view .LVU127
 469 019f EBDC     		jmp	.L30
 470              		.cfi_endproc
 471              	.LFE1505:
 473              		.globl	_ZN10translator8parseCmdEPhPPFvvE
 475              	_ZN10translator8parseCmdEPhPPFvvE:
 476              	.LVL54:
 477              	.LFB1506:
  52:Src/translator.cpp ****         uint8_t var = getType(package);
 478              		.loc 1 52 5 is_stmt 1 view -0
 479              		.cfi_startproc
GAS LISTING /tmp/ccGRrKPJ.s 			page 16


  52:Src/translator.cpp ****         uint8_t var = getType(package);
 480              		.loc 1 52 5 is_stmt 0 view .LVU129
 481 01a1 4155     		pushq	%r13
 482              		.cfi_def_cfa_offset 16
 483              		.cfi_offset 13, -16
 484 01a3 4154     		pushq	%r12
 485              		.cfi_def_cfa_offset 24
 486              		.cfi_offset 12, -24
 487 01a5 55       		pushq	%rbp
 488              		.cfi_def_cfa_offset 32
 489              		.cfi_offset 6, -32
 490 01a6 53       		pushq	%rbx
 491              		.cfi_def_cfa_offset 40
 492              		.cfi_offset 3, -40
 493 01a7 4883EC08 		subq	$8, %rsp
 494              		.cfi_def_cfa_offset 48
 495 01ab 4889FB   		movq	%rdi, %rbx
 496 01ae 4989F4   		movq	%rsi, %r12
  53:Src/translator.cpp ****         if(var != TYPE_CMD)
 497              		.loc 1 53 9 is_stmt 1 view .LVU130
  53:Src/translator.cpp ****         if(var != TYPE_CMD)
 498              		.loc 1 53 30 is_stmt 0 view .LVU131
 499 01b1 E8000000 		call	_ZN10translator7getTypeEPKh
 499      00
 500              	.LVL55:
  54:Src/translator.cpp ****             return TYPE_BAD_TYPE;
 501              		.loc 1 54 9 is_stmt 1 view .LVU132
 502 01b6 3C01     		cmpb	$1, %al
 503 01b8 7538     		jne	.L41
  57:Src/translator.cpp ****         if(var != 1)
 504              		.loc 1 57 9 view .LVU133
  57:Src/translator.cpp ****         if(var != 1)
 505              		.loc 1 57 21 is_stmt 0 view .LVU134
 506 01ba 4889DF   		movq	%rbx, %rdi
 507 01bd E8000000 		call	_ZN10translator6getLenEPKh
 507      00
 508              	.LVL56:
  57:Src/translator.cpp ****         if(var != 1)
 509              		.loc 1 57 21 view .LVU135
 510 01c2 89C5     		movl	%eax, %ebp
 511              	.LVL57:
  58:Src/translator.cpp ****             return TYPE_BAD_LEN;
 512              		.loc 1 58 9 is_stmt 1 view .LVU136
 513 01c4 3C01     		cmpb	$1, %al
 514 01c6 753C     		jne	.L42
  61:Src/translator.cpp ****         if(check != getCheckSum(package))
 515              		.loc 1 61 9 view .LVU137
  61:Src/translator.cpp ****         if(check != getCheckSum(package))
 516              		.loc 1 61 39 is_stmt 0 view .LVU138
 517 01c8 4889DF   		movq	%rbx, %rdi
 518 01cb E8000000 		call	_ZN10translator11genCheckSumEPKh
 518      00
 519              	.LVL58:
  61:Src/translator.cpp ****         if(check != getCheckSum(package))
 520              		.loc 1 61 39 view .LVU139
 521 01d0 4189C5   		movl	%eax, %r13d
 522              	.LVL59:
GAS LISTING /tmp/ccGRrKPJ.s 			page 17


  62:Src/translator.cpp ****             return TYPE_BAD_CHECKSUM;
 523              		.loc 1 62 9 is_stmt 1 view .LVU140
  62:Src/translator.cpp ****             return TYPE_BAD_CHECKSUM;
 524              		.loc 1 62 32 is_stmt 0 view .LVU141
 525 01d3 4889DF   		movq	%rbx, %rdi
 526 01d6 E8000000 		call	_ZN10translator11getCheckSumEPKh
 526      00
 527              	.LVL60:
  62:Src/translator.cpp ****             return TYPE_BAD_CHECKSUM;
 528              		.loc 1 62 9 view .LVU142
 529 01db 664439E8 		cmpw	%r13w, %ax
 530 01df 752A     		jne	.L43
  65:Src/translator.cpp ****             funcArr[package[3]]();
 531              		.loc 1 65 9 is_stmt 1 view .LVU143
  65:Src/translator.cpp ****             funcArr[package[3]]();
 532              		.loc 1 65 29 is_stmt 0 view .LVU144
 533 01e1 0FB64303 		movzbl	3(%rbx), %eax
  65:Src/translator.cpp ****             funcArr[package[3]]();
 534              		.loc 1 65 30 view .LVU145
 535 01e5 498B04C4 		movq	(%r12,%rax,8), %rax
  65:Src/translator.cpp ****             funcArr[package[3]]();
 536              		.loc 1 65 9 view .LVU146
 537 01e9 4885C0   		testq	%rax, %rax
 538 01ec 7409     		je	.L39
  66:Src/translator.cpp ****         return TYPE_CMD;
 539              		.loc 1 66 13 is_stmt 1 view .LVU147
  66:Src/translator.cpp ****         return TYPE_CMD;
 540              		.loc 1 66 32 is_stmt 0 view .LVU148
 541 01ee FFD0     		call	*%rax
 542              	.LVL61:
 543 01f0 EB05     		jmp	.L39
 544              	.LVL62:
 545              	.L41:
  55:Src/translator.cpp **** 
 546              		.loc 1 55 20 view .LVU149
 547 01f2 BD650000 		movl	$101, %ebp
 547      00
 548              	.LVL63:
 549              	.L39:
  68:Src/translator.cpp **** 
 550              		.loc 1 68 5 view .LVU150
 551 01f7 89E8     		movl	%ebp, %eax
 552 01f9 4883C408 		addq	$8, %rsp
 553              		.cfi_remember_state
 554              		.cfi_def_cfa_offset 40
 555 01fd 5B       		popq	%rbx
 556              		.cfi_def_cfa_offset 32
 557              	.LVL64:
  68:Src/translator.cpp **** 
 558              		.loc 1 68 5 view .LVU151
 559 01fe 5D       		popq	%rbp
 560              		.cfi_def_cfa_offset 24
 561 01ff 415C     		popq	%r12
 562              		.cfi_def_cfa_offset 16
 563              	.LVL65:
  68:Src/translator.cpp **** 
 564              		.loc 1 68 5 view .LVU152
GAS LISTING /tmp/ccGRrKPJ.s 			page 18


 565 0201 415D     		popq	%r13
 566              		.cfi_def_cfa_offset 8
 567 0203 C3       		ret
 568              	.LVL66:
 569              	.L42:
 570              		.cfi_restore_state
  59:Src/translator.cpp **** 
 571              		.loc 1 59 20 view .LVU153
 572 0204 BD640000 		movl	$100, %ebp
 572      00
 573 0209 EBEC     		jmp	.L39
 574              	.LVL67:
 575              	.L43:
  63:Src/translator.cpp **** 
 576              		.loc 1 63 20 view .LVU154
 577 020b BD660000 		movl	$102, %ebp
 577      00
 578              	.LVL68:
  63:Src/translator.cpp **** 
 579              		.loc 1 63 20 view .LVU155
 580 0210 EBE5     		jmp	.L39
 581              		.cfi_endproc
 582              	.LFE1506:
 584              		.globl	_ZN10translator11generateCmdEhPh
 586              	_ZN10translator11generateCmdEhPh:
 587              	.LVL69:
 588              	.LFB1512:
 115:Src/translator.cpp ****         tgt[0] = getZeroByte(TYPE_CMD, 1);
 589              		.loc 1 115 5 is_stmt 1 view -0
 590              		.cfi_startproc
 115:Src/translator.cpp ****         tgt[0] = getZeroByte(TYPE_CMD, 1);
 591              		.loc 1 115 5 is_stmt 0 view .LVU157
 592 0212 55       		pushq	%rbp
 593              		.cfi_def_cfa_offset 16
 594              		.cfi_offset 6, -16
 595 0213 53       		pushq	%rbx
 596              		.cfi_def_cfa_offset 24
 597              		.cfi_offset 3, -24
 598 0214 89FD     		movl	%edi, %ebp
 599 0216 4889F3   		movq	%rsi, %rbx
 116:Src/translator.cpp ****         tgt[3] = cmd;
 600              		.loc 1 116 9 is_stmt 1 view .LVU158
 116:Src/translator.cpp ****         tgt[3] = cmd;
 601              		.loc 1 116 29 is_stmt 0 view .LVU159
 602 0219 BE010000 		movl	$1, %esi
 602      00
 603              	.LVL70:
 116:Src/translator.cpp ****         tgt[3] = cmd;
 604              		.loc 1 116 29 view .LVU160
 605 021e BF010000 		movl	$1, %edi
 605      00
 606              	.LVL71:
 116:Src/translator.cpp ****         tgt[3] = cmd;
 607              		.loc 1 116 29 view .LVU161
 608 0223 E8000000 		call	_ZN10translator11getZeroByteEhh
 608      00
 609              	.LVL72:
GAS LISTING /tmp/ccGRrKPJ.s 			page 19


 116:Src/translator.cpp ****         tgt[3] = cmd;
 610              		.loc 1 116 16 view .LVU162
 611 0228 8803     		movb	%al, (%rbx)
 117:Src/translator.cpp ****         checksum_t check = getCheckSum(tgt);
 612              		.loc 1 117 9 is_stmt 1 view .LVU163
 117:Src/translator.cpp ****         checksum_t check = getCheckSum(tgt);
 613              		.loc 1 117 16 is_stmt 0 view .LVU164
 614 022a 40886B03 		movb	%bpl, 3(%rbx)
 118:Src/translator.cpp ****         tgt[1] = check >> 8;
 615              		.loc 1 118 9 is_stmt 1 view .LVU165
 118:Src/translator.cpp ****         tgt[1] = check >> 8;
 616              		.loc 1 118 39 is_stmt 0 view .LVU166
 617 022e 4889DF   		movq	%rbx, %rdi
 618 0231 E8000000 		call	_ZN10translator11getCheckSumEPKh
 618      00
 619              	.LVL73:
 119:Src/translator.cpp ****         tgt[2] = check & 0xFF;
 620              		.loc 1 119 9 is_stmt 1 view .LVU167
 119:Src/translator.cpp ****         tgt[2] = check & 0xFF;
 621              		.loc 1 119 24 is_stmt 0 view .LVU168
 622 0236 0FB6D4   		movzbl	%ah, %edx
 119:Src/translator.cpp ****         tgt[2] = check & 0xFF;
 623              		.loc 1 119 16 view .LVU169
 624 0239 885301   		movb	%dl, 1(%rbx)
 120:Src/translator.cpp ****     }
 625              		.loc 1 120 9 is_stmt 1 view .LVU170
 120:Src/translator.cpp ****     }
 626              		.loc 1 120 16 is_stmt 0 view .LVU171
 627 023c 884302   		movb	%al, 2(%rbx)
 121:Src/translator.cpp **** 
 628              		.loc 1 121 5 view .LVU172
 629 023f 5B       		popq	%rbx
 630              		.cfi_def_cfa_offset 16
 631              	.LVL74:
 121:Src/translator.cpp **** 
 632              		.loc 1 121 5 view .LVU173
 633 0240 5D       		popq	%rbp
 634              		.cfi_def_cfa_offset 8
 635 0241 C3       		ret
 636              		.cfi_endproc
 637              	.LFE1512:
 639              		.globl	_ZN10translator8validateEPKh
 641              	_ZN10translator8validateEPKh:
 642              	.LVL75:
 643              	.LFB1514:
 136:Src/translator.cpp ****         uint8_t type = getType(pack);
 644              		.loc 1 136 5 is_stmt 1 view -0
 645              		.cfi_startproc
 136:Src/translator.cpp ****         uint8_t type = getType(pack);
 646              		.loc 1 136 5 is_stmt 0 view .LVU175
 647 0242 55       		pushq	%rbp
 648              		.cfi_def_cfa_offset 16
 649              		.cfi_offset 6, -16
 650 0243 53       		pushq	%rbx
 651              		.cfi_def_cfa_offset 24
 652              		.cfi_offset 3, -24
 653 0244 4889FB   		movq	%rdi, %rbx
GAS LISTING /tmp/ccGRrKPJ.s 			page 20


 137:Src/translator.cpp ****         switch (type)
 654              		.loc 1 137 9 is_stmt 1 view .LVU176
 137:Src/translator.cpp ****         switch (type)
 655              		.loc 1 137 31 is_stmt 0 view .LVU177
 656 0247 E8000000 		call	_ZN10translator7getTypeEPKh
 656      00
 657              	.LVL76:
 138:Src/translator.cpp ****         {
 658              		.loc 1 138 9 is_stmt 1 view .LVU178
 659 024c 3C01     		cmpb	$1, %al
 660 024e 7432     		je	.L48
 661 0250 84C0     		testb	%al, %al
 662 0252 7441     		je	.L52
 663 0254 83E802   		subl	$2, %eax
 664              	.LVL77:
 138:Src/translator.cpp ****         {
 665              		.loc 1 138 9 is_stmt 0 view .LVU179
 666 0257 3C01     		cmpb	$1, %al
 667 0259 7741     		ja	.L58
 146:Src/translator.cpp ****             case TYPE_ARR:
 668              		.loc 1 146 13 is_stmt 1 view .LVU180
 147:Src/translator.cpp ****             {
 669              		.loc 1 147 13 view .LVU181
 148:Src/translator.cpp ****                 if(getLen(pack) <= 1)
 670              		.loc 1 148 13 view .LVU182
 149:Src/translator.cpp ****                     return false;
 671              		.loc 1 149 17 view .LVU183
 149:Src/translator.cpp ****                     return false;
 672              		.loc 1 149 26 is_stmt 0 view .LVU184
 673 025b 4889DF   		movq	%rbx, %rdi
 674 025e E8000000 		call	_ZN10translator6getLenEPKh
 674      00
 675              	.LVL78:
 149:Src/translator.cpp ****                     return false;
 676              		.loc 1 149 17 view .LVU185
 677 0263 3C01     		cmpb	$1, %al
 678 0265 763C     		jbe	.L55
 679              	.L51:
 156:Src/translator.cpp ****     }
 680              		.loc 1 156 9 is_stmt 1 view .LVU186
 156:Src/translator.cpp ****     }
 681              		.loc 1 156 28 is_stmt 0 view .LVU187
 682 0267 4889DF   		movq	%rbx, %rdi
 683 026a E8000000 		call	_ZN10translator11getCheckSumEPKh
 683      00
 684              	.LVL79:
 685 026f 89C5     		movl	%eax, %ebp
 156:Src/translator.cpp ****     }
 686              		.loc 1 156 49 view .LVU188
 687 0271 4889DF   		movq	%rbx, %rdi
 688 0274 E8000000 		call	_ZN10translator11genCheckSumEPKh
 688      00
 689              	.LVL80:
 156:Src/translator.cpp ****     }
 690              		.loc 1 156 55 view .LVU189
 691 0279 6639C5   		cmpw	%ax, %bp
 692 027c 0F94C0   		sete	%al
GAS LISTING /tmp/ccGRrKPJ.s 			page 21


 693              	.L47:
 157:Src/translator.cpp **** 
 694              		.loc 1 157 5 view .LVU190
 695 027f 5B       		popq	%rbx
 696              		.cfi_remember_state
 697              		.cfi_def_cfa_offset 16
 698              	.LVL81:
 157:Src/translator.cpp **** 
 699              		.loc 1 157 5 view .LVU191
 700 0280 5D       		popq	%rbp
 701              		.cfi_def_cfa_offset 8
 702 0281 C3       		ret
 703              	.LVL82:
 704              	.L48:
 705              		.cfi_restore_state
 140:Src/translator.cpp ****             {
 706              		.loc 1 140 13 is_stmt 1 view .LVU192
 141:Src/translator.cpp ****                 if(getLen(pack) != 1)
 707              		.loc 1 141 13 view .LVU193
 142:Src/translator.cpp ****                     return false;
 708              		.loc 1 142 17 view .LVU194
 142:Src/translator.cpp ****                     return false;
 709              		.loc 1 142 26 is_stmt 0 view .LVU195
 710 0282 4889DF   		movq	%rbx, %rdi
 711 0285 E8000000 		call	_ZN10translator6getLenEPKh
 711      00
 712              	.LVL83:
 142:Src/translator.cpp ****                     return false;
 713              		.loc 1 142 17 view .LVU196
 714 028a 3C01     		cmpb	$1, %al
 715 028c 74D9     		je	.L51
 143:Src/translator.cpp ****                 break;
 716              		.loc 1 143 28 view .LVU197
 717 028e B8000000 		movl	$0, %eax
 717      00
 718 0293 EBEA     		jmp	.L47
 719              	.LVL84:
 720              	.L52:
 138:Src/translator.cpp ****         {
 721              		.loc 1 138 9 view .LVU198
 722 0295 B8000000 		movl	$0, %eax
 722      00
 723              	.LVL85:
 138:Src/translator.cpp ****         {
 724              		.loc 1 138 9 view .LVU199
 725 029a EBE3     		jmp	.L47
 726              	.L58:
 727 029c B8000000 		movl	$0, %eax
 727      00
 728 02a1 EBDC     		jmp	.L47
 729              	.L55:
 150:Src/translator.cpp ****                 break;
 730              		.loc 1 150 28 view .LVU200
 731 02a3 B8000000 		movl	$0, %eax
 731      00
 732 02a8 EBD5     		jmp	.L47
 733              		.cfi_endproc
GAS LISTING /tmp/ccGRrKPJ.s 			page 22


 734              	.LFE1514:
 736              		.globl	_ZN10translator8getVarIdEPKh
 738              	_ZN10translator8getVarIdEPKh:
 739              	.LVL86:
 740              	.LFB1513:
 126:Src/translator.cpp ****         if(!validate(pack))
 741              		.loc 1 126 5 is_stmt 1 view -0
 742              		.cfi_startproc
 126:Src/translator.cpp ****         if(!validate(pack))
 743              		.loc 1 126 5 is_stmt 0 view .LVU202
 744 02aa 53       		pushq	%rbx
 745              		.cfi_def_cfa_offset 16
 746              		.cfi_offset 3, -16
 747 02ab 4889FB   		movq	%rdi, %rbx
 127:Src/translator.cpp ****             return 0xFF;
 748              		.loc 1 127 9 is_stmt 1 view .LVU203
 127:Src/translator.cpp ****             return 0xFF;
 749              		.loc 1 127 21 is_stmt 0 view .LVU204
 750 02ae E8000000 		call	_ZN10translator8validateEPKh
 750      00
 751              	.LVL87:
 127:Src/translator.cpp ****             return 0xFF;
 752              		.loc 1 127 9 view .LVU205
 753 02b3 84C0     		testb	%al, %al
 754 02b5 7406     		je	.L61
 130:Src/translator.cpp ****     }
 755              		.loc 1 130 9 is_stmt 1 view .LVU206
 130:Src/translator.cpp ****     }
 756              		.loc 1 130 22 is_stmt 0 view .LVU207
 757 02b7 0FB64303 		movzbl	3(%rbx), %eax
 758              	.L59:
 131:Src/translator.cpp **** 
 759              		.loc 1 131 5 view .LVU208
 760 02bb 5B       		popq	%rbx
 761              		.cfi_remember_state
 762              		.cfi_def_cfa_offset 8
 763              	.LVL88:
 131:Src/translator.cpp **** 
 764              		.loc 1 131 5 view .LVU209
 765 02bc C3       		ret
 766              	.LVL89:
 767              	.L61:
 768              		.cfi_restore_state
 128:Src/translator.cpp **** 
 769              		.loc 1 128 20 view .LVU210
 770 02bd B8FFFFFF 		movl	$-1, %eax
 770      FF
 771 02c2 EBF7     		jmp	.L59
 772              		.cfi_endproc
 773              	.LFE1513:
 775              		.globl	_ZN10translator11generateVarEhhPKhPh
 777              	_ZN10translator11generateVarEhhPKhPh:
 778              	.LVL90:
 779              	.LFB1515:
 161:Src/translator.cpp ****         tgt[0] = getZeroByte(TYPE_VAR, len + 1);
 780              		.loc 1 161 5 is_stmt 1 view -0
 781              		.cfi_startproc
GAS LISTING /tmp/ccGRrKPJ.s 			page 23


 161:Src/translator.cpp ****         tgt[0] = getZeroByte(TYPE_VAR, len + 1);
 782              		.loc 1 161 5 is_stmt 0 view .LVU212
 783 02c4 4155     		pushq	%r13
 784              		.cfi_def_cfa_offset 16
 785              		.cfi_offset 13, -16
 786 02c6 4154     		pushq	%r12
 787              		.cfi_def_cfa_offset 24
 788              		.cfi_offset 12, -24
 789 02c8 55       		pushq	%rbp
 790              		.cfi_def_cfa_offset 32
 791              		.cfi_offset 6, -32
 792 02c9 53       		pushq	%rbx
 793              		.cfi_def_cfa_offset 40
 794              		.cfi_offset 3, -40
 795 02ca 4189F5   		movl	%esi, %r13d
 796 02cd 4889D5   		movq	%rdx, %rbp
 797 02d0 4889CB   		movq	%rcx, %rbx
 798 02d3 4189FC   		movl	%edi, %r12d
 162:Src/translator.cpp ****         tgt[3] = id;
 799              		.loc 1 162 9 is_stmt 1 view .LVU213
 162:Src/translator.cpp ****         tgt[3] = id;
 800              		.loc 1 162 44 is_stmt 0 view .LVU214
 801 02d6 83C701   		addl	$1, %edi
 802              	.LVL91:
 162:Src/translator.cpp ****         tgt[3] = id;
 803              		.loc 1 162 29 view .LVU215
 804 02d9 400FB6F7 		movzbl	%dil, %esi
 805              	.LVL92:
 162:Src/translator.cpp ****         tgt[3] = id;
 806              		.loc 1 162 29 view .LVU216
 807 02dd BF020000 		movl	$2, %edi
 807      00
 808 02e2 E8000000 		call	_ZN10translator11getZeroByteEhh
 808      00
 809              	.LVL93:
 162:Src/translator.cpp ****         tgt[3] = id;
 810              		.loc 1 162 16 view .LVU217
 811 02e7 8803     		movb	%al, (%rbx)
 163:Src/translator.cpp ****         for(uint8_t i = 0; i < len; i++)
 812              		.loc 1 163 9 is_stmt 1 view .LVU218
 163:Src/translator.cpp ****         for(uint8_t i = 0; i < len; i++)
 813              		.loc 1 163 16 is_stmt 0 view .LVU219
 814 02e9 44886B03 		movb	%r13b, 3(%rbx)
 164:Src/translator.cpp ****             tgt[4 + i] = var[i];
 815              		.loc 1 164 9 is_stmt 1 view .LVU220
 816              	.LVL94:
 817              	.LBB8:
 164:Src/translator.cpp ****             tgt[4 + i] = var[i];
 818              		.loc 1 164 21 is_stmt 0 view .LVU221
 819 02ed BA000000 		movl	$0, %edx
 819      00
 820              	.LVL95:
 821              	.L65:
 164:Src/translator.cpp ****             tgt[4 + i] = var[i];
 822              		.loc 1 164 30 discriminator 3 view .LVU222
 823 02f2 4438E2   		cmpb	%r12b, %dl
 824 02f5 7318     		jnb	.L64
GAS LISTING /tmp/ccGRrKPJ.s 			page 24


 165:Src/translator.cpp ****         checksum_t check = genCheckSum(tgt);
 825              		.loc 1 165 13 is_stmt 1 discriminator 2 view .LVU223
 165:Src/translator.cpp ****         checksum_t check = genCheckSum(tgt);
 826              		.loc 1 165 30 is_stmt 0 discriminator 2 view .LVU224
 827 02f7 0FB6CA   		movzbl	%dl, %ecx
 165:Src/translator.cpp ****         checksum_t check = genCheckSum(tgt);
 828              		.loc 1 165 21 discriminator 2 view .LVU225
 829 02fa 0FB6C2   		movzbl	%dl, %eax
 165:Src/translator.cpp ****         checksum_t check = genCheckSum(tgt);
 830              		.loc 1 165 19 discriminator 2 view .LVU226
 831 02fd 83C004   		addl	$4, %eax
 832 0300 4898     		cltq
 165:Src/translator.cpp ****         checksum_t check = genCheckSum(tgt);
 833              		.loc 1 165 31 discriminator 2 view .LVU227
 834 0302 0FB64C0D 		movzbl	0(%rbp,%rcx), %ecx
 834      00
 165:Src/translator.cpp ****         checksum_t check = genCheckSum(tgt);
 835              		.loc 1 165 24 discriminator 2 view .LVU228
 836 0307 880C03   		movb	%cl, (%rbx,%rax)
 164:Src/translator.cpp ****             tgt[4 + i] = var[i];
 837              		.loc 1 164 9 discriminator 2 view .LVU229
 838 030a 83C201   		addl	$1, %edx
 839              	.LVL96:
 164:Src/translator.cpp ****             tgt[4 + i] = var[i];
 840              		.loc 1 164 9 discriminator 2 view .LVU230
 841 030d EBE3     		jmp	.L65
 842              	.L64:
 164:Src/translator.cpp ****             tgt[4 + i] = var[i];
 843              		.loc 1 164 9 discriminator 2 view .LVU231
 844              	.LBE8:
 166:Src/translator.cpp ****         tgt[1] = check >> 8;
 845              		.loc 1 166 9 is_stmt 1 view .LVU232
 166:Src/translator.cpp ****         tgt[1] = check >> 8;
 846              		.loc 1 166 39 is_stmt 0 view .LVU233
 847 030f 4889DF   		movq	%rbx, %rdi
 848 0312 E8000000 		call	_ZN10translator11genCheckSumEPKh
 848      00
 849              	.LVL97:
 167:Src/translator.cpp ****         tgt[2] = check & 0xFF;
 850              		.loc 1 167 9 is_stmt 1 view .LVU234
 167:Src/translator.cpp ****         tgt[2] = check & 0xFF;
 851              		.loc 1 167 24 is_stmt 0 view .LVU235
 852 0317 0FB6D4   		movzbl	%ah, %edx
 167:Src/translator.cpp ****         tgt[2] = check & 0xFF;
 853              		.loc 1 167 16 view .LVU236
 854 031a 885301   		movb	%dl, 1(%rbx)
 168:Src/translator.cpp ****     }
 855              		.loc 1 168 9 is_stmt 1 view .LVU237
 168:Src/translator.cpp ****     }
 856              		.loc 1 168 16 is_stmt 0 view .LVU238
 857 031d 884302   		movb	%al, 2(%rbx)
 169:Src/translator.cpp **** }
 858              		.loc 1 169 5 view .LVU239
 859 0320 5B       		popq	%rbx
 860              		.cfi_def_cfa_offset 32
 861              	.LVL98:
 169:Src/translator.cpp **** }
GAS LISTING /tmp/ccGRrKPJ.s 			page 25


 862              		.loc 1 169 5 view .LVU240
 863 0321 5D       		popq	%rbp
 864              		.cfi_def_cfa_offset 24
 865              	.LVL99:
 169:Src/translator.cpp **** }
 866              		.loc 1 169 5 view .LVU241
 867 0322 415C     		popq	%r12
 868              		.cfi_def_cfa_offset 16
 869              	.LVL100:
 169:Src/translator.cpp **** }
 870              		.loc 1 169 5 view .LVU242
 871 0324 415D     		popq	%r13
 872              		.cfi_def_cfa_offset 8
 873 0326 C3       		ret
 874              		.cfi_endproc
 875              	.LFE1515:
 878              	_GLOBAL__sub_I__ZN10translator11genCheckSumEPKh:
 879              	.LFB1833:
 880              		.loc 1 170 1 is_stmt 1 view -0
 881              		.cfi_startproc
 882 0327 4883EC08 		subq	$8, %rsp
 883              		.cfi_def_cfa_offset 16
 884              		.loc 1 170 1 is_stmt 0 view .LVU244
 885 032b BEFFFF00 		movl	$65535, %esi
 885      00
 886 0330 BF010000 		movl	$1, %edi
 886      00
 887 0335 E8C6FCFF 		call	_Z41__static_initialization_and_destruction_0ii
 887      FF
 888              	.LVL101:
 889 033a 4883C408 		addq	$8, %rsp
 890              		.cfi_def_cfa_offset 8
 891 033e C3       		ret
 892              		.cfi_endproc
 893              	.LFE1833:
 895              		.section	.init_array,"aw"
 896              		.align 8
 897 0000 00000000 		.quad	_GLOBAL__sub_I__ZN10translator11genCheckSumEPKh
 897      00000000 
 898              		.local	_ZStL8__ioinit
 899              		.comm	_ZStL8__ioinit,1,1
 900              		.text
 901              	.Letext0:
 902              		.file 3 "/usr/include/c++/9.1.0/cwchar"
 903              		.file 4 "/usr/include/c++/9.1.0/new"
 904              		.file 5 "/usr/include/c++/9.1.0/bits/exception_ptr.h"
 905              		.file 6 "/usr/include/c++/9.1.0/type_traits"
 906              		.file 7 "/usr/include/c++/9.1.0/x86_64-pc-linux-gnu/bits/c++config.h"
 907              		.file 8 "/usr/include/c++/9.1.0/bits/stl_pair.h"
 908              		.file 9 "/usr/include/c++/9.1.0/debug/debug.h"
 909              		.file 10 "/usr/include/c++/9.1.0/bits/char_traits.h"
 910              		.file 11 "/usr/include/c++/9.1.0/cstdint"
 911              		.file 12 "/usr/include/c++/9.1.0/clocale"
 912              		.file 13 "/usr/include/c++/9.1.0/cstdlib"
 913              		.file 14 "/usr/include/c++/9.1.0/cstdio"
 914              		.file 15 "/usr/include/c++/9.1.0/system_error"
 915              		.file 16 "/usr/include/c++/9.1.0/bits/ios_base.h"
GAS LISTING /tmp/ccGRrKPJ.s 			page 26


 916              		.file 17 "/usr/include/c++/9.1.0/cwctype"
 917              		.file 18 "/usr/include/c++/9.1.0/iosfwd"
 918              		.file 19 "/usr/include/c++/9.1.0/bits/predefined_ops.h"
 919              		.file 20 "/usr/include/c++/9.1.0/ext/new_allocator.h"
 920              		.file 21 "/usr/include/c++/9.1.0/ext/numeric_traits.h"
 921              		.file 22 "/usr/lib/gcc/x86_64-pc-linux-gnu/9.1.0/include/stddef.h"
 922              		.file 23 "<built-in>"
 923              		.file 24 "/usr/include/bits/types/wint_t.h"
 924              		.file 25 "/usr/include/bits/types/__mbstate_t.h"
 925              		.file 26 "/usr/include/bits/types/mbstate_t.h"
 926              		.file 27 "/usr/include/bits/types/__FILE.h"
 927              		.file 28 "/usr/include/bits/types/struct_FILE.h"
 928              		.file 29 "/usr/include/bits/types/FILE.h"
 929              		.file 30 "/usr/include/wchar.h"
 930              		.file 31 "/usr/include/bits/types/struct_tm.h"
 931              		.file 32 "/usr/include/bits/types.h"
 932              		.file 33 "/usr/include/bits/stdint-intn.h"
 933              		.file 34 "/usr/include/bits/stdint-uintn.h"
 934              		.file 35 "/usr/include/stdint.h"
 935              		.file 36 "/usr/include/locale.h"
 936              		.file 37 "/usr/include/time.h"
 937              		.file 38 "/usr/include/c++/9.1.0/x86_64-pc-linux-gnu/bits/atomic_word.h"
 938              		.file 39 "/usr/include/stdlib.h"
 939              		.file 40 "/usr/include/bits/stdlib-float.h"
 940              		.file 41 "/usr/include/bits/stdlib-bsearch.h"
 941              		.file 42 "/usr/include/bits/types/__fpos_t.h"
 942              		.file 43 "/usr/include/stdio.h"
 943              		.file 44 "/usr/include/bits/sys_errlist.h"
 944              		.file 45 "/usr/include/bits/stdio.h"
 945              		.file 46 "/usr/include/errno.h"
 946              		.file 47 "/usr/include/bits/wctype-wchar.h"
 947              		.file 48 "/usr/include/wctype.h"
 948              		.file 49 "Inc/translator.hpp"
GAS LISTING /tmp/ccGRrKPJ.s 			page 27


DEFINED SYMBOLS
                            *ABS*:0000000000000000 translator.cpp
     /tmp/ccGRrKPJ.s:5      .text:0000000000000000 _Z41__static_initialization_and_destruction_0ii
                             .bss:0000000000000000 _ZStL8__ioinit
     /tmp/ccGRrKPJ.s:45     .text:000000000000003d _ZN10translator7getTypeEPKh
     /tmp/ccGRrKPJ.s:62     .text:0000000000000044 _ZN10translator6getLenEPKh
     /tmp/ccGRrKPJ.s:79     .text:000000000000004b _ZN10translator11genCheckSumEPKh
     /tmp/ccGRrKPJ.s:147    .text:0000000000000083 _ZN10translator10getPayloadEPKhPh
     /tmp/ccGRrKPJ.s:204    .text:00000000000000ae _ZN10translator6equalsEPKhS1_
     /tmp/ccGRrKPJ.s:293    .text:00000000000000f3 _ZN10translator11getZeroByteEhh
     /tmp/ccGRrKPJ.s:315    .text:0000000000000100 _ZN10translator11getCheckSumEPKh
     /tmp/ccGRrKPJ.s:337    .text:0000000000000110 _ZN10translator11parsePacketEPhS0_
     /tmp/ccGRrKPJ.s:475    .text:00000000000001a1 _ZN10translator8parseCmdEPhPPFvvE
     /tmp/ccGRrKPJ.s:586    .text:0000000000000212 _ZN10translator11generateCmdEhPh
     /tmp/ccGRrKPJ.s:641    .text:0000000000000242 _ZN10translator8validateEPKh
     /tmp/ccGRrKPJ.s:738    .text:00000000000002aa _ZN10translator8getVarIdEPKh
     /tmp/ccGRrKPJ.s:777    .text:00000000000002c4 _ZN10translator11generateVarEhhPKhPh
     /tmp/ccGRrKPJ.s:878    .text:0000000000000327 _GLOBAL__sub_I__ZN10translator11genCheckSumEPKh

UNDEFINED SYMBOLS
_GLOBAL_OFFSET_TABLE_
_ZNSt8ios_base4InitC1Ev
__dso_handle
_ZNSt8ios_base4InitD1Ev
__cxa_atexit
