GAS LISTING /tmp/ccHe8zMG.s 			page 1


   1              		.file	"translator.cpp"
   2              		.text
   3              	.Ltext0:
   5              	_Z41__static_initialization_and_destruction_0ii:
   6              	.LVL0:
   7              	.LFB1825:
   8              		.file 1 "Src/translator.cpp"
   1:Src/translator.cpp **** #include "translator.hpp"
   2:Src/translator.cpp **** 
   3:Src/translator.cpp **** namespace translator
   4:Src/translator.cpp **** {
   5:Src/translator.cpp **** 
   6:Src/translator.cpp ****     using namespace std;
   7:Src/translator.cpp **** 
   8:Src/translator.cpp ****     //generate checksum for char array
   9:Src/translator.cpp ****     checksum_t genCheckSum(const uint8_t* c)
  10:Src/translator.cpp ****     {
  11:Src/translator.cpp ****         checksum_t ret = 0;
  12:Src/translator.cpp ****         uint8_t len = c[0] & LEN_MASK;
  13:Src/translator.cpp ****         // cout << "len: " << (int)len << endl;
  14:Src/translator.cpp ****         // for(int i = 0; i < len + 3; i++)
  15:Src/translator.cpp ****         // {
  16:Src/translator.cpp ****         //     cout << (int)c[i];
  17:Src/translator.cpp ****         // }
  18:Src/translator.cpp ****         // cout << endl;
  19:Src/translator.cpp ****         for(uint8_t i = 0; i < len; i++)
  20:Src/translator.cpp ****         {
  21:Src/translator.cpp ****             ret |= (c[3 + i]) << (8 * ((i % 2) == 1));
  22:Src/translator.cpp ****             // cout << "\nAdding: " << (int)c[3 + i] << endl;
  23:Src/translator.cpp ****         }
  24:Src/translator.cpp ****         return ret;
  25:Src/translator.cpp ****     }
  26:Src/translator.cpp **** 
  27:Src/translator.cpp ****     //get type of package
  28:Src/translator.cpp ****     uint8_t getType(uint8_t *package)
  29:Src/translator.cpp ****     {
  30:Src/translator.cpp ****         return ((package[0] & (~LEN_MASK)) >> 6);
  31:Src/translator.cpp ****     }
  32:Src/translator.cpp **** 
  33:Src/translator.cpp **** 
  34:Src/translator.cpp ****     //parse input package, get payload, return type of package
  35:Src/translator.cpp ****     uint8_t parsePacket(uint8_t *package, uint8_t *payloadto)
  36:Src/translator.cpp ****     {
  37:Src/translator.cpp ****         uint8_t type = package[0] & (~LEN_MASK);
  38:Src/translator.cpp ****         if(type != TYPE_ARR && type != TYPE_CMD && type != TYPE_VAR)
  39:Src/translator.cpp ****             return TYPE_BAD_TYPE;
  40:Src/translator.cpp **** 
  41:Src/translator.cpp ****         uint8_t len = package[0] & LEN_MASK;
  42:Src/translator.cpp ****         if(len == 0)
  43:Src/translator.cpp ****             return TYPE_BAD_LEN;
  44:Src/translator.cpp **** 
  45:Src/translator.cpp ****         checksum_t checksum = (package[1] << 8) | package[2];
  46:Src/translator.cpp ****         if(genCheckSum(package) != checksum)
  47:Src/translator.cpp ****             return TYPE_BAD_CHECKSUM;
  48:Src/translator.cpp **** 
  49:Src/translator.cpp ****         package += 3;
  50:Src/translator.cpp ****         while(len > 0)
GAS LISTING /tmp/ccHe8zMG.s 			page 2


  51:Src/translator.cpp ****         {
  52:Src/translator.cpp ****             *payloadto = *package;
  53:Src/translator.cpp ****             payloadto++;
  54:Src/translator.cpp ****             package++;
  55:Src/translator.cpp ****         }
  56:Src/translator.cpp ****         *payloadto = *package;
  57:Src/translator.cpp ****         return type;
  58:Src/translator.cpp ****     }
  59:Src/translator.cpp **** 
  60:Src/translator.cpp **** 
  61:Src/translator.cpp ****     //parse cmd from string |cmd| and call it from funcArr
  62:Src/translator.cpp ****     void parseCmd(uint8_t *from, char** names, void (*funcArr [])())
  63:Src/translator.cpp ****     {
  64:Src/translator.cpp **** 
  65:Src/translator.cpp ****     }
  66:Src/translator.cpp **** 
  67:Src/translator.cpp **** 
  68:Src/translator.cpp ****     //get payload from package to addr
  69:Src/translator.cpp ****     void getPayload(const uint8_t *package, uint8_t *to)
  70:Src/translator.cpp ****     {
  71:Src/translator.cpp ****         uint8_t len = package[0] & LEN_MASK;
  72:Src/translator.cpp ****         for(uint8_t i = 0; i < len; i++)
  73:Src/translator.cpp ****         {
  74:Src/translator.cpp ****             to[i] = package[i + 3];
  75:Src/translator.cpp ****         }
  76:Src/translator.cpp ****     }
  77:Src/translator.cpp **** 
  78:Src/translator.cpp **** 
  79:Src/translator.cpp ****     bool equals(const uint8_t* p1, const uint8_t* p2)
  80:Src/translator.cpp ****     {
  81:Src/translator.cpp ****         if(p1[0] != p2[0])
  82:Src/translator.cpp ****             return false;
  83:Src/translator.cpp **** 
  84:Src/translator.cpp ****         uint8_t len = p1[0] & LEN_MASK;
  85:Src/translator.cpp ****         for(uint8_t i = 0; i < len; i++)
  86:Src/translator.cpp ****         {
  87:Src/translator.cpp ****             if(p1[i] != p2[i])
  88:Src/translator.cpp ****                 return false;
  89:Src/translator.cpp ****         }
  90:Src/translator.cpp ****         return true;
  91:Src/translator.cpp ****     }
  92:Src/translator.cpp **** }
   9              		.loc 1 92 1 view -0
  10              		.cfi_startproc
  11              		.loc 1 92 1 is_stmt 0 view .LVU1
  12 0000 83FF01   		cmpl	$1, %edi
  13 0003 7401     		je	.L7
  14              	.L4:
  15 0005 C3       		ret
  16              	.L7:
  17              		.loc 1 92 1 discriminator 1 view .LVU2
  18 0006 81FEFFFF 		cmpl	$65535, %esi
  18      0000
  19 000c 75F7     		jne	.L4
  20              		.loc 1 92 1 view .LVU3
  21 000e 4883EC08 		subq	$8, %rsp
  22              		.cfi_def_cfa_offset 16
GAS LISTING /tmp/ccHe8zMG.s 			page 3


  23              		.file 2 "/usr/include/c++/9.1.0/iostream"
   1:/usr/include/c++/9.1.0/iostream **** // Standard iostream objects -*- C++ -*-
   2:/usr/include/c++/9.1.0/iostream **** 
   3:/usr/include/c++/9.1.0/iostream **** // Copyright (C) 1997-2019 Free Software Foundation, Inc.
   4:/usr/include/c++/9.1.0/iostream **** //
   5:/usr/include/c++/9.1.0/iostream **** // This file is part of the GNU ISO C++ Library.  This library is free
   6:/usr/include/c++/9.1.0/iostream **** // software; you can redistribute it and/or modify it under the
   7:/usr/include/c++/9.1.0/iostream **** // terms of the GNU General Public License as published by the
   8:/usr/include/c++/9.1.0/iostream **** // Free Software Foundation; either version 3, or (at your option)
   9:/usr/include/c++/9.1.0/iostream **** // any later version.
  10:/usr/include/c++/9.1.0/iostream **** 
  11:/usr/include/c++/9.1.0/iostream **** // This library is distributed in the hope that it will be useful,
  12:/usr/include/c++/9.1.0/iostream **** // but WITHOUT ANY WARRANTY; without even the implied warranty of
  13:/usr/include/c++/9.1.0/iostream **** // MERCHANTABILITY or FITNESS FOR A PARTICULAR PURPOSE.  See the
  14:/usr/include/c++/9.1.0/iostream **** // GNU General Public License for more details.
  15:/usr/include/c++/9.1.0/iostream **** 
  16:/usr/include/c++/9.1.0/iostream **** // Under Section 7 of GPL version 3, you are granted additional
  17:/usr/include/c++/9.1.0/iostream **** // permissions described in the GCC Runtime Library Exception, version
  18:/usr/include/c++/9.1.0/iostream **** // 3.1, as published by the Free Software Foundation.
  19:/usr/include/c++/9.1.0/iostream **** 
  20:/usr/include/c++/9.1.0/iostream **** // You should have received a copy of the GNU General Public License and
  21:/usr/include/c++/9.1.0/iostream **** // a copy of the GCC Runtime Library Exception along with this program;
  22:/usr/include/c++/9.1.0/iostream **** // see the files COPYING3 and COPYING.RUNTIME respectively.  If not, see
  23:/usr/include/c++/9.1.0/iostream **** // <http://www.gnu.org/licenses/>.
  24:/usr/include/c++/9.1.0/iostream **** 
  25:/usr/include/c++/9.1.0/iostream **** /** @file include/iostream
  26:/usr/include/c++/9.1.0/iostream ****  *  This is a Standard C++ Library header.
  27:/usr/include/c++/9.1.0/iostream ****  */
  28:/usr/include/c++/9.1.0/iostream **** 
  29:/usr/include/c++/9.1.0/iostream **** //
  30:/usr/include/c++/9.1.0/iostream **** // ISO C++ 14882: 27.3  Standard iostream objects
  31:/usr/include/c++/9.1.0/iostream **** //
  32:/usr/include/c++/9.1.0/iostream **** 
  33:/usr/include/c++/9.1.0/iostream **** #ifndef _GLIBCXX_IOSTREAM
  34:/usr/include/c++/9.1.0/iostream **** #define _GLIBCXX_IOSTREAM 1
  35:/usr/include/c++/9.1.0/iostream **** 
  36:/usr/include/c++/9.1.0/iostream **** #pragma GCC system_header
  37:/usr/include/c++/9.1.0/iostream **** 
  38:/usr/include/c++/9.1.0/iostream **** #include <bits/c++config.h>
  39:/usr/include/c++/9.1.0/iostream **** #include <ostream>
  40:/usr/include/c++/9.1.0/iostream **** #include <istream>
  41:/usr/include/c++/9.1.0/iostream **** 
  42:/usr/include/c++/9.1.0/iostream **** namespace std _GLIBCXX_VISIBILITY(default)
  43:/usr/include/c++/9.1.0/iostream **** {
  44:/usr/include/c++/9.1.0/iostream **** _GLIBCXX_BEGIN_NAMESPACE_VERSION
  45:/usr/include/c++/9.1.0/iostream **** 
  46:/usr/include/c++/9.1.0/iostream ****   /**
  47:/usr/include/c++/9.1.0/iostream ****    *  @name Standard Stream Objects
  48:/usr/include/c++/9.1.0/iostream ****    *
  49:/usr/include/c++/9.1.0/iostream ****    *  The &lt;iostream&gt; header declares the eight <em>standard stream
  50:/usr/include/c++/9.1.0/iostream ****    *  objects</em>.  For other declarations, see
  51:/usr/include/c++/9.1.0/iostream ****    *  http://gcc.gnu.org/onlinedocs/libstdc++/manual/io.html
  52:/usr/include/c++/9.1.0/iostream ****    *  and the @link iosfwd I/O forward declarations @endlink
  53:/usr/include/c++/9.1.0/iostream ****    *
  54:/usr/include/c++/9.1.0/iostream ****    *  They are required by default to cooperate with the global C
  55:/usr/include/c++/9.1.0/iostream ****    *  library's @c FILE streams, and to be available during program
  56:/usr/include/c++/9.1.0/iostream ****    *  startup and termination. For more information, see the section of the
GAS LISTING /tmp/ccHe8zMG.s 			page 4


  57:/usr/include/c++/9.1.0/iostream ****    *  manual linked to above.
  58:/usr/include/c++/9.1.0/iostream ****   */
  59:/usr/include/c++/9.1.0/iostream ****   //@{
  60:/usr/include/c++/9.1.0/iostream ****   extern istream cin;		/// Linked to standard input
  61:/usr/include/c++/9.1.0/iostream ****   extern ostream cout;		/// Linked to standard output
  62:/usr/include/c++/9.1.0/iostream ****   extern ostream cerr;		/// Linked to standard error (unbuffered)
  63:/usr/include/c++/9.1.0/iostream ****   extern ostream clog;		/// Linked to standard error (buffered)
  64:/usr/include/c++/9.1.0/iostream **** 
  65:/usr/include/c++/9.1.0/iostream **** #ifdef _GLIBCXX_USE_WCHAR_T
  66:/usr/include/c++/9.1.0/iostream ****   extern wistream wcin;		/// Linked to standard input
  67:/usr/include/c++/9.1.0/iostream ****   extern wostream wcout;	/// Linked to standard output
  68:/usr/include/c++/9.1.0/iostream ****   extern wostream wcerr;	/// Linked to standard error (unbuffered)
  69:/usr/include/c++/9.1.0/iostream ****   extern wostream wclog;	/// Linked to standard error (buffered)
  70:/usr/include/c++/9.1.0/iostream **** #endif
  71:/usr/include/c++/9.1.0/iostream ****   //@}
  72:/usr/include/c++/9.1.0/iostream **** 
  73:/usr/include/c++/9.1.0/iostream ****   // For construction of filebuffers for cout, cin, cerr, clog et. al.
  74:/usr/include/c++/9.1.0/iostream ****   static ios_base::Init __ioinit;
  24              		.loc 2 74 25 view .LVU4
  25 0012 488D3D00 		leaq	_ZStL8__ioinit(%rip), %rdi
  25      000000
  26              	.LVL1:
  27              		.loc 2 74 25 view .LVU5
  28 0019 E8000000 		call	_ZNSt8ios_base4InitC1Ev@PLT
  28      00
  29              	.LVL2:
  30              		.loc 2 74 25 view .LVU6
  31 001e 488D1500 		leaq	__dso_handle(%rip), %rdx
  31      000000
  32 0025 488D3500 		leaq	_ZStL8__ioinit(%rip), %rsi
  32      000000
  33 002c 488B3D00 		movq	_ZNSt8ios_base4InitD1Ev@GOTPCREL(%rip), %rdi
  33      000000
  34 0033 E8000000 		call	__cxa_atexit@PLT
  34      00
  35              	.LVL3:
  36              		.loc 1 92 1 view .LVU7
  37 0038 4883C408 		addq	$8, %rsp
  38              		.cfi_def_cfa_offset 8
  39 003c C3       		ret
  40              		.cfi_endproc
  41              	.LFE1825:
  43              		.globl	_ZN10translator11genCheckSumEPKh
  45              	_ZN10translator11genCheckSumEPKh:
  46              	.LVL4:
  47              	.LFB1503:
  10:Src/translator.cpp ****         checksum_t ret = 0;
  48              		.loc 1 10 5 is_stmt 1 view -0
  49              		.cfi_startproc
  11:Src/translator.cpp ****         uint8_t len = c[0] & LEN_MASK;
  50              		.loc 1 11 9 view .LVU9
  12:Src/translator.cpp ****         // cout << "len: " << (int)len << endl;
  51              		.loc 1 12 9 view .LVU10
  12:Src/translator.cpp ****         // cout << "len: " << (int)len << endl;
  52              		.loc 1 12 17 is_stmt 0 view .LVU11
  53 003d 440FB607 		movzbl	(%rdi), %r8d
  54 0041 4183E03F 		andl	$63, %r8d
GAS LISTING /tmp/ccHe8zMG.s 			page 5


  55              	.LVL5:
  19:Src/translator.cpp ****         {
  56              		.loc 1 19 9 is_stmt 1 view .LVU12
  57              	.LBB2:
  19:Src/translator.cpp ****         {
  58              		.loc 1 19 21 is_stmt 0 view .LVU13
  59 0045 B8000000 		movl	$0, %eax
  59      00
  60              	.LBE2:
  11:Src/translator.cpp ****         uint8_t len = c[0] & LEN_MASK;
  61              		.loc 1 11 20 view .LVU14
  62 004a BE000000 		movl	$0, %esi
  62      00
  63              	.LVL6:
  64              	.L10:
  65              	.LBB3:
  19:Src/translator.cpp ****         {
  66              		.loc 1 19 30 discriminator 3 view .LVU15
  67 004f 4438C0   		cmpb	%r8b, %al
  68 0052 731C     		jnb	.L8
  21:Src/translator.cpp ****             // cout << "\nAdding: " << (int)c[3 + i] << endl;
  69              		.loc 1 21 13 is_stmt 1 discriminator 2 view .LVU16
  21:Src/translator.cpp ****             // cout << "\nAdding: " << (int)c[3 + i] << endl;
  70              		.loc 1 21 27 is_stmt 0 discriminator 2 view .LVU17
  71 0054 0FB6C8   		movzbl	%al, %ecx
  21:Src/translator.cpp ****             // cout << "\nAdding: " << (int)c[3 + i] << endl;
  72              		.loc 1 21 25 discriminator 2 view .LVU18
  73 0057 8D5103   		leal	3(%rcx), %edx
  74 005a 4863D2   		movslq	%edx, %rdx
  21:Src/translator.cpp ****             // cout << "\nAdding: " << (int)c[3 + i] << endl;
  75              		.loc 1 21 28 discriminator 2 view .LVU19
  76 005d 0FB61417 		movzbl	(%rdi,%rdx), %edx
  21:Src/translator.cpp ****             // cout << "\nAdding: " << (int)c[3 + i] << endl;
  77              		.loc 1 21 37 discriminator 2 view .LVU20
  78 0061 C1E103   		sall	$3, %ecx
  79 0064 83E108   		andl	$8, %ecx
  21:Src/translator.cpp ****             // cout << "\nAdding: " << (int)c[3 + i] << endl;
  80              		.loc 1 21 31 discriminator 2 view .LVU21
  81 0067 D3E2     		sall	%cl, %edx
  21:Src/translator.cpp ****             // cout << "\nAdding: " << (int)c[3 + i] << endl;
  82              		.loc 1 21 17 discriminator 2 view .LVU22
  83 0069 09D6     		orl	%edx, %esi
  84              	.LVL7:
  19:Src/translator.cpp ****         {
  85              		.loc 1 19 9 discriminator 2 view .LVU23
  86 006b 83C001   		addl	$1, %eax
  87              	.LVL8:
  19:Src/translator.cpp ****         {
  88              		.loc 1 19 9 discriminator 2 view .LVU24
  89 006e EBDF     		jmp	.L10
  90              	.LVL9:
  91              	.L8:
  19:Src/translator.cpp ****         {
  92              		.loc 1 19 9 discriminator 2 view .LVU25
  93              	.LBE3:
  25:Src/translator.cpp **** 
  94              		.loc 1 25 5 view .LVU26
GAS LISTING /tmp/ccHe8zMG.s 			page 6


  95 0070 89F0     		movl	%esi, %eax
  96              	.LVL10:
  25:Src/translator.cpp **** 
  97              		.loc 1 25 5 view .LVU27
  98 0072 C3       		ret
  99              		.cfi_endproc
 100              	.LFE1503:
 102              		.globl	_ZN10translator7getTypeEPh
 104              	_ZN10translator7getTypeEPh:
 105              	.LVL11:
 106              	.LFB1504:
  29:Src/translator.cpp ****         return ((package[0] & (~LEN_MASK)) >> 6);
 107              		.loc 1 29 5 is_stmt 1 view -0
 108              		.cfi_startproc
  30:Src/translator.cpp ****     }
 109              		.loc 1 30 9 view .LVU29
  30:Src/translator.cpp ****     }
 110              		.loc 1 30 27 is_stmt 0 view .LVU30
 111 0073 0FB607   		movzbl	(%rdi), %eax
  30:Src/translator.cpp ****     }
 112              		.loc 1 30 44 view .LVU31
 113 0076 C1F806   		sarl	$6, %eax
  31:Src/translator.cpp **** 
 114              		.loc 1 31 5 view .LVU32
 115 0079 C3       		ret
 116              		.cfi_endproc
 117              	.LFE1504:
 119              		.globl	_ZN10translator11parsePacketEPhS0_
 121              	_ZN10translator11parsePacketEPhS0_:
 122              	.LVL12:
 123              	.LFB1505:
  36:Src/translator.cpp ****         uint8_t type = package[0] & (~LEN_MASK);
 124              		.loc 1 36 5 is_stmt 1 view -0
 125              		.cfi_startproc
  36:Src/translator.cpp ****         uint8_t type = package[0] & (~LEN_MASK);
 126              		.loc 1 36 5 is_stmt 0 view .LVU34
 127 007a 4154     		pushq	%r12
 128              		.cfi_def_cfa_offset 16
 129              		.cfi_offset 12, -16
 130 007c 55       		pushq	%rbp
 131              		.cfi_def_cfa_offset 24
 132              		.cfi_offset 6, -24
 133 007d 53       		pushq	%rbx
 134              		.cfi_def_cfa_offset 32
 135              		.cfi_offset 3, -32
 136 007e 4889FB   		movq	%rdi, %rbx
 137 0081 4889F5   		movq	%rsi, %rbp
  37:Src/translator.cpp ****         if(type != TYPE_ARR && type != TYPE_CMD && type != TYPE_VAR)
 138              		.loc 1 37 9 is_stmt 1 view .LVU35
  37:Src/translator.cpp ****         if(type != TYPE_ARR && type != TYPE_CMD && type != TYPE_VAR)
 139              		.loc 1 37 33 is_stmt 0 view .LVU36
 140 0084 0FB617   		movzbl	(%rdi), %edx
  37:Src/translator.cpp ****         if(type != TYPE_ARR && type != TYPE_CMD && type != TYPE_VAR)
 141              		.loc 1 37 17 view .LVU37
 142 0087 89D0     		movl	%edx, %eax
 143 0089 83E0C0   		andl	$-64, %eax
 144              	.LVL13:
GAS LISTING /tmp/ccHe8zMG.s 			page 7


  38:Src/translator.cpp ****             return TYPE_BAD_TYPE;
 145              		.loc 1 38 9 is_stmt 1 view .LVU38
  38:Src/translator.cpp ****             return TYPE_BAD_TYPE;
 146              		.loc 1 38 17 is_stmt 0 view .LVU39
 147 008c 3C03     		cmpb	$3, %al
 148 008e 400F95C6 		setne	%sil
 149              	.LVL14:
  38:Src/translator.cpp ****             return TYPE_BAD_TYPE;
 150              		.loc 1 38 37 view .LVU40
 151 0092 3C01     		cmpb	$1, %al
 152 0094 0F95C1   		setne	%cl
  38:Src/translator.cpp ****             return TYPE_BAD_TYPE;
 153              		.loc 1 38 9 view .LVU41
 154 0097 4084CE   		testb	%cl, %sil
 155 009a 7404     		je	.L13
  38:Src/translator.cpp ****             return TYPE_BAD_TYPE;
 156              		.loc 1 38 49 discriminator 1 view .LVU42
 157 009c 3C02     		cmpb	$2, %al
 158 009e 7537     		jne	.L16
 159              	.L13:
  41:Src/translator.cpp ****         if(len == 0)
 160              		.loc 1 41 9 is_stmt 1 view .LVU43
 161              	.LVL15:
  42:Src/translator.cpp ****             return TYPE_BAD_LEN;
 162              		.loc 1 42 9 view .LVU44
 163 00a0 F6C23F   		testb	$63, %dl
 164 00a3 7439     		je	.L17
  45:Src/translator.cpp ****         if(genCheckSum(package) != checksum)
 165              		.loc 1 45 9 view .LVU45
  45:Src/translator.cpp ****         if(genCheckSum(package) != checksum)
 166              		.loc 1 45 41 is_stmt 0 view .LVU46
 167 00a5 0FB65301 		movzbl	1(%rbx), %edx
 168              	.LVL16:
  45:Src/translator.cpp ****         if(genCheckSum(package) != checksum)
 169              		.loc 1 45 43 view .LVU47
 170 00a9 C1E208   		sall	$8, %edx
  45:Src/translator.cpp ****         if(genCheckSum(package) != checksum)
 171              		.loc 1 45 60 view .LVU48
 172 00ac 0FB64302 		movzbl	2(%rbx), %eax
 173              	.LVL17:
  45:Src/translator.cpp ****         if(genCheckSum(package) != checksum)
 174              		.loc 1 45 49 view .LVU49
 175 00b0 09D0     		orl	%edx, %eax
 176 00b2 4189C4   		movl	%eax, %r12d
 177              	.LVL18:
  46:Src/translator.cpp ****             return TYPE_BAD_CHECKSUM;
 178              		.loc 1 46 9 is_stmt 1 view .LVU50
  46:Src/translator.cpp ****             return TYPE_BAD_CHECKSUM;
 179              		.loc 1 46 23 is_stmt 0 view .LVU51
 180 00b5 4889DF   		movq	%rbx, %rdi
 181              	.LVL19:
  46:Src/translator.cpp ****             return TYPE_BAD_CHECKSUM;
 182              		.loc 1 46 23 view .LVU52
 183 00b8 E8000000 		call	_ZN10translator11genCheckSumEPKh
 183      00
 184              	.LVL20:
  46:Src/translator.cpp ****             return TYPE_BAD_CHECKSUM;
GAS LISTING /tmp/ccHe8zMG.s 			page 8


 185              		.loc 1 46 9 view .LVU53
 186 00bd 664439E0 		cmpw	%r12w, %ax
 187 00c1 7525     		jne	.L18
  49:Src/translator.cpp ****         while(len > 0)
 188              		.loc 1 49 9 is_stmt 1 view .LVU54
  49:Src/translator.cpp ****         while(len > 0)
 189              		.loc 1 49 17 is_stmt 0 view .LVU55
 190 00c3 488D4303 		leaq	3(%rbx), %rax
 191              	.LVL21:
 192              	.L15:
  50:Src/translator.cpp ****         {
 193              		.loc 1 50 9 is_stmt 1 view .LVU56
  52:Src/translator.cpp ****             payloadto++;
 194              		.loc 1 52 13 view .LVU57
  52:Src/translator.cpp ****             payloadto++;
 195              		.loc 1 52 26 is_stmt 0 view .LVU58
 196 00c7 0FB610   		movzbl	(%rax), %edx
  52:Src/translator.cpp ****             payloadto++;
 197              		.loc 1 52 24 view .LVU59
 198 00ca 885500   		movb	%dl, 0(%rbp)
  53:Src/translator.cpp ****             package++;
 199              		.loc 1 53 13 is_stmt 1 view .LVU60
  53:Src/translator.cpp ****             package++;
 200              		.loc 1 53 22 is_stmt 0 view .LVU61
 201 00cd 4883C501 		addq	$1, %rbp
 202              	.LVL22:
  54:Src/translator.cpp ****         }
 203              		.loc 1 54 13 is_stmt 1 view .LVU62
  54:Src/translator.cpp ****         }
 204              		.loc 1 54 20 is_stmt 0 view .LVU63
 205 00d1 4883C001 		addq	$1, %rax
 206              	.LVL23:
  54:Src/translator.cpp ****         }
 207              		.loc 1 54 20 view .LVU64
 208 00d5 EBF0     		jmp	.L15
 209              	.LVL24:
 210              	.L16:
  39:Src/translator.cpp **** 
 211              		.loc 1 39 20 view .LVU65
 212 00d7 B8650000 		movl	$101, %eax
 212      00
 213              	.LVL25:
  39:Src/translator.cpp **** 
 214              		.loc 1 39 20 view .LVU66
 215 00dc EB05     		jmp	.L12
 216              	.LVL26:
 217              	.L17:
  43:Src/translator.cpp **** 
 218              		.loc 1 43 20 view .LVU67
 219 00de B8640000 		movl	$100, %eax
 219      00
 220              	.LVL27:
 221              	.L12:
  58:Src/translator.cpp **** 
 222              		.loc 1 58 5 view .LVU68
 223 00e3 5B       		popq	%rbx
 224              		.cfi_remember_state
GAS LISTING /tmp/ccHe8zMG.s 			page 9


 225              		.cfi_def_cfa_offset 24
 226              	.LVL28:
  58:Src/translator.cpp **** 
 227              		.loc 1 58 5 view .LVU69
 228 00e4 5D       		popq	%rbp
 229              		.cfi_def_cfa_offset 16
 230              	.LVL29:
  58:Src/translator.cpp **** 
 231              		.loc 1 58 5 view .LVU70
 232 00e5 415C     		popq	%r12
 233              		.cfi_def_cfa_offset 8
 234 00e7 C3       		ret
 235              	.LVL30:
 236              	.L18:
 237              		.cfi_restore_state
  47:Src/translator.cpp **** 
 238              		.loc 1 47 20 view .LVU71
 239 00e8 B8660000 		movl	$102, %eax
 239      00
 240 00ed EBF4     		jmp	.L12
 241              		.cfi_endproc
 242              	.LFE1505:
 244              		.globl	_ZN10translator8parseCmdEPhPPcPPFvvE
 246              	_ZN10translator8parseCmdEPhPPcPPFvvE:
 247              	.LVL31:
 248              	.LFB1506:
  63:Src/translator.cpp **** 
 249              		.loc 1 63 5 is_stmt 1 view -0
 250              		.cfi_startproc
  65:Src/translator.cpp **** 
 251              		.loc 1 65 5 is_stmt 0 view .LVU73
 252 00ef C3       		ret
 253              		.cfi_endproc
 254              	.LFE1506:
 256              		.globl	_ZN10translator10getPayloadEPKhPh
 258              	_ZN10translator10getPayloadEPKhPh:
 259              	.LVL32:
 260              	.LFB1507:
  70:Src/translator.cpp ****         uint8_t len = package[0] & LEN_MASK;
 261              		.loc 1 70 5 is_stmt 1 view -0
 262              		.cfi_startproc
  71:Src/translator.cpp ****         for(uint8_t i = 0; i < len; i++)
 263              		.loc 1 71 9 view .LVU75
  71:Src/translator.cpp ****         for(uint8_t i = 0; i < len; i++)
 264              		.loc 1 71 17 is_stmt 0 view .LVU76
 265 00f0 440FB607 		movzbl	(%rdi), %r8d
 266 00f4 4183E03F 		andl	$63, %r8d
 267              	.LVL33:
  72:Src/translator.cpp ****         {
 268              		.loc 1 72 9 is_stmt 1 view .LVU77
 269              	.LBB4:
  72:Src/translator.cpp ****         {
 270              		.loc 1 72 21 is_stmt 0 view .LVU78
 271 00f8 B8000000 		movl	$0, %eax
 271      00
 272              	.LVL34:
 273              	.L23:
GAS LISTING /tmp/ccHe8zMG.s 			page 10


  72:Src/translator.cpp ****         {
 274              		.loc 1 72 30 discriminator 3 view .LVU79
 275 00fd 4438C0   		cmpb	%r8b, %al
 276 0100 7310     		jnb	.L21
  74:Src/translator.cpp ****         }
 277              		.loc 1 74 13 is_stmt 1 discriminator 2 view .LVU80
  74:Src/translator.cpp ****         }
 278              		.loc 1 74 29 is_stmt 0 discriminator 2 view .LVU81
 279 0102 0FB6D0   		movzbl	%al, %edx
  74:Src/translator.cpp ****         }
 280              		.loc 1 74 34 discriminator 2 view .LVU82
 281 0105 0FB64C17 		movzbl	3(%rdi,%rdx), %ecx
 281      03
  74:Src/translator.cpp ****         }
 282              		.loc 1 74 19 discriminator 2 view .LVU83
 283 010a 880C16   		movb	%cl, (%rsi,%rdx)
  72:Src/translator.cpp ****         {
 284              		.loc 1 72 9 discriminator 2 view .LVU84
 285 010d 83C001   		addl	$1, %eax
 286              	.LVL35:
  72:Src/translator.cpp ****         {
 287              		.loc 1 72 9 discriminator 2 view .LVU85
 288 0110 EBEB     		jmp	.L23
 289              	.L21:
  72:Src/translator.cpp ****         {
 290              		.loc 1 72 9 discriminator 2 view .LVU86
 291              	.LBE4:
  76:Src/translator.cpp **** 
 292              		.loc 1 76 5 view .LVU87
 293 0112 C3       		ret
 294              		.cfi_endproc
 295              	.LFE1507:
 297              		.globl	_ZN10translator6equalsEPKhS1_
 299              	_ZN10translator6equalsEPKhS1_:
 300              	.LVL36:
 301              	.LFB1508:
  80:Src/translator.cpp ****         if(p1[0] != p2[0])
 302              		.loc 1 80 5 is_stmt 1 view -0
 303              		.cfi_startproc
  81:Src/translator.cpp ****             return false;
 304              		.loc 1 81 9 view .LVU89
  81:Src/translator.cpp ****             return false;
 305              		.loc 1 81 16 is_stmt 0 view .LVU90
 306 0113 0FB60F   		movzbl	(%rdi), %ecx
  81:Src/translator.cpp ****             return false;
 307              		.loc 1 81 9 view .LVU91
 308 0116 3A0E     		cmpb	(%rsi), %cl
 309 0118 751F     		jne	.L27
  84:Src/translator.cpp ****         for(uint8_t i = 0; i < len; i++)
 310              		.loc 1 84 9 is_stmt 1 view .LVU92
  84:Src/translator.cpp ****         for(uint8_t i = 0; i < len; i++)
 311              		.loc 1 84 17 is_stmt 0 view .LVU93
 312 011a 83E13F   		andl	$63, %ecx
 313              	.LVL37:
  85:Src/translator.cpp ****         {
 314              		.loc 1 85 9 is_stmt 1 view .LVU94
 315              	.LBB5:
GAS LISTING /tmp/ccHe8zMG.s 			page 11


  85:Src/translator.cpp ****         {
 316              		.loc 1 85 21 is_stmt 0 view .LVU95
 317 011d B8000000 		movl	$0, %eax
 317      00
 318              	.LVL38:
 319              	.L26:
  85:Src/translator.cpp ****         {
 320              		.loc 1 85 30 discriminator 1 view .LVU96
 321 0122 38C8     		cmpb	%cl, %al
 322 0124 7319     		jnb	.L28
  87:Src/translator.cpp ****                 return false;
 323              		.loc 1 87 13 is_stmt 1 view .LVU97
  87:Src/translator.cpp ****                 return false;
 324              		.loc 1 87 19 is_stmt 0 view .LVU98
 325 0126 0FB6D0   		movzbl	%al, %edx
  87:Src/translator.cpp ****                 return false;
 326              		.loc 1 87 13 view .LVU99
 327 0129 440FB604 		movzbl	(%rsi,%rdx), %r8d
 327      16
 328 012e 44380417 		cmpb	%r8b, (%rdi,%rdx)
 329 0132 7511     		jne	.L29
  85:Src/translator.cpp ****         {
 330              		.loc 1 85 9 discriminator 2 view .LVU100
 331 0134 83C001   		addl	$1, %eax
 332              	.LVL39:
  85:Src/translator.cpp ****         {
 333              		.loc 1 85 9 discriminator 2 view .LVU101
 334 0137 EBE9     		jmp	.L26
 335              	.LVL40:
 336              	.L27:
  85:Src/translator.cpp ****         {
 337              		.loc 1 85 9 discriminator 2 view .LVU102
 338              	.LBE5:
  82:Src/translator.cpp **** 
 339              		.loc 1 82 20 view .LVU103
 340 0139 B8000000 		movl	$0, %eax
 340      00
 341 013e C3       		ret
 342              	.LVL41:
 343              	.L28:
  90:Src/translator.cpp ****     }
 344              		.loc 1 90 16 view .LVU104
 345 013f B8010000 		movl	$1, %eax
 345      00
 346              	.LVL42:
  90:Src/translator.cpp ****     }
 347              		.loc 1 90 16 view .LVU105
 348 0144 C3       		ret
 349              	.LVL43:
 350              	.L29:
 351              	.LBB6:
  88:Src/translator.cpp ****         }
 352              		.loc 1 88 24 view .LVU106
 353 0145 B8000000 		movl	$0, %eax
 353      00
 354              	.LVL44:
  88:Src/translator.cpp ****         }
GAS LISTING /tmp/ccHe8zMG.s 			page 12


 355              		.loc 1 88 24 view .LVU107
 356              	.LBE6:
  91:Src/translator.cpp **** }
 357              		.loc 1 91 5 view .LVU108
 358 014a C3       		ret
 359              		.cfi_endproc
 360              	.LFE1508:
 363              	_GLOBAL__sub_I__ZN10translator11genCheckSumEPKh:
 364              	.LFB1826:
 365              		.loc 1 92 1 is_stmt 1 view -0
 366              		.cfi_startproc
 367 014b 4883EC08 		subq	$8, %rsp
 368              		.cfi_def_cfa_offset 16
 369              		.loc 1 92 1 is_stmt 0 view .LVU110
 370 014f BEFFFF00 		movl	$65535, %esi
 370      00
 371 0154 BF010000 		movl	$1, %edi
 371      00
 372 0159 E8A2FEFF 		call	_Z41__static_initialization_and_destruction_0ii
 372      FF
 373              	.LVL45:
 374 015e 4883C408 		addq	$8, %rsp
 375              		.cfi_def_cfa_offset 8
 376 0162 C3       		ret
 377              		.cfi_endproc
 378              	.LFE1826:
 380              		.section	.init_array,"aw"
 381              		.align 8
 382 0000 00000000 		.quad	_GLOBAL__sub_I__ZN10translator11genCheckSumEPKh
 382      00000000 
 383              		.local	_ZStL8__ioinit
 384              		.comm	_ZStL8__ioinit,1,1
 385              		.text
 386              	.Letext0:
 387              		.file 3 "/usr/include/c++/9.1.0/cwchar"
 388              		.file 4 "/usr/include/c++/9.1.0/new"
 389              		.file 5 "/usr/include/c++/9.1.0/bits/exception_ptr.h"
 390              		.file 6 "/usr/include/c++/9.1.0/type_traits"
 391              		.file 7 "/usr/include/c++/9.1.0/x86_64-pc-linux-gnu/bits/c++config.h"
 392              		.file 8 "/usr/include/c++/9.1.0/bits/stl_pair.h"
 393              		.file 9 "/usr/include/c++/9.1.0/debug/debug.h"
 394              		.file 10 "/usr/include/c++/9.1.0/bits/char_traits.h"
 395              		.file 11 "/usr/include/c++/9.1.0/cstdint"
 396              		.file 12 "/usr/include/c++/9.1.0/clocale"
 397              		.file 13 "/usr/include/c++/9.1.0/cstdlib"
 398              		.file 14 "/usr/include/c++/9.1.0/cstdio"
 399              		.file 15 "/usr/include/c++/9.1.0/system_error"
 400              		.file 16 "/usr/include/c++/9.1.0/bits/ios_base.h"
 401              		.file 17 "/usr/include/c++/9.1.0/cwctype"
 402              		.file 18 "/usr/include/c++/9.1.0/iosfwd"
 403              		.file 19 "/usr/include/c++/9.1.0/bits/predefined_ops.h"
 404              		.file 20 "/usr/include/c++/9.1.0/ext/new_allocator.h"
 405              		.file 21 "/usr/include/c++/9.1.0/ext/numeric_traits.h"
 406              		.file 22 "/usr/lib/gcc/x86_64-pc-linux-gnu/9.1.0/include/stddef.h"
 407              		.file 23 "<built-in>"
 408              		.file 24 "/usr/include/bits/types/wint_t.h"
 409              		.file 25 "/usr/include/bits/types/__mbstate_t.h"
GAS LISTING /tmp/ccHe8zMG.s 			page 13


 410              		.file 26 "/usr/include/bits/types/mbstate_t.h"
 411              		.file 27 "/usr/include/bits/types/__FILE.h"
 412              		.file 28 "/usr/include/bits/types/struct_FILE.h"
 413              		.file 29 "/usr/include/bits/types/FILE.h"
 414              		.file 30 "/usr/include/wchar.h"
 415              		.file 31 "/usr/include/bits/types/struct_tm.h"
 416              		.file 32 "/usr/include/bits/types.h"
 417              		.file 33 "/usr/include/bits/stdint-intn.h"
 418              		.file 34 "/usr/include/bits/stdint-uintn.h"
 419              		.file 35 "/usr/include/stdint.h"
 420              		.file 36 "/usr/include/locale.h"
 421              		.file 37 "/usr/include/time.h"
 422              		.file 38 "/usr/include/c++/9.1.0/x86_64-pc-linux-gnu/bits/atomic_word.h"
 423              		.file 39 "/usr/include/stdlib.h"
 424              		.file 40 "/usr/include/bits/stdlib-float.h"
 425              		.file 41 "/usr/include/bits/stdlib-bsearch.h"
 426              		.file 42 "/usr/include/bits/types/__fpos_t.h"
 427              		.file 43 "/usr/include/stdio.h"
 428              		.file 44 "/usr/include/bits/sys_errlist.h"
 429              		.file 45 "/usr/include/bits/stdio.h"
 430              		.file 46 "/usr/include/errno.h"
 431              		.file 47 "/usr/include/bits/wctype-wchar.h"
 432              		.file 48 "/usr/include/wctype.h"
 433              		.file 49 "Inc/translator.hpp"
GAS LISTING /tmp/ccHe8zMG.s 			page 14


DEFINED SYMBOLS
                            *ABS*:0000000000000000 translator.cpp
     /tmp/ccHe8zMG.s:5      .text:0000000000000000 _Z41__static_initialization_and_destruction_0ii
                             .bss:0000000000000000 _ZStL8__ioinit
     /tmp/ccHe8zMG.s:45     .text:000000000000003d _ZN10translator11genCheckSumEPKh
     /tmp/ccHe8zMG.s:104    .text:0000000000000073 _ZN10translator7getTypeEPh
     /tmp/ccHe8zMG.s:121    .text:000000000000007a _ZN10translator11parsePacketEPhS0_
     /tmp/ccHe8zMG.s:246    .text:00000000000000ef _ZN10translator8parseCmdEPhPPcPPFvvE
     /tmp/ccHe8zMG.s:258    .text:00000000000000f0 _ZN10translator10getPayloadEPKhPh
     /tmp/ccHe8zMG.s:299    .text:0000000000000113 _ZN10translator6equalsEPKhS1_
     /tmp/ccHe8zMG.s:363    .text:000000000000014b _GLOBAL__sub_I__ZN10translator11genCheckSumEPKh

UNDEFINED SYMBOLS
_GLOBAL_OFFSET_TABLE_
_ZNSt8ios_base4InitC1Ev
__dso_handle
_ZNSt8ios_base4InitD1Ev
__cxa_atexit
