GAS LISTING /tmp/ccKCczpn.s 			page 1


   1              		.file	"translator.cpp"
   2              		.text
   3              	.Ltext0:
   5              	_Z41__static_initialization_and_destruction_0ii:
   6              	.LVL0:
   7              	.LFB1839:
   8              		.file 1 "Src/translator.cpp"
   1:Src/translator.cpp **** #include "translator.hpp"
   2:Src/translator.cpp **** 
   3:Src/translator.cpp **** namespace translator
   4:Src/translator.cpp **** {
   5:Src/translator.cpp ****     #ifdef USE_MULTIDEVICE
   6:Src/translator.cpp ****         #pragma message "Using multidevice version"
   7:Src/translator.cpp ****         const uint8_t SYS_LEN = 4;
   8:Src/translator.cpp ****         
   9:Src/translator.cpp ****         uint8_t getSenderId(uint8_t* p)
  10:Src/translator.cpp ****         {
  11:Src/translator.cpp ****             return p[SYS_LEN];
  12:Src/translator.cpp ****         }
  13:Src/translator.cpp **** 
  14:Src/translator.cpp ****         #ifdef USE_DYNAMIC_ID
  15:Src/translator.cpp ****             uint8_t myId = 0;
  16:Src/translator.cpp **** 
  17:Src/translator.cpp ****             void setMyId(uint8_t id)
  18:Src/translator.cpp ****             {
  19:Src/translator.cpp ****                 myId = id;
  20:Src/translator.cpp ****             }
  21:Src/translator.cpp **** 
  22:Src/translator.cpp ****             uint8_t getMyId(void)
  23:Src/translator.cpp ****             {
  24:Src/translator.cpp ****                 return myId;
  25:Src/translator.cpp ****             }
  26:Src/translator.cpp ****         #else
  27:Src/translator.cpp ****             #ifndef DEVICE_ID
  28:Src/translator.cpp ****                 #error "Device id is not set"
  29:Src/translator.cpp ****             #else
  30:Src/translator.cpp ****                 #pragma message "Using static device id"
  31:Src/translator.cpp ****                 const uint8_t myId = DEVICE_ID;
  32:Src/translator.cpp ****             #endif
  33:Src/translator.cpp ****         #endif
  34:Src/translator.cpp ****     #else
  35:Src/translator.cpp ****         #pragma message Using 1-1 device version
  36:Src/translator.cpp ****         const uint8_t SYS_LEN = 3;
  37:Src/translator.cpp ****     #endif
  38:Src/translator.cpp **** 
  39:Src/translator.cpp **** 
  40:Src/translator.cpp **** 
  41:Src/translator.cpp ****     //generate checksum for char array
  42:Src/translator.cpp ****     checksum_t genCheckSum(const uint8_t* c)
  43:Src/translator.cpp ****     {
  44:Src/translator.cpp ****         checksum_t ret = 0;
  45:Src/translator.cpp ****         uint8_t len = getLen(c);
  46:Src/translator.cpp ****         for(uint8_t i = 0; i < len + SYS_LEN; i++)
  47:Src/translator.cpp ****         {
  48:Src/translator.cpp ****             if(i != 1 && i != 2)
  49:Src/translator.cpp ****                 ret += (c[i]) << (8 * ((i % 2) == 1));
  50:Src/translator.cpp ****         }
GAS LISTING /tmp/ccKCczpn.s 			page 2


  51:Src/translator.cpp ****         ret++;
  52:Src/translator.cpp ****         return ret;
  53:Src/translator.cpp ****     }
  54:Src/translator.cpp **** 
  55:Src/translator.cpp ****     //get type of package
  56:Src/translator.cpp ****     uint8_t getType(const uint8_t* package)
  57:Src/translator.cpp ****     {
  58:Src/translator.cpp ****         return ((package[0] & (~LEN_MASK)) >> 6);
  59:Src/translator.cpp ****     }
  60:Src/translator.cpp **** 
  61:Src/translator.cpp **** 
  62:Src/translator.cpp ****     //parse input package, get payload, return type of package
  63:Src/translator.cpp ****     uint8_t parsePacket(uint8_t* package, uint8_t* payloadto)
  64:Src/translator.cpp ****     {
  65:Src/translator.cpp ****         uint8_t type = getType(package);
  66:Src/translator.cpp ****         if(type != TYPE_ARR && type != TYPE_CMD && type != TYPE_VAR)
  67:Src/translator.cpp ****             return TYPE_BAD_TYPE;
  68:Src/translator.cpp ****         uint8_t len = getLen(package);
  69:Src/translator.cpp ****         if(len == 0)
  70:Src/translator.cpp ****             return TYPE_BAD_LEN;
  71:Src/translator.cpp **** 
  72:Src/translator.cpp ****         if(genCheckSum(package) != getCheckSum(package))
  73:Src/translator.cpp ****             return TYPE_BAD_CHECKSUM;
  74:Src/translator.cpp **** 
  75:Src/translator.cpp **** 
  76:Src/translator.cpp ****         for(uint8_t i = 0; i < len; i++)
  77:Src/translator.cpp ****         {
  78:Src/translator.cpp ****             payloadto[i] = package[i + SYS_LEN];
  79:Src/translator.cpp ****         }
  80:Src/translator.cpp ****         return type;
  81:Src/translator.cpp ****     }
  82:Src/translator.cpp **** 
  83:Src/translator.cpp **** 
  84:Src/translator.cpp ****     //parse cmd from package, call funcArr[cmd], return type of package, max num of funcs - 255
  85:Src/translator.cpp ****     uint8_t parseCmd(uint8_t* package, void (*funcArr [])())
  86:Src/translator.cpp ****     {
  87:Src/translator.cpp ****         uint8_t var = getType(package);
  88:Src/translator.cpp ****         if(var != TYPE_CMD)
  89:Src/translator.cpp ****             return TYPE_BAD_TYPE;
  90:Src/translator.cpp **** 
  91:Src/translator.cpp ****         var = getLen(package);
  92:Src/translator.cpp ****         if(var != 1)
  93:Src/translator.cpp ****             return TYPE_BAD_LEN;
  94:Src/translator.cpp **** 
  95:Src/translator.cpp ****         checksum_t check = genCheckSum(package);
  96:Src/translator.cpp ****         if(check != getCheckSum(package))   
  97:Src/translator.cpp ****             return TYPE_BAD_CHECKSUM;
  98:Src/translator.cpp **** 
  99:Src/translator.cpp ****         if(funcArr[package[SYS_LEN]] != NULL)
 100:Src/translator.cpp ****             funcArr[package[SYS_LEN]]();
 101:Src/translator.cpp ****         else
 102:Src/translator.cpp ****             std::cerr << "tgt func is null\n";
 103:Src/translator.cpp ****         return TYPE_CMD;
 104:Src/translator.cpp ****     }
 105:Src/translator.cpp **** 
 106:Src/translator.cpp ****     size_t parseCmd(uint8_t* package)
 107:Src/translator.cpp ****     {
GAS LISTING /tmp/ccKCczpn.s 			page 3


 108:Src/translator.cpp ****         uint8_t var = getType(package);
 109:Src/translator.cpp ****         if(var != TYPE_CMD)
 110:Src/translator.cpp ****             return ~0;
 111:Src/translator.cpp **** 
 112:Src/translator.cpp ****         var = getLen(package);
 113:Src/translator.cpp ****         if(var != 1)
 114:Src/translator.cpp ****             return ~0;
 115:Src/translator.cpp **** 
 116:Src/translator.cpp ****         checksum_t check = genCheckSum(package);
 117:Src/translator.cpp ****         if(check != getCheckSum(package))
 118:Src/translator.cpp ****             return ~0;
 119:Src/translator.cpp ****         return package[SYS_LEN];
 120:Src/translator.cpp ****     }
 121:Src/translator.cpp **** 
 122:Src/translator.cpp **** 
 123:Src/translator.cpp ****     //get len of payload
 124:Src/translator.cpp ****     uint8_t getLen(const uint8_t* package)
 125:Src/translator.cpp ****     {
 126:Src/translator.cpp ****         return package[0] & LEN_MASK;
 127:Src/translator.cpp ****     }
 128:Src/translator.cpp **** 
 129:Src/translator.cpp ****     bool equals(const uint8_t* p1, const uint8_t* p2)
 130:Src/translator.cpp ****     {
 131:Src/translator.cpp ****         if(p1[0] != p2[0])
 132:Src/translator.cpp ****             return false;
 133:Src/translator.cpp **** 
 134:Src/translator.cpp ****         uint8_t len = getLen(p1);
 135:Src/translator.cpp ****         for(uint8_t i = 0; i < len + SYS_LEN; i++)
 136:Src/translator.cpp ****         {
 137:Src/translator.cpp ****             if(p1[i] != p2[i])
 138:Src/translator.cpp ****                 return false;
 139:Src/translator.cpp ****         }
 140:Src/translator.cpp ****         return true;
 141:Src/translator.cpp ****     }
 142:Src/translator.cpp **** 
 143:Src/translator.cpp ****     uint8_t getZeroByte(const uint8_t type, const uint8_t len)
 144:Src/translator.cpp ****     {
 145:Src/translator.cpp ****         return (uint8_t)(((type & 0b11) << 6) | (len & LEN_MASK));
 146:Src/translator.cpp ****     }
 147:Src/translator.cpp **** 
 148:Src/translator.cpp **** 
 149:Src/translator.cpp ****     checksum_t getCheckSum(const uint8_t* package)
 150:Src/translator.cpp ****     {
 151:Src/translator.cpp ****         return (package[1] << 8) | package[2];
 152:Src/translator.cpp ****     }
 153:Src/translator.cpp **** 
 154:Src/translator.cpp **** 
 155:Src/translator.cpp ****     //gets cmd num at 'cmd', returns final package into target pointer
 156:Src/translator.cpp ****     void generateCmd(const uint8_t cmd, uint8_t* tgt)
 157:Src/translator.cpp ****     {
 158:Src/translator.cpp ****         tgt[0] = getZeroByte(TYPE_CMD, 1);
 159:Src/translator.cpp ****         #ifdef USE_MULTIDEVICE
 160:Src/translator.cpp ****             tgt[SYS_LEN - 1] = myId;
 161:Src/translator.cpp ****         #endif 
 162:Src/translator.cpp ****         tgt[SYS_LEN] = cmd;
 163:Src/translator.cpp ****         checksum_t check = genCheckSum(tgt);
 164:Src/translator.cpp ****         tgt[1] = check >> 8;
GAS LISTING /tmp/ccKCczpn.s 			page 4


 165:Src/translator.cpp ****         tgt[2] = check & 0xFF;
 166:Src/translator.cpp ****     }
 167:Src/translator.cpp **** 
 168:Src/translator.cpp **** 
 169:Src/translator.cpp ****     //validate checksum, type, len
 170:Src/translator.cpp ****     bool validate(const uint8_t* package)
 171:Src/translator.cpp ****     {
 172:Src/translator.cpp ****         uint8_t type = getType(package);
 173:Src/translator.cpp ****         switch (type)
 174:Src/translator.cpp ****         {
 175:Src/translator.cpp ****             case TYPE_CMD:
 176:Src/translator.cpp ****             {
 177:Src/translator.cpp ****                 if(getLen(package) != 1)
 178:Src/translator.cpp ****                     return false;
 179:Src/translator.cpp ****                 break;
 180:Src/translator.cpp ****             }
 181:Src/translator.cpp ****             case TYPE_VAR:
 182:Src/translator.cpp ****             case TYPE_ARR:
 183:Src/translator.cpp ****             {
 184:Src/translator.cpp ****                 if(getLen(package) <= 1)
 185:Src/translator.cpp ****                     return false;
 186:Src/translator.cpp ****                 break;
 187:Src/translator.cpp ****             }
 188:Src/translator.cpp ****             default:
 189:Src/translator.cpp ****                 return false;
 190:Src/translator.cpp ****         }
 191:Src/translator.cpp ****         return (getCheckSum(package) == genCheckSum(package));
 192:Src/translator.cpp ****     }
 193:Src/translator.cpp **** 
 194:Src/translator.cpp ****     //create var package
 195:Src/translator.cpp ****     void generateVar(const uint8_t id, const uint8_t varlen, const uint8_t* var, uint8_t* tgt)
 196:Src/translator.cpp ****     {
 197:Src/translator.cpp ****         tgt[0] = getZeroByte(TYPE_VAR, varlen + 1);
 198:Src/translator.cpp ****         tgt[SYS_LEN] = id;
 199:Src/translator.cpp ****         for(uint8_t i = 0; i < varlen; i++)
 200:Src/translator.cpp ****         {
 201:Src/translator.cpp ****             tgt[SYS_LEN + 1 + i] = var[varlen - i - 1];
 202:Src/translator.cpp ****             // std::cout << "from " << (int)(i) << " to " << (int)(i + 4) << " set 0x" << std::hex 
 203:Src/translator.cpp ****         }
 204:Src/translator.cpp **** 
 205:Src/translator.cpp ****         #ifdef USE_MULTIDEVICE
 206:Src/translator.cpp ****             tgt[SYS_LEN - 1] = myId;
 207:Src/translator.cpp ****         #endif 
 208:Src/translator.cpp **** 
 209:Src/translator.cpp ****         checksum_t check = genCheckSum(tgt);
 210:Src/translator.cpp ****         tgt[1] = check >> 8;
 211:Src/translator.cpp ****         tgt[2] = check & 0xFF;
 212:Src/translator.cpp **** 
 213:Src/translator.cpp ****     }
 214:Src/translator.cpp **** 
 215:Src/translator.cpp **** 
 216:Src/translator.cpp ****     //parse var from var package and write into toArr[id], return type of package
 217:Src/translator.cpp ****     uint8_t parseVar(uint8_t* package, uint8_t* toArr, uint8_t elsize)
 218:Src/translator.cpp ****     {
 219:Src/translator.cpp ****         uint8_t type = getType(package);
 220:Src/translator.cpp ****         if(type != TYPE_VAR)
 221:Src/translator.cpp ****             return TYPE_BAD_TYPE;
GAS LISTING /tmp/ccKCczpn.s 			page 5


 222:Src/translator.cpp ****         uint8_t len = getLen(package);
 223:Src/translator.cpp ****         if(len < 2)
 224:Src/translator.cpp ****             return TYPE_BAD_LEN;
 225:Src/translator.cpp ****         checksum_t  check = genCheckSum(package),
 226:Src/translator.cpp ****                     thischeck = getCheckSum(package);
 227:Src/translator.cpp ****         if(check != thischeck)
 228:Src/translator.cpp ****             return TYPE_BAD_CHECKSUM;
 229:Src/translator.cpp **** 
 230:Src/translator.cpp ****         uint8_t id = package[SYS_LEN];
 231:Src/translator.cpp ****         for(uint8_t i = 0; i < len - 1; i++)
 232:Src/translator.cpp ****         {
 233:Src/translator.cpp ****             toArr[(id + i) * elsize] = package[i + SYS_LEN + 1];
 234:Src/translator.cpp ****         }
 235:Src/translator.cpp ****         return TYPE_VAR;
 236:Src/translator.cpp ****     }
 237:Src/translator.cpp ****     
 238:Src/translator.cpp ****     
 239:Src/translator.cpp ****     //create array package
 240:Src/translator.cpp ****     void generateArr(const uint8_t id, const uint8_t arrlen, const uint8_t elsize, const uint8_t* a
 241:Src/translator.cpp ****     {
 242:Src/translator.cpp ****         tgt[0] = getZeroByte(TYPE_ARR, (arrlen * elsize) + 1);
 243:Src/translator.cpp ****         tgt[SYS_LEN] = id;
 244:Src/translator.cpp ****         for(uint8_t i = 0; i < arrlen; i++)
 245:Src/translator.cpp ****         {
 246:Src/translator.cpp ****             for(uint8_t j = 0; j < elsize; j++)
 247:Src/translator.cpp ****             {
 248:Src/translator.cpp ****                 tgt[SYS_LEN + 1 + (i * elsize) + j] = arr[(i * elsize) + (elsize - j - 1)];
 249:Src/translator.cpp ****             }
 250:Src/translator.cpp ****         }
 251:Src/translator.cpp **** 
 252:Src/translator.cpp ****         #ifdef USE_MULTIDEVICE
 253:Src/translator.cpp ****             tgt[SYS_LEN - 1] = myId;
 254:Src/translator.cpp ****         #endif 
 255:Src/translator.cpp **** 
 256:Src/translator.cpp ****         checksum_t check = genCheckSum(tgt);
 257:Src/translator.cpp ****         tgt[1] = check >> 8;
 258:Src/translator.cpp ****         tgt[2] = check & 0xFF;
 259:Src/translator.cpp ****     }
 260:Src/translator.cpp ****     
 261:Src/translator.cpp ****     
 262:Src/translator.cpp ****     //parse array from array package and write into toArr[id], return type of package
 263:Src/translator.cpp ****     uint8_t parseArr(uint8_t* package, uint8_t** toArr)
 264:Src/translator.cpp ****     {
 265:Src/translator.cpp ****         uint8_t type = getType(package);
 266:Src/translator.cpp ****         if(type != TYPE_ARR)
 267:Src/translator.cpp ****             return TYPE_BAD_TYPE;
 268:Src/translator.cpp ****         uint8_t len = getLen(package);
 269:Src/translator.cpp ****         if(len < 2)
 270:Src/translator.cpp ****             return TYPE_BAD_LEN;
 271:Src/translator.cpp ****         checksum_t  check = genCheckSum(package),
 272:Src/translator.cpp ****                     thischeck = getCheckSum(package);
 273:Src/translator.cpp ****         if(check != thischeck)
 274:Src/translator.cpp ****             return TYPE_BAD_CHECKSUM;
 275:Src/translator.cpp **** 
 276:Src/translator.cpp ****         uint8_t id = package[SYS_LEN];
 277:Src/translator.cpp ****         for(uint8_t i = 0; i < len - 1; i++)
 278:Src/translator.cpp ****         {
GAS LISTING /tmp/ccKCczpn.s 			page 6


 279:Src/translator.cpp ****             toArr[id][i] = package[SYS_LEN + 1 + i];
 280:Src/translator.cpp ****         }
 281:Src/translator.cpp ****         return TYPE_ARR;
 282:Src/translator.cpp ****     }
 283:Src/translator.cpp ****     
 284:Src/translator.cpp ****     
 285:Src/translator.cpp ****     //check for package is full
 286:Src/translator.cpp ****     bool isFull(uint8_t* package, const uint8_t len)
 287:Src/translator.cpp ****     {
 288:Src/translator.cpp **** 
 289:Src/translator.cpp ****         if(len < SYS_LEN)
 290:Src/translator.cpp ****             return false;
 291:Src/translator.cpp ****         if((getLen(package) + SYS_LEN) != len)
 292:Src/translator.cpp ****             return false;
 293:Src/translator.cpp ****         switch (getType(package))
 294:Src/translator.cpp ****         {
 295:Src/translator.cpp ****             case TYPE_CMD:
 296:Src/translator.cpp ****             {
 297:Src/translator.cpp ****                 if(getLen(package) != 1)
 298:Src/translator.cpp ****                     return false;
 299:Src/translator.cpp ****                 break;
 300:Src/translator.cpp ****             }
 301:Src/translator.cpp ****             case TYPE_VAR:
 302:Src/translator.cpp ****             case TYPE_ARR:
 303:Src/translator.cpp ****             {
 304:Src/translator.cpp ****                 if(getLen(package) <= 1)
 305:Src/translator.cpp ****                     return false;
 306:Src/translator.cpp ****                 break;
 307:Src/translator.cpp ****             }
 308:Src/translator.cpp ****             default:
 309:Src/translator.cpp ****                 return false;
 310:Src/translator.cpp ****         }
 311:Src/translator.cpp ****         return true;
 312:Src/translator.cpp ****     }
 313:Src/translator.cpp **** }
   9              		.loc 1 313 1 view -0
  10              		.cfi_startproc
  11              		.loc 1 313 1 is_stmt 0 view .LVU1
  12 0000 83FF01   		cmpl	$1, %edi
  13 0003 7401     		je	.L7
  14              	.L4:
  15 0005 C3       		ret
  16              	.L7:
  17              		.loc 1 313 1 discriminator 1 view .LVU2
  18 0006 81FEFFFF 		cmpl	$65535, %esi
  18      0000
  19 000c 75F7     		jne	.L4
  20              		.loc 1 313 1 view .LVU3
  21 000e 4883EC08 		subq	$8, %rsp
  22              		.cfi_def_cfa_offset 16
  23              		.file 2 "/usr/include/c++/9.2.0/iostream"
   1:/usr/include/c++/9.2.0/iostream **** // Standard iostream objects -*- C++ -*-
   2:/usr/include/c++/9.2.0/iostream **** 
   3:/usr/include/c++/9.2.0/iostream **** // Copyright (C) 1997-2019 Free Software Foundation, Inc.
   4:/usr/include/c++/9.2.0/iostream **** //
   5:/usr/include/c++/9.2.0/iostream **** // This file is part of the GNU ISO C++ Library.  This library is free
   6:/usr/include/c++/9.2.0/iostream **** // software; you can redistribute it and/or modify it under the
GAS LISTING /tmp/ccKCczpn.s 			page 7


   7:/usr/include/c++/9.2.0/iostream **** // terms of the GNU General Public License as published by the
   8:/usr/include/c++/9.2.0/iostream **** // Free Software Foundation; either version 3, or (at your option)
   9:/usr/include/c++/9.2.0/iostream **** // any later version.
  10:/usr/include/c++/9.2.0/iostream **** 
  11:/usr/include/c++/9.2.0/iostream **** // This library is distributed in the hope that it will be useful,
  12:/usr/include/c++/9.2.0/iostream **** // but WITHOUT ANY WARRANTY; without even the implied warranty of
  13:/usr/include/c++/9.2.0/iostream **** // MERCHANTABILITY or FITNESS FOR A PARTICULAR PURPOSE.  See the
  14:/usr/include/c++/9.2.0/iostream **** // GNU General Public License for more details.
  15:/usr/include/c++/9.2.0/iostream **** 
  16:/usr/include/c++/9.2.0/iostream **** // Under Section 7 of GPL version 3, you are granted additional
  17:/usr/include/c++/9.2.0/iostream **** // permissions described in the GCC Runtime Library Exception, version
  18:/usr/include/c++/9.2.0/iostream **** // 3.1, as published by the Free Software Foundation.
  19:/usr/include/c++/9.2.0/iostream **** 
  20:/usr/include/c++/9.2.0/iostream **** // You should have received a copy of the GNU General Public License and
  21:/usr/include/c++/9.2.0/iostream **** // a copy of the GCC Runtime Library Exception along with this program;
  22:/usr/include/c++/9.2.0/iostream **** // see the files COPYING3 and COPYING.RUNTIME respectively.  If not, see
  23:/usr/include/c++/9.2.0/iostream **** // <http://www.gnu.org/licenses/>.
  24:/usr/include/c++/9.2.0/iostream **** 
  25:/usr/include/c++/9.2.0/iostream **** /** @file include/iostream
  26:/usr/include/c++/9.2.0/iostream ****  *  This is a Standard C++ Library header.
  27:/usr/include/c++/9.2.0/iostream ****  */
  28:/usr/include/c++/9.2.0/iostream **** 
  29:/usr/include/c++/9.2.0/iostream **** //
  30:/usr/include/c++/9.2.0/iostream **** // ISO C++ 14882: 27.3  Standard iostream objects
  31:/usr/include/c++/9.2.0/iostream **** //
  32:/usr/include/c++/9.2.0/iostream **** 
  33:/usr/include/c++/9.2.0/iostream **** #ifndef _GLIBCXX_IOSTREAM
  34:/usr/include/c++/9.2.0/iostream **** #define _GLIBCXX_IOSTREAM 1
  35:/usr/include/c++/9.2.0/iostream **** 
  36:/usr/include/c++/9.2.0/iostream **** #pragma GCC system_header
  37:/usr/include/c++/9.2.0/iostream **** 
  38:/usr/include/c++/9.2.0/iostream **** #include <bits/c++config.h>
  39:/usr/include/c++/9.2.0/iostream **** #include <ostream>
  40:/usr/include/c++/9.2.0/iostream **** #include <istream>
  41:/usr/include/c++/9.2.0/iostream **** 
  42:/usr/include/c++/9.2.0/iostream **** namespace std _GLIBCXX_VISIBILITY(default)
  43:/usr/include/c++/9.2.0/iostream **** {
  44:/usr/include/c++/9.2.0/iostream **** _GLIBCXX_BEGIN_NAMESPACE_VERSION
  45:/usr/include/c++/9.2.0/iostream **** 
  46:/usr/include/c++/9.2.0/iostream ****   /**
  47:/usr/include/c++/9.2.0/iostream ****    *  @name Standard Stream Objects
  48:/usr/include/c++/9.2.0/iostream ****    *
  49:/usr/include/c++/9.2.0/iostream ****    *  The &lt;iostream&gt; header declares the eight <em>standard stream
  50:/usr/include/c++/9.2.0/iostream ****    *  objects</em>.  For other declarations, see
  51:/usr/include/c++/9.2.0/iostream ****    *  http://gcc.gnu.org/onlinedocs/libstdc++/manual/io.html
  52:/usr/include/c++/9.2.0/iostream ****    *  and the @link iosfwd I/O forward declarations @endlink
  53:/usr/include/c++/9.2.0/iostream ****    *
  54:/usr/include/c++/9.2.0/iostream ****    *  They are required by default to cooperate with the global C
  55:/usr/include/c++/9.2.0/iostream ****    *  library's @c FILE streams, and to be available during program
  56:/usr/include/c++/9.2.0/iostream ****    *  startup and termination. For more information, see the section of the
  57:/usr/include/c++/9.2.0/iostream ****    *  manual linked to above.
  58:/usr/include/c++/9.2.0/iostream ****   */
  59:/usr/include/c++/9.2.0/iostream ****   //@{
  60:/usr/include/c++/9.2.0/iostream ****   extern istream cin;		/// Linked to standard input
  61:/usr/include/c++/9.2.0/iostream ****   extern ostream cout;		/// Linked to standard output
  62:/usr/include/c++/9.2.0/iostream ****   extern ostream cerr;		/// Linked to standard error (unbuffered)
  63:/usr/include/c++/9.2.0/iostream ****   extern ostream clog;		/// Linked to standard error (buffered)
GAS LISTING /tmp/ccKCczpn.s 			page 8


  64:/usr/include/c++/9.2.0/iostream **** 
  65:/usr/include/c++/9.2.0/iostream **** #ifdef _GLIBCXX_USE_WCHAR_T
  66:/usr/include/c++/9.2.0/iostream ****   extern wistream wcin;		/// Linked to standard input
  67:/usr/include/c++/9.2.0/iostream ****   extern wostream wcout;	/// Linked to standard output
  68:/usr/include/c++/9.2.0/iostream ****   extern wostream wcerr;	/// Linked to standard error (unbuffered)
  69:/usr/include/c++/9.2.0/iostream ****   extern wostream wclog;	/// Linked to standard error (buffered)
  70:/usr/include/c++/9.2.0/iostream **** #endif
  71:/usr/include/c++/9.2.0/iostream ****   //@}
  72:/usr/include/c++/9.2.0/iostream **** 
  73:/usr/include/c++/9.2.0/iostream ****   // For construction of filebuffers for cout, cin, cerr, clog et. al.
  74:/usr/include/c++/9.2.0/iostream ****   static ios_base::Init __ioinit;
  24              		.loc 2 74 25 view .LVU4
  25 0012 488D3D00 		leaq	_ZStL8__ioinit(%rip), %rdi
  25      000000
  26              	.LVL1:
  27              		.loc 2 74 25 view .LVU5
  28 0019 E8000000 		call	_ZNSt8ios_base4InitC1Ev@PLT
  28      00
  29              	.LVL2:
  30              		.loc 2 74 25 view .LVU6
  31 001e 488D1500 		leaq	__dso_handle(%rip), %rdx
  31      000000
  32 0025 488D3500 		leaq	_ZStL8__ioinit(%rip), %rsi
  32      000000
  33 002c 488B3D00 		movq	_ZNSt8ios_base4InitD1Ev@GOTPCREL(%rip), %rdi
  33      000000
  34 0033 E8000000 		call	__cxa_atexit@PLT
  34      00
  35              	.LVL3:
  36              		.loc 1 313 1 view .LVU7
  37 0038 4883C408 		addq	$8, %rsp
  38              		.cfi_def_cfa_offset 8
  39 003c C3       		ret
  40              		.cfi_endproc
  41              	.LFE1839:
  43              		.globl	_ZN10translator11getSenderIdEPh
  45              	_ZN10translator11getSenderIdEPh:
  46              	.LVL4:
  47              	.LFB1503:
  10:Src/translator.cpp ****             return p[SYS_LEN];
  48              		.loc 1 10 9 is_stmt 1 view -0
  49              		.cfi_startproc
  11:Src/translator.cpp ****         }
  50              		.loc 1 11 13 view .LVU9
  11:Src/translator.cpp ****         }
  51              		.loc 1 11 29 is_stmt 0 view .LVU10
  52 003d 0FB64704 		movzbl	4(%rdi), %eax
  12:Src/translator.cpp **** 
  53              		.loc 1 12 9 view .LVU11
  54 0041 C3       		ret
  55              		.cfi_endproc
  56              	.LFE1503:
  58              		.globl	_ZN10translator7getTypeEPKh
  60              	_ZN10translator7getTypeEPKh:
  61              	.LVL5:
  62              	.LFB1505:
  57:Src/translator.cpp ****         return ((package[0] & (~LEN_MASK)) >> 6);
GAS LISTING /tmp/ccKCczpn.s 			page 9


  63              		.loc 1 57 5 is_stmt 1 view -0
  64              		.cfi_startproc
  58:Src/translator.cpp ****     }
  65              		.loc 1 58 9 view .LVU13
  58:Src/translator.cpp ****     }
  66              		.loc 1 58 27 is_stmt 0 view .LVU14
  67 0042 0FB607   		movzbl	(%rdi), %eax
  58:Src/translator.cpp ****     }
  68              		.loc 1 58 44 view .LVU15
  69 0045 C1F806   		sarl	$6, %eax
  59:Src/translator.cpp **** 
  70              		.loc 1 59 5 view .LVU16
  71 0048 C3       		ret
  72              		.cfi_endproc
  73              	.LFE1505:
  75              		.globl	_ZN10translator6getLenEPKh
  77              	_ZN10translator6getLenEPKh:
  78              	.LVL6:
  79              	.LFB1509:
 125:Src/translator.cpp ****         return package[0] & LEN_MASK;
  80              		.loc 1 125 5 is_stmt 1 view -0
  81              		.cfi_startproc
 126:Src/translator.cpp ****     }
  82              		.loc 1 126 9 view .LVU18
 126:Src/translator.cpp ****     }
  83              		.loc 1 126 27 is_stmt 0 view .LVU19
  84 0049 0FB607   		movzbl	(%rdi), %eax
 126:Src/translator.cpp ****     }
  85              		.loc 1 126 29 view .LVU20
  86 004c 83E03F   		andl	$63, %eax
 127:Src/translator.cpp **** 
  87              		.loc 1 127 5 view .LVU21
  88 004f C3       		ret
  89              		.cfi_endproc
  90              	.LFE1509:
  92              		.globl	_ZN10translator11genCheckSumEPKh
  94              	_ZN10translator11genCheckSumEPKh:
  95              	.LVL7:
  96              	.LFB1504:
  43:Src/translator.cpp ****         checksum_t ret = 0;
  97              		.loc 1 43 5 is_stmt 1 view -0
  98              		.cfi_startproc
  43:Src/translator.cpp ****         checksum_t ret = 0;
  99              		.loc 1 43 5 is_stmt 0 view .LVU23
 100 0050 53       		pushq	%rbx
 101              		.cfi_def_cfa_offset 16
 102              		.cfi_offset 3, -16
 103 0051 4889FB   		movq	%rdi, %rbx
  44:Src/translator.cpp ****         uint8_t len = getLen(c);
 104              		.loc 1 44 9 is_stmt 1 view .LVU24
 105              	.LVL8:
  45:Src/translator.cpp ****         for(uint8_t i = 0; i < len + SYS_LEN; i++)
 106              		.loc 1 45 9 view .LVU25
  45:Src/translator.cpp ****         for(uint8_t i = 0; i < len + SYS_LEN; i++)
 107              		.loc 1 45 29 is_stmt 0 view .LVU26
 108 0054 E8000000 		call	_ZN10translator6getLenEPKh
 108      00
GAS LISTING /tmp/ccKCczpn.s 			page 10


 109              	.LVL9:
  46:Src/translator.cpp ****         {
 110              		.loc 1 46 9 is_stmt 1 view .LVU27
 111              	.LBB14:
  46:Src/translator.cpp ****         {
 112              		.loc 1 46 21 is_stmt 0 view .LVU28
 113 0059 BE000000 		movl	$0, %esi
 113      00
 114              	.LBE14:
  44:Src/translator.cpp ****         uint8_t len = getLen(c);
 115              		.loc 1 44 20 view .LVU29
 116 005e BF000000 		movl	$0, %edi
 116      00
 117 0063 EB03     		jmp	.L14
 118              	.LVL10:
 119              	.L13:
 120              	.LBB15:
  46:Src/translator.cpp ****         {
 121              		.loc 1 46 9 is_stmt 1 discriminator 2 view .LVU30
 122 0065 83C601   		addl	$1, %esi
 123              	.LVL11:
 124              	.L14:
  46:Src/translator.cpp ****         {
 125              		.loc 1 46 30 discriminator 1 view .LVU31
  46:Src/translator.cpp ****         {
 126              		.loc 1 46 32 is_stmt 0 discriminator 1 view .LVU32
 127 0068 0FB6D0   		movzbl	%al, %edx
  46:Src/translator.cpp ****         {
 128              		.loc 1 46 28 discriminator 1 view .LVU33
 129 006b 400FB6CE 		movzbl	%sil, %ecx
  46:Src/translator.cpp ****         {
 130              		.loc 1 46 30 discriminator 1 view .LVU34
 131 006f 83C203   		addl	$3, %edx
 132 0072 39CA     		cmpl	%ecx, %edx
 133 0074 7C1C     		jl	.L12
  48:Src/translator.cpp ****                 ret += (c[i]) << (8 * ((i % 2) == 1));
 134              		.loc 1 48 13 is_stmt 1 view .LVU35
  48:Src/translator.cpp ****                 ret += (c[i]) << (8 * ((i % 2) == 1));
 135              		.loc 1 48 23 is_stmt 0 view .LVU36
 136 0076 8D56FF   		leal	-1(%rsi), %edx
  48:Src/translator.cpp ****                 ret += (c[i]) << (8 * ((i % 2) == 1));
 137              		.loc 1 48 13 view .LVU37
 138 0079 80FA01   		cmpb	$1, %dl
 139 007c 76E7     		jbe	.L13
  49:Src/translator.cpp ****         }
 140              		.loc 1 49 17 is_stmt 1 view .LVU38
  49:Src/translator.cpp ****         }
 141              		.loc 1 49 27 is_stmt 0 view .LVU39
 142 007e 400FB6D6 		movzbl	%sil, %edx
  49:Src/translator.cpp ****         }
 143              		.loc 1 49 28 view .LVU40
 144 0082 0FB61413 		movzbl	(%rbx,%rdx), %edx
  49:Src/translator.cpp ****         }
 145              		.loc 1 49 37 view .LVU41
 146 0086 C1E103   		sall	$3, %ecx
 147 0089 83E108   		andl	$8, %ecx
  49:Src/translator.cpp ****         }
GAS LISTING /tmp/ccKCczpn.s 			page 11


 148              		.loc 1 49 31 view .LVU42
 149 008c D3E2     		sall	%cl, %edx
  49:Src/translator.cpp ****         }
 150              		.loc 1 49 21 view .LVU43
 151 008e 01D7     		addl	%edx, %edi
 152              	.LVL12:
  49:Src/translator.cpp ****         }
 153              		.loc 1 49 21 view .LVU44
 154 0090 EBD3     		jmp	.L13
 155              	.L12:
  49:Src/translator.cpp ****         }
 156              		.loc 1 49 21 view .LVU45
 157              	.LBE15:
  51:Src/translator.cpp ****         return ret;
 158              		.loc 1 51 9 is_stmt 1 view .LVU46
  51:Src/translator.cpp ****         return ret;
 159              		.loc 1 51 12 is_stmt 0 view .LVU47
 160 0092 8D4701   		leal	1(%rdi), %eax
 161              	.LVL13:
  52:Src/translator.cpp ****     }
 162              		.loc 1 52 9 is_stmt 1 view .LVU48
  53:Src/translator.cpp **** 
 163              		.loc 1 53 5 is_stmt 0 view .LVU49
 164 0095 5B       		popq	%rbx
 165              		.cfi_def_cfa_offset 8
 166              	.LVL14:
  53:Src/translator.cpp **** 
 167              		.loc 1 53 5 view .LVU50
 168 0096 C3       		ret
 169              		.cfi_endproc
 170              	.LFE1504:
 172              		.globl	_ZN10translator6equalsEPKhS1_
 174              	_ZN10translator6equalsEPKhS1_:
 175              	.LVL15:
 176              	.LFB1510:
 130:Src/translator.cpp ****         if(p1[0] != p2[0])
 177              		.loc 1 130 5 is_stmt 1 view -0
 178              		.cfi_startproc
 131:Src/translator.cpp ****             return false;
 179              		.loc 1 131 9 view .LVU52
 180 0097 0FB606   		movzbl	(%rsi), %eax
 181 009a 3807     		cmpb	%al, (%rdi)
 182 009c 7534     		jne	.L19
 130:Src/translator.cpp ****         if(p1[0] != p2[0])
 183              		.loc 1 130 5 is_stmt 0 view .LVU53
 184 009e 55       		pushq	%rbp
 185              		.cfi_def_cfa_offset 16
 186              		.cfi_offset 6, -16
 187 009f 53       		pushq	%rbx
 188              		.cfi_def_cfa_offset 24
 189              		.cfi_offset 3, -24
 190 00a0 4889FB   		movq	%rdi, %rbx
 191 00a3 4889F5   		movq	%rsi, %rbp
 134:Src/translator.cpp ****         for(uint8_t i = 0; i < len + SYS_LEN; i++)
 192              		.loc 1 134 9 is_stmt 1 view .LVU54
 134:Src/translator.cpp ****         for(uint8_t i = 0; i < len + SYS_LEN; i++)
 193              		.loc 1 134 29 is_stmt 0 view .LVU55
GAS LISTING /tmp/ccKCczpn.s 			page 12


 194 00a6 E8000000 		call	_ZN10translator6getLenEPKh
 194      00
 195              	.LVL16:
 135:Src/translator.cpp ****         {
 196              		.loc 1 135 9 is_stmt 1 view .LVU56
 197              	.LBB16:
 135:Src/translator.cpp ****         {
 198              		.loc 1 135 21 is_stmt 0 view .LVU57
 199 00ab BE000000 		movl	$0, %esi
 199      00
 200              	.LVL17:
 201              	.L18:
 135:Src/translator.cpp ****         {
 202              		.loc 1 135 30 is_stmt 1 discriminator 1 view .LVU58
 135:Src/translator.cpp ****         {
 203              		.loc 1 135 32 is_stmt 0 discriminator 1 view .LVU59
 204 00b0 0FB6D0   		movzbl	%al, %edx
 135:Src/translator.cpp ****         {
 205              		.loc 1 135 28 discriminator 1 view .LVU60
 206 00b3 400FB6CE 		movzbl	%sil, %ecx
 135:Src/translator.cpp ****         {
 207              		.loc 1 135 30 discriminator 1 view .LVU61
 208 00b7 83C203   		addl	$3, %edx
 209 00ba 39CA     		cmpl	%ecx, %edx
 210 00bc 7C1A     		jl	.L20
 137:Src/translator.cpp ****                 return false;
 211              		.loc 1 137 13 is_stmt 1 view .LVU62
 137:Src/translator.cpp ****                 return false;
 212              		.loc 1 137 19 is_stmt 0 view .LVU63
 213 00be 400FB6D6 		movzbl	%sil, %edx
 137:Src/translator.cpp ****                 return false;
 214              		.loc 1 137 13 view .LVU64
 215 00c2 0FB67C15 		movzbl	0(%rbp,%rdx), %edi
 215      00
 216 00c7 40383C13 		cmpb	%dil, (%rbx,%rdx)
 217 00cb 7513     		jne	.L21
 135:Src/translator.cpp ****         {
 218              		.loc 1 135 9 is_stmt 1 discriminator 2 view .LVU65
 219 00cd 83C601   		addl	$1, %esi
 220              	.LVL18:
 135:Src/translator.cpp ****         {
 221              		.loc 1 135 9 is_stmt 0 discriminator 2 view .LVU66
 222 00d0 EBDE     		jmp	.L18
 223              	.LVL19:
 224              	.L19:
 225              		.cfi_def_cfa_offset 8
 226              		.cfi_restore 3
 227              		.cfi_restore 6
 135:Src/translator.cpp ****         {
 228              		.loc 1 135 9 discriminator 2 view .LVU67
 229              	.LBE16:
 132:Src/translator.cpp **** 
 230              		.loc 1 132 20 view .LVU68
 231 00d2 B8000000 		movl	$0, %eax
 231      00
 141:Src/translator.cpp **** 
 232              		.loc 1 141 5 view .LVU69
GAS LISTING /tmp/ccKCczpn.s 			page 13


 233 00d7 C3       		ret
 234              	.LVL20:
 235              	.L20:
 236              		.cfi_def_cfa_offset 24
 237              		.cfi_offset 3, -24
 238              		.cfi_offset 6, -16
 140:Src/translator.cpp ****     }
 239              		.loc 1 140 16 view .LVU70
 240 00d8 B8010000 		movl	$1, %eax
 240      00
 241              	.LVL21:
 242              	.L16:
 141:Src/translator.cpp **** 
 243              		.loc 1 141 5 view .LVU71
 244 00dd 5B       		popq	%rbx
 245              		.cfi_remember_state
 246              		.cfi_def_cfa_offset 16
 247              	.LVL22:
 141:Src/translator.cpp **** 
 248              		.loc 1 141 5 view .LVU72
 249 00de 5D       		popq	%rbp
 250              		.cfi_def_cfa_offset 8
 251              	.LVL23:
 141:Src/translator.cpp **** 
 252              		.loc 1 141 5 view .LVU73
 253 00df C3       		ret
 254              	.LVL24:
 255              	.L21:
 256              		.cfi_restore_state
 257              	.LBB17:
 138:Src/translator.cpp ****         }
 258              		.loc 1 138 24 view .LVU74
 259 00e0 B8000000 		movl	$0, %eax
 259      00
 260              	.LVL25:
 138:Src/translator.cpp ****         }
 261              		.loc 1 138 24 view .LVU75
 262 00e5 EBF6     		jmp	.L16
 263              	.LBE17:
 264              		.cfi_endproc
 265              	.LFE1510:
 267              		.globl	_ZN10translator11getZeroByteEhh
 269              	_ZN10translator11getZeroByteEhh:
 270              	.LVL26:
 271              	.LFB1511:
 144:Src/translator.cpp ****         return (uint8_t)(((type & 0b11) << 6) | (len & LEN_MASK));
 272              		.loc 1 144 5 is_stmt 1 view -0
 273              		.cfi_startproc
 145:Src/translator.cpp ****     }
 274              		.loc 1 145 9 view .LVU77
 145:Src/translator.cpp ****     }
 275              		.loc 1 145 33 is_stmt 0 view .LVU78
 276 00e7 400FB6C7 		movzbl	%dil, %eax
 145:Src/translator.cpp ****     }
 277              		.loc 1 145 41 view .LVU79
 278 00eb C1E006   		sall	$6, %eax
 145:Src/translator.cpp ****     }
GAS LISTING /tmp/ccKCczpn.s 			page 14


 279              		.loc 1 145 54 view .LVU80
 280 00ee 83E63F   		andl	$63, %esi
 281              	.LVL27:
 145:Src/translator.cpp ****     }
 282              		.loc 1 145 47 view .LVU81
 283 00f1 09F0     		orl	%esi, %eax
 146:Src/translator.cpp **** 
 284              		.loc 1 146 5 view .LVU82
 285 00f3 C3       		ret
 286              		.cfi_endproc
 287              	.LFE1511:
 289              		.globl	_ZN10translator11getCheckSumEPKh
 291              	_ZN10translator11getCheckSumEPKh:
 292              	.LVL28:
 293              	.LFB1512:
 150:Src/translator.cpp ****         return (package[1] << 8) | package[2];
 294              		.loc 1 150 5 is_stmt 1 view -0
 295              		.cfi_startproc
 151:Src/translator.cpp ****     }
 296              		.loc 1 151 9 view .LVU84
 151:Src/translator.cpp ****     }
 297              		.loc 1 151 26 is_stmt 0 view .LVU85
 298 00f4 0FB64701 		movzbl	1(%rdi), %eax
 151:Src/translator.cpp ****     }
 299              		.loc 1 151 28 view .LVU86
 300 00f8 C1E008   		sall	$8, %eax
 301 00fb 89C2     		movl	%eax, %edx
 151:Src/translator.cpp ****     }
 302              		.loc 1 151 45 view .LVU87
 303 00fd 0FB64702 		movzbl	2(%rdi), %eax
 151:Src/translator.cpp ****     }
 304              		.loc 1 151 34 view .LVU88
 305 0101 09D0     		orl	%edx, %eax
 152:Src/translator.cpp **** 
 306              		.loc 1 152 5 view .LVU89
 307 0103 C3       		ret
 308              		.cfi_endproc
 309              	.LFE1512:
 311              		.globl	_ZN10translator11parsePacketEPhS0_
 313              	_ZN10translator11parsePacketEPhS0_:
 314              	.LVL29:
 315              	.LFB1506:
  64:Src/translator.cpp ****         uint8_t type = getType(package);
 316              		.loc 1 64 5 is_stmt 1 view -0
 317              		.cfi_startproc
  64:Src/translator.cpp ****         uint8_t type = getType(package);
 318              		.loc 1 64 5 is_stmt 0 view .LVU91
 319 0104 4156     		pushq	%r14
 320              		.cfi_def_cfa_offset 16
 321              		.cfi_offset 14, -16
 322 0106 4155     		pushq	%r13
 323              		.cfi_def_cfa_offset 24
 324              		.cfi_offset 13, -24
 325 0108 4154     		pushq	%r12
 326              		.cfi_def_cfa_offset 32
 327              		.cfi_offset 12, -32
 328 010a 55       		pushq	%rbp
GAS LISTING /tmp/ccKCczpn.s 			page 15


 329              		.cfi_def_cfa_offset 40
 330              		.cfi_offset 6, -40
 331 010b 53       		pushq	%rbx
 332              		.cfi_def_cfa_offset 48
 333              		.cfi_offset 3, -48
 334 010c 4889FB   		movq	%rdi, %rbx
 335 010f 4989F5   		movq	%rsi, %r13
  65:Src/translator.cpp ****         if(type != TYPE_ARR && type != TYPE_CMD && type != TYPE_VAR)
 336              		.loc 1 65 9 is_stmt 1 view .LVU92
  65:Src/translator.cpp ****         if(type != TYPE_ARR && type != TYPE_CMD && type != TYPE_VAR)
 337              		.loc 1 65 31 is_stmt 0 view .LVU93
 338 0112 E8000000 		call	_ZN10translator7getTypeEPKh
 338      00
 339              	.LVL30:
  65:Src/translator.cpp ****         if(type != TYPE_ARR && type != TYPE_CMD && type != TYPE_VAR)
 340              		.loc 1 65 31 view .LVU94
 341 0117 89C5     		movl	%eax, %ebp
 342              	.LVL31:
  66:Src/translator.cpp ****             return TYPE_BAD_TYPE;
 343              		.loc 1 66 9 is_stmt 1 view .LVU95
  66:Src/translator.cpp ****             return TYPE_BAD_TYPE;
 344              		.loc 1 66 17 is_stmt 0 view .LVU96
 345 0119 3C03     		cmpb	$3, %al
 346 011b 0F95C2   		setne	%dl
  66:Src/translator.cpp ****             return TYPE_BAD_TYPE;
 347              		.loc 1 66 37 view .LVU97
 348 011e 3C01     		cmpb	$1, %al
 349 0120 0F95C0   		setne	%al
 350              	.LVL32:
  66:Src/translator.cpp ****             return TYPE_BAD_TYPE;
 351              		.loc 1 66 9 view .LVU98
 352 0123 84C2     		testb	%al, %dl
 353 0125 7406     		je	.L29
  66:Src/translator.cpp ****             return TYPE_BAD_TYPE;
 354              		.loc 1 66 49 discriminator 1 view .LVU99
 355 0127 4080FD02 		cmpb	$2, %bpl
 356 012b 7544     		jne	.L32
 357              	.L29:
  68:Src/translator.cpp ****         if(len == 0)
 358              		.loc 1 68 9 is_stmt 1 view .LVU100
  68:Src/translator.cpp ****         if(len == 0)
 359              		.loc 1 68 29 is_stmt 0 view .LVU101
 360 012d 4889DF   		movq	%rbx, %rdi
 361 0130 E8000000 		call	_ZN10translator6getLenEPKh
 361      00
 362              	.LVL33:
 363 0135 4189C4   		movl	%eax, %r12d
 364              	.LVL34:
  69:Src/translator.cpp ****             return TYPE_BAD_LEN;
 365              		.loc 1 69 9 is_stmt 1 view .LVU102
 366 0138 84C0     		testb	%al, %al
 367 013a 743C     		je	.L33
  72:Src/translator.cpp ****             return TYPE_BAD_CHECKSUM;
 368              		.loc 1 72 9 view .LVU103
  72:Src/translator.cpp ****             return TYPE_BAD_CHECKSUM;
 369              		.loc 1 72 23 is_stmt 0 view .LVU104
 370 013c 4889DF   		movq	%rbx, %rdi
GAS LISTING /tmp/ccKCczpn.s 			page 16


 371 013f E8000000 		call	_ZN10translator11genCheckSumEPKh
 371      00
 372              	.LVL35:
  72:Src/translator.cpp ****             return TYPE_BAD_CHECKSUM;
 373              		.loc 1 72 23 view .LVU105
 374 0144 4189C6   		movl	%eax, %r14d
  72:Src/translator.cpp ****             return TYPE_BAD_CHECKSUM;
 375              		.loc 1 72 47 view .LVU106
 376 0147 4889DF   		movq	%rbx, %rdi
 377 014a E8000000 		call	_ZN10translator11getCheckSumEPKh
 377      00
 378              	.LVL36:
  72:Src/translator.cpp ****             return TYPE_BAD_CHECKSUM;
 379              		.loc 1 72 9 view .LVU107
 380 014f 664439F0 		cmpw	%r14w, %ax
 381 0153 7533     		jne	.L34
 382              	.LBB18:
  76:Src/translator.cpp ****         {
 383              		.loc 1 76 21 view .LVU108
 384 0155 B8000000 		movl	$0, %eax
 384      00
 385              	.L31:
 386              	.LVL37:
  76:Src/translator.cpp ****         {
 387              		.loc 1 76 30 is_stmt 1 discriminator 3 view .LVU109
 388 015a 4438E0   		cmpb	%r12b, %al
 389 015d 731E     		jnb	.L28
  78:Src/translator.cpp ****         }
 390              		.loc 1 78 13 discriminator 2 view .LVU110
  78:Src/translator.cpp ****         }
 391              		.loc 1 78 36 is_stmt 0 discriminator 2 view .LVU111
 392 015f 0FB6D0   		movzbl	%al, %edx
  78:Src/translator.cpp ****         }
 393              		.loc 1 78 47 discriminator 2 view .LVU112
 394 0162 0FB64C13 		movzbl	4(%rbx,%rdx), %ecx
 394      04
  78:Src/translator.cpp ****         }
 395              		.loc 1 78 26 discriminator 2 view .LVU113
 396 0167 41884C15 		movb	%cl, 0(%r13,%rdx)
 396      00
  76:Src/translator.cpp ****         {
 397              		.loc 1 76 9 is_stmt 1 discriminator 2 view .LVU114
 398 016c 83C001   		addl	$1, %eax
 399              	.LVL38:
  76:Src/translator.cpp ****         {
 400              		.loc 1 76 9 is_stmt 0 discriminator 2 view .LVU115
 401 016f EBE9     		jmp	.L31
 402              	.LVL39:
 403              	.L32:
  76:Src/translator.cpp ****         {
 404              		.loc 1 76 9 discriminator 2 view .LVU116
 405              	.LBE18:
  67:Src/translator.cpp ****         uint8_t len = getLen(package);
 406              		.loc 1 67 20 view .LVU117
 407 0171 BD650000 		movl	$101, %ebp
 407      00
 408              	.LVL40:
GAS LISTING /tmp/ccKCczpn.s 			page 17


  67:Src/translator.cpp ****         uint8_t len = getLen(package);
 409              		.loc 1 67 20 view .LVU118
 410 0176 EB05     		jmp	.L28
 411              	.LVL41:
 412              	.L33:
  70:Src/translator.cpp **** 
 413              		.loc 1 70 20 view .LVU119
 414 0178 BD640000 		movl	$100, %ebp
 414      00
 415              	.LVL42:
 416              	.L28:
  81:Src/translator.cpp **** 
 417              		.loc 1 81 5 view .LVU120
 418 017d 89E8     		movl	%ebp, %eax
 419 017f 5B       		popq	%rbx
 420              		.cfi_remember_state
 421              		.cfi_def_cfa_offset 40
 422              	.LVL43:
  81:Src/translator.cpp **** 
 423              		.loc 1 81 5 view .LVU121
 424 0180 5D       		popq	%rbp
 425              		.cfi_def_cfa_offset 32
 426 0181 415C     		popq	%r12
 427              		.cfi_def_cfa_offset 24
 428 0183 415D     		popq	%r13
 429              		.cfi_def_cfa_offset 16
 430              	.LVL44:
  81:Src/translator.cpp **** 
 431              		.loc 1 81 5 view .LVU122
 432 0185 415E     		popq	%r14
 433              		.cfi_def_cfa_offset 8
 434 0187 C3       		ret
 435              	.LVL45:
 436              	.L34:
 437              		.cfi_restore_state
  73:Src/translator.cpp **** 
 438              		.loc 1 73 20 view .LVU123
 439 0188 BD660000 		movl	$102, %ebp
 439      00
 440              	.LVL46:
  73:Src/translator.cpp **** 
 441              		.loc 1 73 20 view .LVU124
 442 018d EBEE     		jmp	.L28
 443              		.cfi_endproc
 444              	.LFE1506:
 446              		.section	.rodata.str1.1,"aMS",@progbits,1
 447              	.LC0:
 448 0000 74677420 		.string	"tgt func is null\n"
 448      66756E63 
 448      20697320 
 448      6E756C6C 
 448      0A00
 449              		.text
 450              		.globl	_ZN10translator8parseCmdEPhPPFvvE
 452              	_ZN10translator8parseCmdEPhPPFvvE:
 453              	.LVL47:
 454              	.LFB1507:
GAS LISTING /tmp/ccKCczpn.s 			page 18


  86:Src/translator.cpp ****         uint8_t var = getType(package);
 455              		.loc 1 86 5 is_stmt 1 view -0
 456              		.cfi_startproc
  86:Src/translator.cpp ****         uint8_t var = getType(package);
 457              		.loc 1 86 5 is_stmt 0 view .LVU126
 458 018f 4155     		pushq	%r13
 459              		.cfi_def_cfa_offset 16
 460              		.cfi_offset 13, -16
 461 0191 4154     		pushq	%r12
 462              		.cfi_def_cfa_offset 24
 463              		.cfi_offset 12, -24
 464 0193 55       		pushq	%rbp
 465              		.cfi_def_cfa_offset 32
 466              		.cfi_offset 6, -32
 467 0194 53       		pushq	%rbx
 468              		.cfi_def_cfa_offset 40
 469              		.cfi_offset 3, -40
 470 0195 4883EC08 		subq	$8, %rsp
 471              		.cfi_def_cfa_offset 48
 472 0199 4889FB   		movq	%rdi, %rbx
 473 019c 4989F4   		movq	%rsi, %r12
  87:Src/translator.cpp ****         if(var != TYPE_CMD)
 474              		.loc 1 87 9 is_stmt 1 view .LVU127
  87:Src/translator.cpp ****         if(var != TYPE_CMD)
 475              		.loc 1 87 30 is_stmt 0 view .LVU128
 476 019f E8000000 		call	_ZN10translator7getTypeEPKh
 476      00
 477              	.LVL48:
  88:Src/translator.cpp ****             return TYPE_BAD_TYPE;
 478              		.loc 1 88 9 is_stmt 1 view .LVU129
 479 01a4 3C01     		cmpb	$1, %al
 480 01a6 7559     		jne	.L39
  91:Src/translator.cpp ****         if(var != 1)
 481              		.loc 1 91 9 view .LVU130
  91:Src/translator.cpp ****         if(var != 1)
 482              		.loc 1 91 21 is_stmt 0 view .LVU131
 483 01a8 4889DF   		movq	%rbx, %rdi
 484 01ab E8000000 		call	_ZN10translator6getLenEPKh
 484      00
 485              	.LVL49:
  91:Src/translator.cpp ****         if(var != 1)
 486              		.loc 1 91 21 view .LVU132
 487 01b0 89C5     		movl	%eax, %ebp
 488              	.LVL50:
  92:Src/translator.cpp ****             return TYPE_BAD_LEN;
 489              		.loc 1 92 9 is_stmt 1 view .LVU133
 490 01b2 3C01     		cmpb	$1, %al
 491 01b4 7407     		je	.L43
  93:Src/translator.cpp **** 
 492              		.loc 1 93 20 is_stmt 0 view .LVU134
 493 01b6 BD640000 		movl	$100, %ebp
 493      00
 494 01bb EB49     		jmp	.L36
 495              	.L43:
  95:Src/translator.cpp ****         if(check != getCheckSum(package))   
 496              		.loc 1 95 9 is_stmt 1 view .LVU135
  95:Src/translator.cpp ****         if(check != getCheckSum(package))   
GAS LISTING /tmp/ccKCczpn.s 			page 19


 497              		.loc 1 95 39 is_stmt 0 view .LVU136
 498 01bd 4889DF   		movq	%rbx, %rdi
 499 01c0 E8000000 		call	_ZN10translator11genCheckSumEPKh
 499      00
 500              	.LVL51:
  95:Src/translator.cpp ****         if(check != getCheckSum(package))   
 501              		.loc 1 95 39 view .LVU137
 502 01c5 4189C5   		movl	%eax, %r13d
 503              	.LVL52:
  96:Src/translator.cpp ****             return TYPE_BAD_CHECKSUM;
 504              		.loc 1 96 9 is_stmt 1 view .LVU138
  96:Src/translator.cpp ****             return TYPE_BAD_CHECKSUM;
 505              		.loc 1 96 32 is_stmt 0 view .LVU139
 506 01c8 4889DF   		movq	%rbx, %rdi
 507 01cb E8000000 		call	_ZN10translator11getCheckSumEPKh
 507      00
 508              	.LVL53:
  96:Src/translator.cpp ****             return TYPE_BAD_CHECKSUM;
 509              		.loc 1 96 9 view .LVU140
 510 01d0 664439E8 		cmpw	%r13w, %ax
 511 01d4 753D     		jne	.L41
  99:Src/translator.cpp ****             funcArr[package[SYS_LEN]]();
 512              		.loc 1 99 9 is_stmt 1 view .LVU141
  99:Src/translator.cpp ****             funcArr[package[SYS_LEN]]();
 513              		.loc 1 99 35 is_stmt 0 view .LVU142
 514 01d6 0FB64304 		movzbl	4(%rbx), %eax
  99:Src/translator.cpp ****             funcArr[package[SYS_LEN]]();
 515              		.loc 1 99 36 view .LVU143
 516 01da 498B04C4 		movq	(%r12,%rax,8), %rax
  99:Src/translator.cpp ****             funcArr[package[SYS_LEN]]();
 517              		.loc 1 99 9 view .LVU144
 518 01de 4885C0   		testq	%rax, %rax
 519 01e1 7404     		je	.L38
 100:Src/translator.cpp ****         else
 520              		.loc 1 100 13 is_stmt 1 view .LVU145
 100:Src/translator.cpp ****         else
 521              		.loc 1 100 38 is_stmt 0 view .LVU146
 522 01e3 FFD0     		call	*%rax
 523              	.LVL54:
 524 01e5 EB1F     		jmp	.L36
 525              	.L38:
 102:Src/translator.cpp ****         return TYPE_CMD;
 526              		.loc 1 102 13 is_stmt 1 view .LVU147
 527              	.LVL55:
 528              	.LBB29:
 529              	.LBI29:
 530              		.file 3 "/usr/include/c++/9.2.0/ostream"
   1:/usr/include/c++/9.2.0/ostream **** // Output streams -*- C++ -*-
   2:/usr/include/c++/9.2.0/ostream **** 
   3:/usr/include/c++/9.2.0/ostream **** // Copyright (C) 1997-2019 Free Software Foundation, Inc.
   4:/usr/include/c++/9.2.0/ostream **** //
   5:/usr/include/c++/9.2.0/ostream **** // This file is part of the GNU ISO C++ Library.  This library is free
   6:/usr/include/c++/9.2.0/ostream **** // software; you can redistribute it and/or modify it under the
   7:/usr/include/c++/9.2.0/ostream **** // terms of the GNU General Public License as published by the
   8:/usr/include/c++/9.2.0/ostream **** // Free Software Foundation; either version 3, or (at your option)
   9:/usr/include/c++/9.2.0/ostream **** // any later version.
  10:/usr/include/c++/9.2.0/ostream **** 
GAS LISTING /tmp/ccKCczpn.s 			page 20


  11:/usr/include/c++/9.2.0/ostream **** // This library is distributed in the hope that it will be useful,
  12:/usr/include/c++/9.2.0/ostream **** // but WITHOUT ANY WARRANTY; without even the implied warranty of
  13:/usr/include/c++/9.2.0/ostream **** // MERCHANTABILITY or FITNESS FOR A PARTICULAR PURPOSE.  See the
  14:/usr/include/c++/9.2.0/ostream **** // GNU General Public License for more details.
  15:/usr/include/c++/9.2.0/ostream **** 
  16:/usr/include/c++/9.2.0/ostream **** // Under Section 7 of GPL version 3, you are granted additional
  17:/usr/include/c++/9.2.0/ostream **** // permissions described in the GCC Runtime Library Exception, version
  18:/usr/include/c++/9.2.0/ostream **** // 3.1, as published by the Free Software Foundation.
  19:/usr/include/c++/9.2.0/ostream **** 
  20:/usr/include/c++/9.2.0/ostream **** // You should have received a copy of the GNU General Public License and
  21:/usr/include/c++/9.2.0/ostream **** // a copy of the GCC Runtime Library Exception along with this program;
  22:/usr/include/c++/9.2.0/ostream **** // see the files COPYING3 and COPYING.RUNTIME respectively.  If not, see
  23:/usr/include/c++/9.2.0/ostream **** // <http://www.gnu.org/licenses/>.
  24:/usr/include/c++/9.2.0/ostream **** 
  25:/usr/include/c++/9.2.0/ostream **** /** @file include/ostream
  26:/usr/include/c++/9.2.0/ostream ****  *  This is a Standard C++ Library header.
  27:/usr/include/c++/9.2.0/ostream ****  */
  28:/usr/include/c++/9.2.0/ostream **** 
  29:/usr/include/c++/9.2.0/ostream **** //
  30:/usr/include/c++/9.2.0/ostream **** // ISO C++ 14882: 27.6.2  Output streams
  31:/usr/include/c++/9.2.0/ostream **** //
  32:/usr/include/c++/9.2.0/ostream **** 
  33:/usr/include/c++/9.2.0/ostream **** #ifndef _GLIBCXX_OSTREAM
  34:/usr/include/c++/9.2.0/ostream **** #define _GLIBCXX_OSTREAM 1
  35:/usr/include/c++/9.2.0/ostream **** 
  36:/usr/include/c++/9.2.0/ostream **** #pragma GCC system_header
  37:/usr/include/c++/9.2.0/ostream **** 
  38:/usr/include/c++/9.2.0/ostream **** #include <ios>
  39:/usr/include/c++/9.2.0/ostream **** #include <bits/ostream_insert.h>
  40:/usr/include/c++/9.2.0/ostream **** 
  41:/usr/include/c++/9.2.0/ostream **** namespace std _GLIBCXX_VISIBILITY(default)
  42:/usr/include/c++/9.2.0/ostream **** {
  43:/usr/include/c++/9.2.0/ostream **** _GLIBCXX_BEGIN_NAMESPACE_VERSION
  44:/usr/include/c++/9.2.0/ostream **** 
  45:/usr/include/c++/9.2.0/ostream ****   /**
  46:/usr/include/c++/9.2.0/ostream ****    *  @brief  Template class basic_ostream.
  47:/usr/include/c++/9.2.0/ostream ****    *  @ingroup io
  48:/usr/include/c++/9.2.0/ostream ****    *
  49:/usr/include/c++/9.2.0/ostream ****    *  @tparam _CharT  Type of character stream.
  50:/usr/include/c++/9.2.0/ostream ****    *  @tparam _Traits  Traits for character type, defaults to
  51:/usr/include/c++/9.2.0/ostream ****    *                   char_traits<_CharT>.
  52:/usr/include/c++/9.2.0/ostream ****    *
  53:/usr/include/c++/9.2.0/ostream ****    *  This is the base class for all output streams.  It provides text
  54:/usr/include/c++/9.2.0/ostream ****    *  formatting of all builtin types, and communicates with any class
  55:/usr/include/c++/9.2.0/ostream ****    *  derived from basic_streambuf to do the actual output.
  56:/usr/include/c++/9.2.0/ostream ****   */
  57:/usr/include/c++/9.2.0/ostream ****   template<typename _CharT, typename _Traits>
  58:/usr/include/c++/9.2.0/ostream ****     class basic_ostream : virtual public basic_ios<_CharT, _Traits>
  59:/usr/include/c++/9.2.0/ostream ****     {
  60:/usr/include/c++/9.2.0/ostream ****     public:
  61:/usr/include/c++/9.2.0/ostream ****       // Types (inherited from basic_ios):
  62:/usr/include/c++/9.2.0/ostream ****       typedef _CharT			 		char_type;
  63:/usr/include/c++/9.2.0/ostream ****       typedef typename _Traits::int_type 		int_type;
  64:/usr/include/c++/9.2.0/ostream ****       typedef typename _Traits::pos_type 		pos_type;
  65:/usr/include/c++/9.2.0/ostream ****       typedef typename _Traits::off_type 		off_type;
  66:/usr/include/c++/9.2.0/ostream ****       typedef _Traits			 		traits_type;
  67:/usr/include/c++/9.2.0/ostream **** 
GAS LISTING /tmp/ccKCczpn.s 			page 21


  68:/usr/include/c++/9.2.0/ostream ****       // Non-standard Types:
  69:/usr/include/c++/9.2.0/ostream ****       typedef basic_streambuf<_CharT, _Traits> 		__streambuf_type;
  70:/usr/include/c++/9.2.0/ostream ****       typedef basic_ios<_CharT, _Traits>		__ios_type;
  71:/usr/include/c++/9.2.0/ostream ****       typedef basic_ostream<_CharT, _Traits>		__ostream_type;
  72:/usr/include/c++/9.2.0/ostream ****       typedef num_put<_CharT, ostreambuf_iterator<_CharT, _Traits> >
  73:/usr/include/c++/9.2.0/ostream ****       							__num_put_type;
  74:/usr/include/c++/9.2.0/ostream ****       typedef ctype<_CharT>	      			__ctype_type;
  75:/usr/include/c++/9.2.0/ostream **** 
  76:/usr/include/c++/9.2.0/ostream ****       /**
  77:/usr/include/c++/9.2.0/ostream ****        *  @brief  Base constructor.
  78:/usr/include/c++/9.2.0/ostream ****        *
  79:/usr/include/c++/9.2.0/ostream ****        *  This ctor is almost never called by the user directly, rather from
  80:/usr/include/c++/9.2.0/ostream ****        *  derived classes' initialization lists, which pass a pointer to
  81:/usr/include/c++/9.2.0/ostream ****        *  their own stream buffer.
  82:/usr/include/c++/9.2.0/ostream ****       */
  83:/usr/include/c++/9.2.0/ostream ****       explicit
  84:/usr/include/c++/9.2.0/ostream ****       basic_ostream(__streambuf_type* __sb)
  85:/usr/include/c++/9.2.0/ostream ****       { this->init(__sb); }
  86:/usr/include/c++/9.2.0/ostream **** 
  87:/usr/include/c++/9.2.0/ostream ****       /**
  88:/usr/include/c++/9.2.0/ostream ****        *  @brief  Base destructor.
  89:/usr/include/c++/9.2.0/ostream ****        *
  90:/usr/include/c++/9.2.0/ostream ****        *  This does very little apart from providing a virtual base dtor.
  91:/usr/include/c++/9.2.0/ostream ****       */
  92:/usr/include/c++/9.2.0/ostream ****       virtual
  93:/usr/include/c++/9.2.0/ostream ****       ~basic_ostream() { }
  94:/usr/include/c++/9.2.0/ostream **** 
  95:/usr/include/c++/9.2.0/ostream ****       /// Safe prefix/suffix operations.
  96:/usr/include/c++/9.2.0/ostream ****       class sentry;
  97:/usr/include/c++/9.2.0/ostream ****       friend class sentry;
  98:/usr/include/c++/9.2.0/ostream **** 
  99:/usr/include/c++/9.2.0/ostream ****       //@{
 100:/usr/include/c++/9.2.0/ostream ****       /**
 101:/usr/include/c++/9.2.0/ostream ****        *  @brief  Interface for manipulators.
 102:/usr/include/c++/9.2.0/ostream ****        *
 103:/usr/include/c++/9.2.0/ostream ****        *  Manipulators such as @c std::endl and @c std::hex use these
 104:/usr/include/c++/9.2.0/ostream ****        *  functions in constructs like "std::cout << std::endl".  For more
 105:/usr/include/c++/9.2.0/ostream ****        *  information, see the iomanip header.
 106:/usr/include/c++/9.2.0/ostream ****       */
 107:/usr/include/c++/9.2.0/ostream ****       __ostream_type&
 108:/usr/include/c++/9.2.0/ostream ****       operator<<(__ostream_type& (*__pf)(__ostream_type&))
 109:/usr/include/c++/9.2.0/ostream ****       {
 110:/usr/include/c++/9.2.0/ostream **** 	// _GLIBCXX_RESOLVE_LIB_DEFECTS
 111:/usr/include/c++/9.2.0/ostream **** 	// DR 60. What is a formatted input function?
 112:/usr/include/c++/9.2.0/ostream **** 	// The inserters for manipulators are *not* formatted output functions.
 113:/usr/include/c++/9.2.0/ostream **** 	return __pf(*this);
 114:/usr/include/c++/9.2.0/ostream ****       }
 115:/usr/include/c++/9.2.0/ostream **** 
 116:/usr/include/c++/9.2.0/ostream ****       __ostream_type&
 117:/usr/include/c++/9.2.0/ostream ****       operator<<(__ios_type& (*__pf)(__ios_type&))
 118:/usr/include/c++/9.2.0/ostream ****       {
 119:/usr/include/c++/9.2.0/ostream **** 	// _GLIBCXX_RESOLVE_LIB_DEFECTS
 120:/usr/include/c++/9.2.0/ostream **** 	// DR 60. What is a formatted input function?
 121:/usr/include/c++/9.2.0/ostream **** 	// The inserters for manipulators are *not* formatted output functions.
 122:/usr/include/c++/9.2.0/ostream **** 	__pf(*this);
 123:/usr/include/c++/9.2.0/ostream **** 	return *this;
 124:/usr/include/c++/9.2.0/ostream ****       }
GAS LISTING /tmp/ccKCczpn.s 			page 22


 125:/usr/include/c++/9.2.0/ostream **** 
 126:/usr/include/c++/9.2.0/ostream ****       __ostream_type&
 127:/usr/include/c++/9.2.0/ostream ****       operator<<(ios_base& (*__pf) (ios_base&))
 128:/usr/include/c++/9.2.0/ostream ****       {
 129:/usr/include/c++/9.2.0/ostream **** 	// _GLIBCXX_RESOLVE_LIB_DEFECTS
 130:/usr/include/c++/9.2.0/ostream **** 	// DR 60. What is a formatted input function?
 131:/usr/include/c++/9.2.0/ostream **** 	// The inserters for manipulators are *not* formatted output functions.
 132:/usr/include/c++/9.2.0/ostream **** 	__pf(*this);
 133:/usr/include/c++/9.2.0/ostream **** 	return *this;
 134:/usr/include/c++/9.2.0/ostream ****       }
 135:/usr/include/c++/9.2.0/ostream ****       //@}
 136:/usr/include/c++/9.2.0/ostream **** 
 137:/usr/include/c++/9.2.0/ostream ****       //@{
 138:/usr/include/c++/9.2.0/ostream ****       /**
 139:/usr/include/c++/9.2.0/ostream ****        *  @name Inserters
 140:/usr/include/c++/9.2.0/ostream ****        *
 141:/usr/include/c++/9.2.0/ostream ****        *  All the @c operator<< functions (aka <em>formatted output
 142:/usr/include/c++/9.2.0/ostream ****        *  functions</em>) have some common behavior.  Each starts by
 143:/usr/include/c++/9.2.0/ostream ****        *  constructing a temporary object of type std::basic_ostream::sentry.
 144:/usr/include/c++/9.2.0/ostream ****        *  This can have several effects, concluding with the setting of a
 145:/usr/include/c++/9.2.0/ostream ****        *  status flag; see the sentry documentation for more.
 146:/usr/include/c++/9.2.0/ostream ****        *
 147:/usr/include/c++/9.2.0/ostream ****        *  If the sentry status is good, the function tries to generate
 148:/usr/include/c++/9.2.0/ostream ****        *  whatever data is appropriate for the type of the argument.
 149:/usr/include/c++/9.2.0/ostream ****        *
 150:/usr/include/c++/9.2.0/ostream ****        *  If an exception is thrown during insertion, ios_base::badbit
 151:/usr/include/c++/9.2.0/ostream ****        *  will be turned on in the stream's error state without causing an
 152:/usr/include/c++/9.2.0/ostream ****        *  ios_base::failure to be thrown.  The original exception will then
 153:/usr/include/c++/9.2.0/ostream ****        *  be rethrown.
 154:/usr/include/c++/9.2.0/ostream ****       */
 155:/usr/include/c++/9.2.0/ostream **** 
 156:/usr/include/c++/9.2.0/ostream ****       //@{
 157:/usr/include/c++/9.2.0/ostream ****       /**
 158:/usr/include/c++/9.2.0/ostream ****        *  @brief Integer arithmetic inserters
 159:/usr/include/c++/9.2.0/ostream ****        *  @param  __n A variable of builtin integral type.
 160:/usr/include/c++/9.2.0/ostream ****        *  @return  @c *this if successful
 161:/usr/include/c++/9.2.0/ostream ****        *
 162:/usr/include/c++/9.2.0/ostream ****        *  These functions use the stream's current locale (specifically, the
 163:/usr/include/c++/9.2.0/ostream ****        *  @c num_get facet) to perform numeric formatting.
 164:/usr/include/c++/9.2.0/ostream ****       */
 165:/usr/include/c++/9.2.0/ostream ****       __ostream_type&
 166:/usr/include/c++/9.2.0/ostream ****       operator<<(long __n)
 167:/usr/include/c++/9.2.0/ostream ****       { return _M_insert(__n); }
 168:/usr/include/c++/9.2.0/ostream **** 
 169:/usr/include/c++/9.2.0/ostream ****       __ostream_type&
 170:/usr/include/c++/9.2.0/ostream ****       operator<<(unsigned long __n)
 171:/usr/include/c++/9.2.0/ostream ****       { return _M_insert(__n); }
 172:/usr/include/c++/9.2.0/ostream **** 
 173:/usr/include/c++/9.2.0/ostream ****       __ostream_type&
 174:/usr/include/c++/9.2.0/ostream ****       operator<<(bool __n)
 175:/usr/include/c++/9.2.0/ostream ****       { return _M_insert(__n); }
 176:/usr/include/c++/9.2.0/ostream **** 
 177:/usr/include/c++/9.2.0/ostream ****       __ostream_type&
 178:/usr/include/c++/9.2.0/ostream ****       operator<<(short __n);
 179:/usr/include/c++/9.2.0/ostream **** 
 180:/usr/include/c++/9.2.0/ostream ****       __ostream_type&
 181:/usr/include/c++/9.2.0/ostream ****       operator<<(unsigned short __n)
GAS LISTING /tmp/ccKCczpn.s 			page 23


 182:/usr/include/c++/9.2.0/ostream ****       {
 183:/usr/include/c++/9.2.0/ostream **** 	// _GLIBCXX_RESOLVE_LIB_DEFECTS
 184:/usr/include/c++/9.2.0/ostream **** 	// 117. basic_ostream uses nonexistent num_put member functions.
 185:/usr/include/c++/9.2.0/ostream **** 	return _M_insert(static_cast<unsigned long>(__n));
 186:/usr/include/c++/9.2.0/ostream ****       }
 187:/usr/include/c++/9.2.0/ostream **** 
 188:/usr/include/c++/9.2.0/ostream ****       __ostream_type&
 189:/usr/include/c++/9.2.0/ostream ****       operator<<(int __n);
 190:/usr/include/c++/9.2.0/ostream **** 
 191:/usr/include/c++/9.2.0/ostream ****       __ostream_type&
 192:/usr/include/c++/9.2.0/ostream ****       operator<<(unsigned int __n)
 193:/usr/include/c++/9.2.0/ostream ****       {
 194:/usr/include/c++/9.2.0/ostream **** 	// _GLIBCXX_RESOLVE_LIB_DEFECTS
 195:/usr/include/c++/9.2.0/ostream **** 	// 117. basic_ostream uses nonexistent num_put member functions.
 196:/usr/include/c++/9.2.0/ostream **** 	return _M_insert(static_cast<unsigned long>(__n));
 197:/usr/include/c++/9.2.0/ostream ****       }
 198:/usr/include/c++/9.2.0/ostream **** 
 199:/usr/include/c++/9.2.0/ostream **** #ifdef _GLIBCXX_USE_LONG_LONG
 200:/usr/include/c++/9.2.0/ostream ****       __ostream_type&
 201:/usr/include/c++/9.2.0/ostream ****       operator<<(long long __n)
 202:/usr/include/c++/9.2.0/ostream ****       { return _M_insert(__n); }
 203:/usr/include/c++/9.2.0/ostream **** 
 204:/usr/include/c++/9.2.0/ostream ****       __ostream_type&
 205:/usr/include/c++/9.2.0/ostream ****       operator<<(unsigned long long __n)
 206:/usr/include/c++/9.2.0/ostream ****       { return _M_insert(__n); }
 207:/usr/include/c++/9.2.0/ostream **** #endif
 208:/usr/include/c++/9.2.0/ostream ****       //@}
 209:/usr/include/c++/9.2.0/ostream **** 
 210:/usr/include/c++/9.2.0/ostream ****       //@{
 211:/usr/include/c++/9.2.0/ostream ****       /**
 212:/usr/include/c++/9.2.0/ostream ****        *  @brief  Floating point arithmetic inserters
 213:/usr/include/c++/9.2.0/ostream ****        *  @param  __f A variable of builtin floating point type.
 214:/usr/include/c++/9.2.0/ostream ****        *  @return  @c *this if successful
 215:/usr/include/c++/9.2.0/ostream ****        *
 216:/usr/include/c++/9.2.0/ostream ****        *  These functions use the stream's current locale (specifically, the
 217:/usr/include/c++/9.2.0/ostream ****        *  @c num_get facet) to perform numeric formatting.
 218:/usr/include/c++/9.2.0/ostream ****       */
 219:/usr/include/c++/9.2.0/ostream ****       __ostream_type&
 220:/usr/include/c++/9.2.0/ostream ****       operator<<(double __f)
 221:/usr/include/c++/9.2.0/ostream ****       { return _M_insert(__f); }
 222:/usr/include/c++/9.2.0/ostream **** 
 223:/usr/include/c++/9.2.0/ostream ****       __ostream_type&
 224:/usr/include/c++/9.2.0/ostream ****       operator<<(float __f)
 225:/usr/include/c++/9.2.0/ostream ****       {
 226:/usr/include/c++/9.2.0/ostream **** 	// _GLIBCXX_RESOLVE_LIB_DEFECTS
 227:/usr/include/c++/9.2.0/ostream **** 	// 117. basic_ostream uses nonexistent num_put member functions.
 228:/usr/include/c++/9.2.0/ostream **** 	return _M_insert(static_cast<double>(__f));
 229:/usr/include/c++/9.2.0/ostream ****       }
 230:/usr/include/c++/9.2.0/ostream **** 
 231:/usr/include/c++/9.2.0/ostream ****       __ostream_type&
 232:/usr/include/c++/9.2.0/ostream ****       operator<<(long double __f)
 233:/usr/include/c++/9.2.0/ostream ****       { return _M_insert(__f); }
 234:/usr/include/c++/9.2.0/ostream ****       //@}
 235:/usr/include/c++/9.2.0/ostream **** 
 236:/usr/include/c++/9.2.0/ostream ****       /**
 237:/usr/include/c++/9.2.0/ostream ****        *  @brief  Pointer arithmetic inserters
 238:/usr/include/c++/9.2.0/ostream ****        *  @param  __p A variable of pointer type.
GAS LISTING /tmp/ccKCczpn.s 			page 24


 239:/usr/include/c++/9.2.0/ostream ****        *  @return  @c *this if successful
 240:/usr/include/c++/9.2.0/ostream ****        *
 241:/usr/include/c++/9.2.0/ostream ****        *  These functions use the stream's current locale (specifically, the
 242:/usr/include/c++/9.2.0/ostream ****        *  @c num_get facet) to perform numeric formatting.
 243:/usr/include/c++/9.2.0/ostream ****       */
 244:/usr/include/c++/9.2.0/ostream ****       __ostream_type&
 245:/usr/include/c++/9.2.0/ostream ****       operator<<(const void* __p)
 246:/usr/include/c++/9.2.0/ostream ****       { return _M_insert(__p); }
 247:/usr/include/c++/9.2.0/ostream **** 
 248:/usr/include/c++/9.2.0/ostream **** #if __cplusplus >= 201703L
 249:/usr/include/c++/9.2.0/ostream ****       __ostream_type&
 250:/usr/include/c++/9.2.0/ostream ****       operator<<(nullptr_t)
 251:/usr/include/c++/9.2.0/ostream ****       { return *this << "nullptr"; }
 252:/usr/include/c++/9.2.0/ostream **** #endif
 253:/usr/include/c++/9.2.0/ostream **** 
 254:/usr/include/c++/9.2.0/ostream ****       /**
 255:/usr/include/c++/9.2.0/ostream ****        *  @brief  Extracting from another streambuf.
 256:/usr/include/c++/9.2.0/ostream ****        *  @param  __sb  A pointer to a streambuf
 257:/usr/include/c++/9.2.0/ostream ****        *
 258:/usr/include/c++/9.2.0/ostream ****        *  This function behaves like one of the basic arithmetic extractors,
 259:/usr/include/c++/9.2.0/ostream ****        *  in that it also constructs a sentry object and has the same error
 260:/usr/include/c++/9.2.0/ostream ****        *  handling behavior.
 261:/usr/include/c++/9.2.0/ostream ****        *
 262:/usr/include/c++/9.2.0/ostream ****        *  If @p __sb is NULL, the stream will set failbit in its error state.
 263:/usr/include/c++/9.2.0/ostream ****        *
 264:/usr/include/c++/9.2.0/ostream ****        *  Characters are extracted from @p __sb and inserted into @c *this
 265:/usr/include/c++/9.2.0/ostream ****        *  until one of the following occurs:
 266:/usr/include/c++/9.2.0/ostream ****        *
 267:/usr/include/c++/9.2.0/ostream ****        *  - the input stream reaches end-of-file,
 268:/usr/include/c++/9.2.0/ostream ****        *  - insertion into the output sequence fails (in this case, the
 269:/usr/include/c++/9.2.0/ostream ****        *    character that would have been inserted is not extracted), or
 270:/usr/include/c++/9.2.0/ostream ****        *  - an exception occurs while getting a character from @p __sb, which
 271:/usr/include/c++/9.2.0/ostream ****        *    sets failbit in the error state
 272:/usr/include/c++/9.2.0/ostream ****        *
 273:/usr/include/c++/9.2.0/ostream ****        *  If the function inserts no characters, failbit is set.
 274:/usr/include/c++/9.2.0/ostream ****       */
 275:/usr/include/c++/9.2.0/ostream ****       __ostream_type&
 276:/usr/include/c++/9.2.0/ostream ****       operator<<(__streambuf_type* __sb);
 277:/usr/include/c++/9.2.0/ostream ****       //@}
 278:/usr/include/c++/9.2.0/ostream **** 
 279:/usr/include/c++/9.2.0/ostream ****       //@{
 280:/usr/include/c++/9.2.0/ostream ****       /**
 281:/usr/include/c++/9.2.0/ostream ****        *  @name Unformatted Output Functions
 282:/usr/include/c++/9.2.0/ostream ****        *
 283:/usr/include/c++/9.2.0/ostream ****        *  All the unformatted output functions have some common behavior.
 284:/usr/include/c++/9.2.0/ostream ****        *  Each starts by constructing a temporary object of type
 285:/usr/include/c++/9.2.0/ostream ****        *  std::basic_ostream::sentry.  This has several effects, concluding
 286:/usr/include/c++/9.2.0/ostream ****        *  with the setting of a status flag; see the sentry documentation
 287:/usr/include/c++/9.2.0/ostream ****        *  for more.
 288:/usr/include/c++/9.2.0/ostream ****        *
 289:/usr/include/c++/9.2.0/ostream ****        *  If the sentry status is good, the function tries to generate
 290:/usr/include/c++/9.2.0/ostream ****        *  whatever data is appropriate for the type of the argument.
 291:/usr/include/c++/9.2.0/ostream ****        *
 292:/usr/include/c++/9.2.0/ostream ****        *  If an exception is thrown during insertion, ios_base::badbit
 293:/usr/include/c++/9.2.0/ostream ****        *  will be turned on in the stream's error state.  If badbit is on in
 294:/usr/include/c++/9.2.0/ostream ****        *  the stream's exceptions mask, the exception will be rethrown
 295:/usr/include/c++/9.2.0/ostream ****        *  without completing its actions.
GAS LISTING /tmp/ccKCczpn.s 			page 25


 296:/usr/include/c++/9.2.0/ostream ****       */
 297:/usr/include/c++/9.2.0/ostream **** 
 298:/usr/include/c++/9.2.0/ostream ****       /**
 299:/usr/include/c++/9.2.0/ostream ****        *  @brief  Simple insertion.
 300:/usr/include/c++/9.2.0/ostream ****        *  @param  __c  The character to insert.
 301:/usr/include/c++/9.2.0/ostream ****        *  @return  *this
 302:/usr/include/c++/9.2.0/ostream ****        *
 303:/usr/include/c++/9.2.0/ostream ****        *  Tries to insert @p __c.
 304:/usr/include/c++/9.2.0/ostream ****        *
 305:/usr/include/c++/9.2.0/ostream ****        *  @note  This function is not overloaded on signed char and
 306:/usr/include/c++/9.2.0/ostream ****        *         unsigned char.
 307:/usr/include/c++/9.2.0/ostream ****       */
 308:/usr/include/c++/9.2.0/ostream ****       __ostream_type&
 309:/usr/include/c++/9.2.0/ostream ****       put(char_type __c);
 310:/usr/include/c++/9.2.0/ostream **** 
 311:/usr/include/c++/9.2.0/ostream ****       /**
 312:/usr/include/c++/9.2.0/ostream ****        *  @brief  Core write functionality, without sentry.
 313:/usr/include/c++/9.2.0/ostream ****        *  @param  __s  The array to insert.
 314:/usr/include/c++/9.2.0/ostream ****        *  @param  __n  Maximum number of characters to insert.
 315:/usr/include/c++/9.2.0/ostream ****       */
 316:/usr/include/c++/9.2.0/ostream ****       void
 317:/usr/include/c++/9.2.0/ostream ****       _M_write(const char_type* __s, streamsize __n)
 318:/usr/include/c++/9.2.0/ostream ****       {
 319:/usr/include/c++/9.2.0/ostream **** 	const streamsize __put = this->rdbuf()->sputn(__s, __n);
 320:/usr/include/c++/9.2.0/ostream **** 	if (__put != __n)
 321:/usr/include/c++/9.2.0/ostream **** 	  this->setstate(ios_base::badbit);
 322:/usr/include/c++/9.2.0/ostream ****       }
 323:/usr/include/c++/9.2.0/ostream **** 
 324:/usr/include/c++/9.2.0/ostream ****       /**
 325:/usr/include/c++/9.2.0/ostream ****        *  @brief  Character string insertion.
 326:/usr/include/c++/9.2.0/ostream ****        *  @param  __s  The array to insert.
 327:/usr/include/c++/9.2.0/ostream ****        *  @param  __n  Maximum number of characters to insert.
 328:/usr/include/c++/9.2.0/ostream ****        *  @return  *this
 329:/usr/include/c++/9.2.0/ostream ****        *
 330:/usr/include/c++/9.2.0/ostream ****        *  Characters are copied from @p __s and inserted into the stream until
 331:/usr/include/c++/9.2.0/ostream ****        *  one of the following happens:
 332:/usr/include/c++/9.2.0/ostream ****        *
 333:/usr/include/c++/9.2.0/ostream ****        *  - @p __n characters are inserted
 334:/usr/include/c++/9.2.0/ostream ****        *  - inserting into the output sequence fails (in this case, badbit
 335:/usr/include/c++/9.2.0/ostream ****        *    will be set in the stream's error state)
 336:/usr/include/c++/9.2.0/ostream ****        *
 337:/usr/include/c++/9.2.0/ostream ****        *  @note  This function is not overloaded on signed char and
 338:/usr/include/c++/9.2.0/ostream ****        *         unsigned char.
 339:/usr/include/c++/9.2.0/ostream ****       */
 340:/usr/include/c++/9.2.0/ostream ****       __ostream_type&
 341:/usr/include/c++/9.2.0/ostream ****       write(const char_type* __s, streamsize __n);
 342:/usr/include/c++/9.2.0/ostream ****       //@}
 343:/usr/include/c++/9.2.0/ostream **** 
 344:/usr/include/c++/9.2.0/ostream ****       /**
 345:/usr/include/c++/9.2.0/ostream ****        *  @brief  Synchronizing the stream buffer.
 346:/usr/include/c++/9.2.0/ostream ****        *  @return  *this
 347:/usr/include/c++/9.2.0/ostream ****        *
 348:/usr/include/c++/9.2.0/ostream ****        *  If @c rdbuf() is a null pointer, changes nothing.
 349:/usr/include/c++/9.2.0/ostream ****        *
 350:/usr/include/c++/9.2.0/ostream ****        *  Otherwise, calls @c rdbuf()->pubsync(), and if that returns -1,
 351:/usr/include/c++/9.2.0/ostream ****        *  sets badbit.
 352:/usr/include/c++/9.2.0/ostream ****       */
GAS LISTING /tmp/ccKCczpn.s 			page 26


 353:/usr/include/c++/9.2.0/ostream ****       __ostream_type&
 354:/usr/include/c++/9.2.0/ostream ****       flush();
 355:/usr/include/c++/9.2.0/ostream **** 
 356:/usr/include/c++/9.2.0/ostream ****       /**
 357:/usr/include/c++/9.2.0/ostream ****        *  @brief  Getting the current write position.
 358:/usr/include/c++/9.2.0/ostream ****        *  @return  A file position object.
 359:/usr/include/c++/9.2.0/ostream ****        *
 360:/usr/include/c++/9.2.0/ostream ****        *  If @c fail() is not false, returns @c pos_type(-1) to indicate
 361:/usr/include/c++/9.2.0/ostream ****        *  failure.  Otherwise returns @c rdbuf()->pubseekoff(0,cur,out).
 362:/usr/include/c++/9.2.0/ostream ****       */
 363:/usr/include/c++/9.2.0/ostream ****       pos_type
 364:/usr/include/c++/9.2.0/ostream ****       tellp();
 365:/usr/include/c++/9.2.0/ostream **** 
 366:/usr/include/c++/9.2.0/ostream ****       /**
 367:/usr/include/c++/9.2.0/ostream ****        *  @brief  Changing the current write position.
 368:/usr/include/c++/9.2.0/ostream ****        *  @param  __pos  A file position object.
 369:/usr/include/c++/9.2.0/ostream ****        *  @return  *this
 370:/usr/include/c++/9.2.0/ostream ****        *
 371:/usr/include/c++/9.2.0/ostream ****        *  If @c fail() is not true, calls @c rdbuf()->pubseekpos(pos).  If
 372:/usr/include/c++/9.2.0/ostream ****        *  that function fails, sets failbit.
 373:/usr/include/c++/9.2.0/ostream ****       */
 374:/usr/include/c++/9.2.0/ostream ****       __ostream_type&
 375:/usr/include/c++/9.2.0/ostream ****       seekp(pos_type);
 376:/usr/include/c++/9.2.0/ostream **** 
 377:/usr/include/c++/9.2.0/ostream ****       /**
 378:/usr/include/c++/9.2.0/ostream ****        *  @brief  Changing the current write position.
 379:/usr/include/c++/9.2.0/ostream ****        *  @param  __off  A file offset object.
 380:/usr/include/c++/9.2.0/ostream ****        *  @param  __dir  The direction in which to seek.
 381:/usr/include/c++/9.2.0/ostream ****        *  @return  *this
 382:/usr/include/c++/9.2.0/ostream ****        *
 383:/usr/include/c++/9.2.0/ostream ****        *  If @c fail() is not true, calls @c rdbuf()->pubseekoff(off,dir).
 384:/usr/include/c++/9.2.0/ostream ****        *  If that function fails, sets failbit.
 385:/usr/include/c++/9.2.0/ostream ****       */
 386:/usr/include/c++/9.2.0/ostream ****        __ostream_type&
 387:/usr/include/c++/9.2.0/ostream ****       seekp(off_type, ios_base::seekdir);
 388:/usr/include/c++/9.2.0/ostream **** 
 389:/usr/include/c++/9.2.0/ostream ****     protected:
 390:/usr/include/c++/9.2.0/ostream ****       basic_ostream()
 391:/usr/include/c++/9.2.0/ostream ****       { this->init(0); }
 392:/usr/include/c++/9.2.0/ostream **** 
 393:/usr/include/c++/9.2.0/ostream **** #if __cplusplus >= 201103L
 394:/usr/include/c++/9.2.0/ostream ****       // Non-standard constructor that does not call init()
 395:/usr/include/c++/9.2.0/ostream ****       basic_ostream(basic_iostream<_CharT, _Traits>&) { }
 396:/usr/include/c++/9.2.0/ostream **** 
 397:/usr/include/c++/9.2.0/ostream ****       basic_ostream(const basic_ostream&) = delete;
 398:/usr/include/c++/9.2.0/ostream **** 
 399:/usr/include/c++/9.2.0/ostream ****       basic_ostream(basic_ostream&& __rhs)
 400:/usr/include/c++/9.2.0/ostream ****       : __ios_type()
 401:/usr/include/c++/9.2.0/ostream ****       { __ios_type::move(__rhs); }
 402:/usr/include/c++/9.2.0/ostream **** 
 403:/usr/include/c++/9.2.0/ostream ****       // 27.7.3.3 Assign/swap
 404:/usr/include/c++/9.2.0/ostream **** 
 405:/usr/include/c++/9.2.0/ostream ****       basic_ostream& operator=(const basic_ostream&) = delete;
 406:/usr/include/c++/9.2.0/ostream **** 
 407:/usr/include/c++/9.2.0/ostream ****       basic_ostream&
 408:/usr/include/c++/9.2.0/ostream ****       operator=(basic_ostream&& __rhs)
 409:/usr/include/c++/9.2.0/ostream ****       {
GAS LISTING /tmp/ccKCczpn.s 			page 27


 410:/usr/include/c++/9.2.0/ostream **** 	swap(__rhs);
 411:/usr/include/c++/9.2.0/ostream **** 	return *this;
 412:/usr/include/c++/9.2.0/ostream ****       }
 413:/usr/include/c++/9.2.0/ostream **** 
 414:/usr/include/c++/9.2.0/ostream ****       void
 415:/usr/include/c++/9.2.0/ostream ****       swap(basic_ostream& __rhs)
 416:/usr/include/c++/9.2.0/ostream ****       { __ios_type::swap(__rhs); }
 417:/usr/include/c++/9.2.0/ostream **** #endif
 418:/usr/include/c++/9.2.0/ostream **** 
 419:/usr/include/c++/9.2.0/ostream ****       template<typename _ValueT>
 420:/usr/include/c++/9.2.0/ostream **** 	__ostream_type&
 421:/usr/include/c++/9.2.0/ostream **** 	_M_insert(_ValueT __v);
 422:/usr/include/c++/9.2.0/ostream ****     };
 423:/usr/include/c++/9.2.0/ostream **** 
 424:/usr/include/c++/9.2.0/ostream ****   /**
 425:/usr/include/c++/9.2.0/ostream ****    *  @brief  Performs setup work for output streams.
 426:/usr/include/c++/9.2.0/ostream ****    *
 427:/usr/include/c++/9.2.0/ostream ****    *  Objects of this class are created before all of the standard
 428:/usr/include/c++/9.2.0/ostream ****    *  inserters are run.  It is responsible for <em>exception-safe prefix and
 429:/usr/include/c++/9.2.0/ostream ****    *  suffix operations</em>.
 430:/usr/include/c++/9.2.0/ostream ****   */
 431:/usr/include/c++/9.2.0/ostream ****   template <typename _CharT, typename _Traits>
 432:/usr/include/c++/9.2.0/ostream ****     class basic_ostream<_CharT, _Traits>::sentry
 433:/usr/include/c++/9.2.0/ostream ****     {
 434:/usr/include/c++/9.2.0/ostream ****       // Data Members.
 435:/usr/include/c++/9.2.0/ostream ****       bool 				_M_ok;
 436:/usr/include/c++/9.2.0/ostream ****       basic_ostream<_CharT, _Traits>& 	_M_os;
 437:/usr/include/c++/9.2.0/ostream **** 
 438:/usr/include/c++/9.2.0/ostream ****     public:
 439:/usr/include/c++/9.2.0/ostream ****       /**
 440:/usr/include/c++/9.2.0/ostream ****        *  @brief  The constructor performs preparatory work.
 441:/usr/include/c++/9.2.0/ostream ****        *  @param  __os  The output stream to guard.
 442:/usr/include/c++/9.2.0/ostream ****        *
 443:/usr/include/c++/9.2.0/ostream ****        *  If the stream state is good (@a __os.good() is true), then if the
 444:/usr/include/c++/9.2.0/ostream ****        *  stream is tied to another output stream, @c is.tie()->flush()
 445:/usr/include/c++/9.2.0/ostream ****        *  is called to synchronize the output sequences.
 446:/usr/include/c++/9.2.0/ostream ****        *
 447:/usr/include/c++/9.2.0/ostream ****        *  If the stream state is still good, then the sentry state becomes
 448:/usr/include/c++/9.2.0/ostream ****        *  true (@a okay).
 449:/usr/include/c++/9.2.0/ostream ****       */
 450:/usr/include/c++/9.2.0/ostream ****       explicit
 451:/usr/include/c++/9.2.0/ostream ****       sentry(basic_ostream<_CharT, _Traits>& __os);
 452:/usr/include/c++/9.2.0/ostream **** 
 453:/usr/include/c++/9.2.0/ostream **** #pragma GCC diagnostic push
 454:/usr/include/c++/9.2.0/ostream **** #pragma GCC diagnostic ignored "-Wdeprecated-declarations"
 455:/usr/include/c++/9.2.0/ostream ****       /**
 456:/usr/include/c++/9.2.0/ostream ****        *  @brief  Possibly flushes the stream.
 457:/usr/include/c++/9.2.0/ostream ****        *
 458:/usr/include/c++/9.2.0/ostream ****        *  If @c ios_base::unitbuf is set in @c os.flags(), and
 459:/usr/include/c++/9.2.0/ostream ****        *  @c std::uncaught_exception() is true, the sentry destructor calls
 460:/usr/include/c++/9.2.0/ostream ****        *  @c flush() on the output stream.
 461:/usr/include/c++/9.2.0/ostream ****       */
 462:/usr/include/c++/9.2.0/ostream ****       ~sentry()
 463:/usr/include/c++/9.2.0/ostream ****       {
 464:/usr/include/c++/9.2.0/ostream **** 	// XXX MT
 465:/usr/include/c++/9.2.0/ostream **** 	if (bool(_M_os.flags() & ios_base::unitbuf) && !uncaught_exception())
 466:/usr/include/c++/9.2.0/ostream **** 	  {
GAS LISTING /tmp/ccKCczpn.s 			page 28


 467:/usr/include/c++/9.2.0/ostream **** 	    // Can't call flush directly or else will get into recursive lock.
 468:/usr/include/c++/9.2.0/ostream **** 	    if (_M_os.rdbuf() && _M_os.rdbuf()->pubsync() == -1)
 469:/usr/include/c++/9.2.0/ostream **** 	      _M_os.setstate(ios_base::badbit);
 470:/usr/include/c++/9.2.0/ostream **** 	  }
 471:/usr/include/c++/9.2.0/ostream ****       }
 472:/usr/include/c++/9.2.0/ostream **** #pragma GCC diagnostic pop
 473:/usr/include/c++/9.2.0/ostream **** 
 474:/usr/include/c++/9.2.0/ostream ****       /**
 475:/usr/include/c++/9.2.0/ostream ****        *  @brief  Quick status checking.
 476:/usr/include/c++/9.2.0/ostream ****        *  @return  The sentry state.
 477:/usr/include/c++/9.2.0/ostream ****        *
 478:/usr/include/c++/9.2.0/ostream ****        *  For ease of use, sentries may be converted to booleans.  The
 479:/usr/include/c++/9.2.0/ostream ****        *  return value is that of the sentry state (true == okay).
 480:/usr/include/c++/9.2.0/ostream ****       */
 481:/usr/include/c++/9.2.0/ostream **** #if __cplusplus >= 201103L
 482:/usr/include/c++/9.2.0/ostream ****       explicit
 483:/usr/include/c++/9.2.0/ostream **** #endif
 484:/usr/include/c++/9.2.0/ostream ****       operator bool() const
 485:/usr/include/c++/9.2.0/ostream ****       { return _M_ok; }
 486:/usr/include/c++/9.2.0/ostream ****     };
 487:/usr/include/c++/9.2.0/ostream **** 
 488:/usr/include/c++/9.2.0/ostream ****   //@{
 489:/usr/include/c++/9.2.0/ostream ****   /**
 490:/usr/include/c++/9.2.0/ostream ****    *  @brief  Character inserters
 491:/usr/include/c++/9.2.0/ostream ****    *  @param  __out  An output stream.
 492:/usr/include/c++/9.2.0/ostream ****    *  @param  __c  A character.
 493:/usr/include/c++/9.2.0/ostream ****    *  @return  out
 494:/usr/include/c++/9.2.0/ostream ****    *
 495:/usr/include/c++/9.2.0/ostream ****    *  Behaves like one of the formatted arithmetic inserters described in
 496:/usr/include/c++/9.2.0/ostream ****    *  std::basic_ostream.  After constructing a sentry object with good
 497:/usr/include/c++/9.2.0/ostream ****    *  status, this function inserts a single character and any required
 498:/usr/include/c++/9.2.0/ostream ****    *  padding (as determined by [22.2.2.2.2]).  @c __out.width(0) is then
 499:/usr/include/c++/9.2.0/ostream ****    *  called.
 500:/usr/include/c++/9.2.0/ostream ****    *
 501:/usr/include/c++/9.2.0/ostream ****    *  If @p __c is of type @c char and the character type of the stream is not
 502:/usr/include/c++/9.2.0/ostream ****    *  @c char, the character is widened before insertion.
 503:/usr/include/c++/9.2.0/ostream ****   */
 504:/usr/include/c++/9.2.0/ostream ****   template<typename _CharT, typename _Traits>
 505:/usr/include/c++/9.2.0/ostream ****     inline basic_ostream<_CharT, _Traits>&
 506:/usr/include/c++/9.2.0/ostream ****     operator<<(basic_ostream<_CharT, _Traits>& __out, _CharT __c)
 507:/usr/include/c++/9.2.0/ostream ****     { return __ostream_insert(__out, &__c, 1); }
 508:/usr/include/c++/9.2.0/ostream **** 
 509:/usr/include/c++/9.2.0/ostream ****   template<typename _CharT, typename _Traits>
 510:/usr/include/c++/9.2.0/ostream ****     inline basic_ostream<_CharT, _Traits>&
 511:/usr/include/c++/9.2.0/ostream ****     operator<<(basic_ostream<_CharT, _Traits>& __out, char __c)
 512:/usr/include/c++/9.2.0/ostream ****     { return (__out << __out.widen(__c)); }
 513:/usr/include/c++/9.2.0/ostream **** 
 514:/usr/include/c++/9.2.0/ostream ****   // Specialization
 515:/usr/include/c++/9.2.0/ostream ****   template <class _Traits>
 516:/usr/include/c++/9.2.0/ostream ****     inline basic_ostream<char, _Traits>&
 517:/usr/include/c++/9.2.0/ostream ****     operator<<(basic_ostream<char, _Traits>& __out, char __c)
 518:/usr/include/c++/9.2.0/ostream ****     { return __ostream_insert(__out, &__c, 1); }
 519:/usr/include/c++/9.2.0/ostream **** 
 520:/usr/include/c++/9.2.0/ostream ****   // Signed and unsigned
 521:/usr/include/c++/9.2.0/ostream ****   template<class _Traits>
 522:/usr/include/c++/9.2.0/ostream ****     inline basic_ostream<char, _Traits>&
 523:/usr/include/c++/9.2.0/ostream ****     operator<<(basic_ostream<char, _Traits>& __out, signed char __c)
GAS LISTING /tmp/ccKCczpn.s 			page 29


 524:/usr/include/c++/9.2.0/ostream ****     { return (__out << static_cast<char>(__c)); }
 525:/usr/include/c++/9.2.0/ostream **** 
 526:/usr/include/c++/9.2.0/ostream ****   template<class _Traits>
 527:/usr/include/c++/9.2.0/ostream ****     inline basic_ostream<char, _Traits>&
 528:/usr/include/c++/9.2.0/ostream ****     operator<<(basic_ostream<char, _Traits>& __out, unsigned char __c)
 529:/usr/include/c++/9.2.0/ostream ****     { return (__out << static_cast<char>(__c)); }
 530:/usr/include/c++/9.2.0/ostream ****   //@}
 531:/usr/include/c++/9.2.0/ostream **** 
 532:/usr/include/c++/9.2.0/ostream ****   //@{
 533:/usr/include/c++/9.2.0/ostream ****   /**
 534:/usr/include/c++/9.2.0/ostream ****    *  @brief  String inserters
 535:/usr/include/c++/9.2.0/ostream ****    *  @param  __out  An output stream.
 536:/usr/include/c++/9.2.0/ostream ****    *  @param  __s  A character string.
 537:/usr/include/c++/9.2.0/ostream ****    *  @return  out
 538:/usr/include/c++/9.2.0/ostream ****    *  @pre  @p __s must be a non-NULL pointer
 539:/usr/include/c++/9.2.0/ostream ****    *
 540:/usr/include/c++/9.2.0/ostream ****    *  Behaves like one of the formatted arithmetic inserters described in
 541:/usr/include/c++/9.2.0/ostream ****    *  std::basic_ostream.  After constructing a sentry object with good
 542:/usr/include/c++/9.2.0/ostream ****    *  status, this function inserts @c traits::length(__s) characters starting
 543:/usr/include/c++/9.2.0/ostream ****    *  at @p __s, widened if necessary, followed by any required padding (as
 544:/usr/include/c++/9.2.0/ostream ****    *  determined by [22.2.2.2.2]).  @c __out.width(0) is then called.
 545:/usr/include/c++/9.2.0/ostream ****   */
 546:/usr/include/c++/9.2.0/ostream ****   template<typename _CharT, typename _Traits>
 547:/usr/include/c++/9.2.0/ostream ****     inline basic_ostream<_CharT, _Traits>&
 548:/usr/include/c++/9.2.0/ostream ****     operator<<(basic_ostream<_CharT, _Traits>& __out, const _CharT* __s)
 549:/usr/include/c++/9.2.0/ostream ****     {
 550:/usr/include/c++/9.2.0/ostream ****       if (!__s)
 551:/usr/include/c++/9.2.0/ostream **** 	__out.setstate(ios_base::badbit);
 552:/usr/include/c++/9.2.0/ostream ****       else
 553:/usr/include/c++/9.2.0/ostream **** 	__ostream_insert(__out, __s,
 554:/usr/include/c++/9.2.0/ostream **** 			 static_cast<streamsize>(_Traits::length(__s)));
 555:/usr/include/c++/9.2.0/ostream ****       return __out;
 556:/usr/include/c++/9.2.0/ostream ****     }
 557:/usr/include/c++/9.2.0/ostream **** 
 558:/usr/include/c++/9.2.0/ostream ****   template<typename _CharT, typename _Traits>
 559:/usr/include/c++/9.2.0/ostream ****     basic_ostream<_CharT, _Traits> &
 560:/usr/include/c++/9.2.0/ostream ****     operator<<(basic_ostream<_CharT, _Traits>& __out, const char* __s);
 561:/usr/include/c++/9.2.0/ostream **** 
 562:/usr/include/c++/9.2.0/ostream ****   // Partial specializations
 563:/usr/include/c++/9.2.0/ostream ****   template<class _Traits>
 564:/usr/include/c++/9.2.0/ostream ****     inline basic_ostream<char, _Traits>&
 565:/usr/include/c++/9.2.0/ostream ****     operator<<(basic_ostream<char, _Traits>& __out, const char* __s)
 531              		.loc 3 565 5 view .LVU148
 532              		.loc 3 565 5 is_stmt 0 view .LVU149
 533              	.LBE29:
 534              		.file 4 "/usr/include/c++/9.2.0/bits/char_traits.h"
   1:/usr/include/c++/9.2.0/bits/char_traits.h **** // Character Traits for use by standard string and iostream -*- C++ -*-
   2:/usr/include/c++/9.2.0/bits/char_traits.h **** 
   3:/usr/include/c++/9.2.0/bits/char_traits.h **** // Copyright (C) 1997-2019 Free Software Foundation, Inc.
   4:/usr/include/c++/9.2.0/bits/char_traits.h **** //
   5:/usr/include/c++/9.2.0/bits/char_traits.h **** // This file is part of the GNU ISO C++ Library.  This library is free
   6:/usr/include/c++/9.2.0/bits/char_traits.h **** // software; you can redistribute it and/or modify it under the
   7:/usr/include/c++/9.2.0/bits/char_traits.h **** // terms of the GNU General Public License as published by the
   8:/usr/include/c++/9.2.0/bits/char_traits.h **** // Free Software Foundation; either version 3, or (at your option)
   9:/usr/include/c++/9.2.0/bits/char_traits.h **** // any later version.
  10:/usr/include/c++/9.2.0/bits/char_traits.h **** 
  11:/usr/include/c++/9.2.0/bits/char_traits.h **** // This library is distributed in the hope that it will be useful,
GAS LISTING /tmp/ccKCczpn.s 			page 30


  12:/usr/include/c++/9.2.0/bits/char_traits.h **** // but WITHOUT ANY WARRANTY; without even the implied warranty of
  13:/usr/include/c++/9.2.0/bits/char_traits.h **** // MERCHANTABILITY or FITNESS FOR A PARTICULAR PURPOSE.  See the
  14:/usr/include/c++/9.2.0/bits/char_traits.h **** // GNU General Public License for more details.
  15:/usr/include/c++/9.2.0/bits/char_traits.h **** 
  16:/usr/include/c++/9.2.0/bits/char_traits.h **** // Under Section 7 of GPL version 3, you are granted additional
  17:/usr/include/c++/9.2.0/bits/char_traits.h **** // permissions described in the GCC Runtime Library Exception, version
  18:/usr/include/c++/9.2.0/bits/char_traits.h **** // 3.1, as published by the Free Software Foundation.
  19:/usr/include/c++/9.2.0/bits/char_traits.h **** 
  20:/usr/include/c++/9.2.0/bits/char_traits.h **** // You should have received a copy of the GNU General Public License and
  21:/usr/include/c++/9.2.0/bits/char_traits.h **** // a copy of the GCC Runtime Library Exception along with this program;
  22:/usr/include/c++/9.2.0/bits/char_traits.h **** // see the files COPYING3 and COPYING.RUNTIME respectively.  If not, see
  23:/usr/include/c++/9.2.0/bits/char_traits.h **** // <http://www.gnu.org/licenses/>.
  24:/usr/include/c++/9.2.0/bits/char_traits.h **** 
  25:/usr/include/c++/9.2.0/bits/char_traits.h **** /** @file bits/char_traits.h
  26:/usr/include/c++/9.2.0/bits/char_traits.h ****  *  This is an internal header file, included by other library headers.
  27:/usr/include/c++/9.2.0/bits/char_traits.h ****  *  Do not attempt to use it directly. @headername{string}
  28:/usr/include/c++/9.2.0/bits/char_traits.h ****  */
  29:/usr/include/c++/9.2.0/bits/char_traits.h **** 
  30:/usr/include/c++/9.2.0/bits/char_traits.h **** //
  31:/usr/include/c++/9.2.0/bits/char_traits.h **** // ISO C++ 14882: 21  Strings library
  32:/usr/include/c++/9.2.0/bits/char_traits.h **** //
  33:/usr/include/c++/9.2.0/bits/char_traits.h **** 
  34:/usr/include/c++/9.2.0/bits/char_traits.h **** #ifndef _CHAR_TRAITS_H
  35:/usr/include/c++/9.2.0/bits/char_traits.h **** #define _CHAR_TRAITS_H 1
  36:/usr/include/c++/9.2.0/bits/char_traits.h **** 
  37:/usr/include/c++/9.2.0/bits/char_traits.h **** #pragma GCC system_header
  38:/usr/include/c++/9.2.0/bits/char_traits.h **** 
  39:/usr/include/c++/9.2.0/bits/char_traits.h **** #include <bits/stl_algobase.h>  // std::copy, std::fill_n
  40:/usr/include/c++/9.2.0/bits/char_traits.h **** #include <bits/postypes.h>      // For streampos
  41:/usr/include/c++/9.2.0/bits/char_traits.h **** #include <cwchar>               // For WEOF, wmemmove, wmemset, etc.
  42:/usr/include/c++/9.2.0/bits/char_traits.h **** 
  43:/usr/include/c++/9.2.0/bits/char_traits.h **** #ifndef _GLIBCXX_ALWAYS_INLINE
  44:/usr/include/c++/9.2.0/bits/char_traits.h **** # define _GLIBCXX_ALWAYS_INLINE inline __attribute__((__always_inline__))
  45:/usr/include/c++/9.2.0/bits/char_traits.h **** #endif
  46:/usr/include/c++/9.2.0/bits/char_traits.h **** 
  47:/usr/include/c++/9.2.0/bits/char_traits.h **** namespace __gnu_cxx _GLIBCXX_VISIBILITY(default)
  48:/usr/include/c++/9.2.0/bits/char_traits.h **** {
  49:/usr/include/c++/9.2.0/bits/char_traits.h **** _GLIBCXX_BEGIN_NAMESPACE_VERSION
  50:/usr/include/c++/9.2.0/bits/char_traits.h **** 
  51:/usr/include/c++/9.2.0/bits/char_traits.h ****   /**
  52:/usr/include/c++/9.2.0/bits/char_traits.h ****    *  @brief  Mapping from character type to associated types.
  53:/usr/include/c++/9.2.0/bits/char_traits.h ****    *
  54:/usr/include/c++/9.2.0/bits/char_traits.h ****    *  @note This is an implementation class for the generic version
  55:/usr/include/c++/9.2.0/bits/char_traits.h ****    *  of char_traits.  It defines int_type, off_type, pos_type, and
  56:/usr/include/c++/9.2.0/bits/char_traits.h ****    *  state_type.  By default these are unsigned long, streamoff,
  57:/usr/include/c++/9.2.0/bits/char_traits.h ****    *  streampos, and mbstate_t.  Users who need a different set of
  58:/usr/include/c++/9.2.0/bits/char_traits.h ****    *  types, but who don't need to change the definitions of any function
  59:/usr/include/c++/9.2.0/bits/char_traits.h ****    *  defined in char_traits, can specialize __gnu_cxx::_Char_types
  60:/usr/include/c++/9.2.0/bits/char_traits.h ****    *  while leaving __gnu_cxx::char_traits alone. */
  61:/usr/include/c++/9.2.0/bits/char_traits.h ****   template<typename _CharT>
  62:/usr/include/c++/9.2.0/bits/char_traits.h ****     struct _Char_types
  63:/usr/include/c++/9.2.0/bits/char_traits.h ****     {
  64:/usr/include/c++/9.2.0/bits/char_traits.h ****       typedef unsigned long   int_type;
  65:/usr/include/c++/9.2.0/bits/char_traits.h ****       typedef std::streampos  pos_type;
  66:/usr/include/c++/9.2.0/bits/char_traits.h ****       typedef std::streamoff  off_type;
  67:/usr/include/c++/9.2.0/bits/char_traits.h ****       typedef std::mbstate_t  state_type;
  68:/usr/include/c++/9.2.0/bits/char_traits.h ****     };
GAS LISTING /tmp/ccKCczpn.s 			page 31


  69:/usr/include/c++/9.2.0/bits/char_traits.h **** 
  70:/usr/include/c++/9.2.0/bits/char_traits.h **** 
  71:/usr/include/c++/9.2.0/bits/char_traits.h ****   /**
  72:/usr/include/c++/9.2.0/bits/char_traits.h ****    *  @brief  Base class used to implement std::char_traits.
  73:/usr/include/c++/9.2.0/bits/char_traits.h ****    *
  74:/usr/include/c++/9.2.0/bits/char_traits.h ****    *  @note For any given actual character type, this definition is
  75:/usr/include/c++/9.2.0/bits/char_traits.h ****    *  probably wrong.  (Most of the member functions are likely to be
  76:/usr/include/c++/9.2.0/bits/char_traits.h ****    *  right, but the int_type and state_type typedefs, and the eof()
  77:/usr/include/c++/9.2.0/bits/char_traits.h ****    *  member function, are likely to be wrong.)  The reason this class
  78:/usr/include/c++/9.2.0/bits/char_traits.h ****    *  exists is so users can specialize it.  Classes in namespace std
  79:/usr/include/c++/9.2.0/bits/char_traits.h ****    *  may not be specialized for fundamental types, but classes in
  80:/usr/include/c++/9.2.0/bits/char_traits.h ****    *  namespace __gnu_cxx may be.
  81:/usr/include/c++/9.2.0/bits/char_traits.h ****    *
  82:/usr/include/c++/9.2.0/bits/char_traits.h ****    *  See https://gcc.gnu.org/onlinedocs/libstdc++/manual/strings.html#strings.string.character_typ
  83:/usr/include/c++/9.2.0/bits/char_traits.h ****    *  for advice on how to make use of this class for @a unusual character
  84:/usr/include/c++/9.2.0/bits/char_traits.h ****    *  types. Also, check out include/ext/pod_char_traits.h.  
  85:/usr/include/c++/9.2.0/bits/char_traits.h ****    */
  86:/usr/include/c++/9.2.0/bits/char_traits.h ****   template<typename _CharT>
  87:/usr/include/c++/9.2.0/bits/char_traits.h ****     struct char_traits
  88:/usr/include/c++/9.2.0/bits/char_traits.h ****     {
  89:/usr/include/c++/9.2.0/bits/char_traits.h ****       typedef _CharT                                    char_type;
  90:/usr/include/c++/9.2.0/bits/char_traits.h ****       typedef typename _Char_types<_CharT>::int_type    int_type;
  91:/usr/include/c++/9.2.0/bits/char_traits.h ****       typedef typename _Char_types<_CharT>::pos_type    pos_type;
  92:/usr/include/c++/9.2.0/bits/char_traits.h ****       typedef typename _Char_types<_CharT>::off_type    off_type;
  93:/usr/include/c++/9.2.0/bits/char_traits.h ****       typedef typename _Char_types<_CharT>::state_type  state_type;
  94:/usr/include/c++/9.2.0/bits/char_traits.h **** 
  95:/usr/include/c++/9.2.0/bits/char_traits.h ****       static _GLIBCXX14_CONSTEXPR void
  96:/usr/include/c++/9.2.0/bits/char_traits.h ****       assign(char_type& __c1, const char_type& __c2)
  97:/usr/include/c++/9.2.0/bits/char_traits.h ****       { __c1 = __c2; }
  98:/usr/include/c++/9.2.0/bits/char_traits.h **** 
  99:/usr/include/c++/9.2.0/bits/char_traits.h ****       static _GLIBCXX_CONSTEXPR bool
 100:/usr/include/c++/9.2.0/bits/char_traits.h ****       eq(const char_type& __c1, const char_type& __c2)
 101:/usr/include/c++/9.2.0/bits/char_traits.h ****       { return __c1 == __c2; }
 102:/usr/include/c++/9.2.0/bits/char_traits.h **** 
 103:/usr/include/c++/9.2.0/bits/char_traits.h ****       static _GLIBCXX_CONSTEXPR bool
 104:/usr/include/c++/9.2.0/bits/char_traits.h ****       lt(const char_type& __c1, const char_type& __c2)
 105:/usr/include/c++/9.2.0/bits/char_traits.h ****       { return __c1 < __c2; }
 106:/usr/include/c++/9.2.0/bits/char_traits.h **** 
 107:/usr/include/c++/9.2.0/bits/char_traits.h ****       static _GLIBCXX14_CONSTEXPR int
 108:/usr/include/c++/9.2.0/bits/char_traits.h ****       compare(const char_type* __s1, const char_type* __s2, std::size_t __n);
 109:/usr/include/c++/9.2.0/bits/char_traits.h **** 
 110:/usr/include/c++/9.2.0/bits/char_traits.h ****       static _GLIBCXX14_CONSTEXPR std::size_t
 111:/usr/include/c++/9.2.0/bits/char_traits.h ****       length(const char_type* __s);
 112:/usr/include/c++/9.2.0/bits/char_traits.h **** 
 113:/usr/include/c++/9.2.0/bits/char_traits.h ****       static _GLIBCXX14_CONSTEXPR const char_type*
 114:/usr/include/c++/9.2.0/bits/char_traits.h ****       find(const char_type* __s, std::size_t __n, const char_type& __a);
 115:/usr/include/c++/9.2.0/bits/char_traits.h **** 
 116:/usr/include/c++/9.2.0/bits/char_traits.h ****       static char_type*
 117:/usr/include/c++/9.2.0/bits/char_traits.h ****       move(char_type* __s1, const char_type* __s2, std::size_t __n);
 118:/usr/include/c++/9.2.0/bits/char_traits.h **** 
 119:/usr/include/c++/9.2.0/bits/char_traits.h ****       static char_type*
 120:/usr/include/c++/9.2.0/bits/char_traits.h ****       copy(char_type* __s1, const char_type* __s2, std::size_t __n);
 121:/usr/include/c++/9.2.0/bits/char_traits.h **** 
 122:/usr/include/c++/9.2.0/bits/char_traits.h ****       static char_type*
 123:/usr/include/c++/9.2.0/bits/char_traits.h ****       assign(char_type* __s, std::size_t __n, char_type __a);
 124:/usr/include/c++/9.2.0/bits/char_traits.h **** 
 125:/usr/include/c++/9.2.0/bits/char_traits.h ****       static _GLIBCXX_CONSTEXPR char_type
GAS LISTING /tmp/ccKCczpn.s 			page 32


 126:/usr/include/c++/9.2.0/bits/char_traits.h ****       to_char_type(const int_type& __c)
 127:/usr/include/c++/9.2.0/bits/char_traits.h ****       { return static_cast<char_type>(__c); }
 128:/usr/include/c++/9.2.0/bits/char_traits.h **** 
 129:/usr/include/c++/9.2.0/bits/char_traits.h ****       static _GLIBCXX_CONSTEXPR int_type
 130:/usr/include/c++/9.2.0/bits/char_traits.h ****       to_int_type(const char_type& __c)
 131:/usr/include/c++/9.2.0/bits/char_traits.h ****       { return static_cast<int_type>(__c); }
 132:/usr/include/c++/9.2.0/bits/char_traits.h **** 
 133:/usr/include/c++/9.2.0/bits/char_traits.h ****       static _GLIBCXX_CONSTEXPR bool
 134:/usr/include/c++/9.2.0/bits/char_traits.h ****       eq_int_type(const int_type& __c1, const int_type& __c2)
 135:/usr/include/c++/9.2.0/bits/char_traits.h ****       { return __c1 == __c2; }
 136:/usr/include/c++/9.2.0/bits/char_traits.h **** 
 137:/usr/include/c++/9.2.0/bits/char_traits.h ****       static _GLIBCXX_CONSTEXPR int_type
 138:/usr/include/c++/9.2.0/bits/char_traits.h ****       eof()
 139:/usr/include/c++/9.2.0/bits/char_traits.h ****       { return static_cast<int_type>(_GLIBCXX_STDIO_EOF); }
 140:/usr/include/c++/9.2.0/bits/char_traits.h **** 
 141:/usr/include/c++/9.2.0/bits/char_traits.h ****       static _GLIBCXX_CONSTEXPR int_type
 142:/usr/include/c++/9.2.0/bits/char_traits.h ****       not_eof(const int_type& __c)
 143:/usr/include/c++/9.2.0/bits/char_traits.h ****       { return !eq_int_type(__c, eof()) ? __c : to_int_type(char_type()); }
 144:/usr/include/c++/9.2.0/bits/char_traits.h ****     };
 145:/usr/include/c++/9.2.0/bits/char_traits.h **** 
 146:/usr/include/c++/9.2.0/bits/char_traits.h ****   template<typename _CharT>
 147:/usr/include/c++/9.2.0/bits/char_traits.h ****     _GLIBCXX14_CONSTEXPR int
 148:/usr/include/c++/9.2.0/bits/char_traits.h ****     char_traits<_CharT>::
 149:/usr/include/c++/9.2.0/bits/char_traits.h ****     compare(const char_type* __s1, const char_type* __s2, std::size_t __n)
 150:/usr/include/c++/9.2.0/bits/char_traits.h ****     {
 151:/usr/include/c++/9.2.0/bits/char_traits.h ****       for (std::size_t __i = 0; __i < __n; ++__i)
 152:/usr/include/c++/9.2.0/bits/char_traits.h **** 	if (lt(__s1[__i], __s2[__i]))
 153:/usr/include/c++/9.2.0/bits/char_traits.h **** 	  return -1;
 154:/usr/include/c++/9.2.0/bits/char_traits.h **** 	else if (lt(__s2[__i], __s1[__i]))
 155:/usr/include/c++/9.2.0/bits/char_traits.h **** 	  return 1;
 156:/usr/include/c++/9.2.0/bits/char_traits.h ****       return 0;
 157:/usr/include/c++/9.2.0/bits/char_traits.h ****     }
 158:/usr/include/c++/9.2.0/bits/char_traits.h **** 
 159:/usr/include/c++/9.2.0/bits/char_traits.h ****   template<typename _CharT>
 160:/usr/include/c++/9.2.0/bits/char_traits.h ****     _GLIBCXX14_CONSTEXPR std::size_t
 161:/usr/include/c++/9.2.0/bits/char_traits.h ****     char_traits<_CharT>::
 162:/usr/include/c++/9.2.0/bits/char_traits.h ****     length(const char_type* __p)
 163:/usr/include/c++/9.2.0/bits/char_traits.h ****     {
 164:/usr/include/c++/9.2.0/bits/char_traits.h ****       std::size_t __i = 0;
 165:/usr/include/c++/9.2.0/bits/char_traits.h ****       while (!eq(__p[__i], char_type()))
 166:/usr/include/c++/9.2.0/bits/char_traits.h ****         ++__i;
 167:/usr/include/c++/9.2.0/bits/char_traits.h ****       return __i;
 168:/usr/include/c++/9.2.0/bits/char_traits.h ****     }
 169:/usr/include/c++/9.2.0/bits/char_traits.h **** 
 170:/usr/include/c++/9.2.0/bits/char_traits.h ****   template<typename _CharT>
 171:/usr/include/c++/9.2.0/bits/char_traits.h ****     _GLIBCXX14_CONSTEXPR const typename char_traits<_CharT>::char_type*
 172:/usr/include/c++/9.2.0/bits/char_traits.h ****     char_traits<_CharT>::
 173:/usr/include/c++/9.2.0/bits/char_traits.h ****     find(const char_type* __s, std::size_t __n, const char_type& __a)
 174:/usr/include/c++/9.2.0/bits/char_traits.h ****     {
 175:/usr/include/c++/9.2.0/bits/char_traits.h ****       for (std::size_t __i = 0; __i < __n; ++__i)
 176:/usr/include/c++/9.2.0/bits/char_traits.h ****         if (eq(__s[__i], __a))
 177:/usr/include/c++/9.2.0/bits/char_traits.h ****           return __s + __i;
 178:/usr/include/c++/9.2.0/bits/char_traits.h ****       return 0;
 179:/usr/include/c++/9.2.0/bits/char_traits.h ****     }
 180:/usr/include/c++/9.2.0/bits/char_traits.h **** 
 181:/usr/include/c++/9.2.0/bits/char_traits.h ****   template<typename _CharT>
 182:/usr/include/c++/9.2.0/bits/char_traits.h ****     typename char_traits<_CharT>::char_type*
GAS LISTING /tmp/ccKCczpn.s 			page 33


 183:/usr/include/c++/9.2.0/bits/char_traits.h ****     char_traits<_CharT>::
 184:/usr/include/c++/9.2.0/bits/char_traits.h ****     move(char_type* __s1, const char_type* __s2, std::size_t __n)
 185:/usr/include/c++/9.2.0/bits/char_traits.h ****     {
 186:/usr/include/c++/9.2.0/bits/char_traits.h ****       if (__n == 0)
 187:/usr/include/c++/9.2.0/bits/char_traits.h **** 	return __s1;
 188:/usr/include/c++/9.2.0/bits/char_traits.h ****       return static_cast<_CharT*>(__builtin_memmove(__s1, __s2,
 189:/usr/include/c++/9.2.0/bits/char_traits.h **** 						    __n * sizeof(char_type)));
 190:/usr/include/c++/9.2.0/bits/char_traits.h ****     }
 191:/usr/include/c++/9.2.0/bits/char_traits.h **** 
 192:/usr/include/c++/9.2.0/bits/char_traits.h ****   template<typename _CharT>
 193:/usr/include/c++/9.2.0/bits/char_traits.h ****     typename char_traits<_CharT>::char_type*
 194:/usr/include/c++/9.2.0/bits/char_traits.h ****     char_traits<_CharT>::
 195:/usr/include/c++/9.2.0/bits/char_traits.h ****     copy(char_type* __s1, const char_type* __s2, std::size_t __n)
 196:/usr/include/c++/9.2.0/bits/char_traits.h ****     {
 197:/usr/include/c++/9.2.0/bits/char_traits.h ****       // NB: Inline std::copy so no recursive dependencies.
 198:/usr/include/c++/9.2.0/bits/char_traits.h ****       std::copy(__s2, __s2 + __n, __s1);
 199:/usr/include/c++/9.2.0/bits/char_traits.h ****       return __s1;
 200:/usr/include/c++/9.2.0/bits/char_traits.h ****     }
 201:/usr/include/c++/9.2.0/bits/char_traits.h **** 
 202:/usr/include/c++/9.2.0/bits/char_traits.h ****   template<typename _CharT>
 203:/usr/include/c++/9.2.0/bits/char_traits.h ****     typename char_traits<_CharT>::char_type*
 204:/usr/include/c++/9.2.0/bits/char_traits.h ****     char_traits<_CharT>::
 205:/usr/include/c++/9.2.0/bits/char_traits.h ****     assign(char_type* __s, std::size_t __n, char_type __a)
 206:/usr/include/c++/9.2.0/bits/char_traits.h ****     {
 207:/usr/include/c++/9.2.0/bits/char_traits.h ****       // NB: Inline std::fill_n so no recursive dependencies.
 208:/usr/include/c++/9.2.0/bits/char_traits.h ****       std::fill_n(__s, __n, __a);
 209:/usr/include/c++/9.2.0/bits/char_traits.h ****       return __s;
 210:/usr/include/c++/9.2.0/bits/char_traits.h ****     }
 211:/usr/include/c++/9.2.0/bits/char_traits.h **** 
 212:/usr/include/c++/9.2.0/bits/char_traits.h **** _GLIBCXX_END_NAMESPACE_VERSION
 213:/usr/include/c++/9.2.0/bits/char_traits.h **** } // namespace
 214:/usr/include/c++/9.2.0/bits/char_traits.h **** 
 215:/usr/include/c++/9.2.0/bits/char_traits.h **** namespace std _GLIBCXX_VISIBILITY(default)
 216:/usr/include/c++/9.2.0/bits/char_traits.h **** {
 217:/usr/include/c++/9.2.0/bits/char_traits.h **** _GLIBCXX_BEGIN_NAMESPACE_VERSION
 218:/usr/include/c++/9.2.0/bits/char_traits.h **** 
 219:/usr/include/c++/9.2.0/bits/char_traits.h **** #if __cplusplus >= 201703L
 220:/usr/include/c++/9.2.0/bits/char_traits.h **** #define __cpp_lib_constexpr_char_traits 201611
 221:/usr/include/c++/9.2.0/bits/char_traits.h **** 
 222:/usr/include/c++/9.2.0/bits/char_traits.h ****   /**
 223:/usr/include/c++/9.2.0/bits/char_traits.h ****    *  @brief Determine whether the characters of a NULL-terminated
 224:/usr/include/c++/9.2.0/bits/char_traits.h ****    *  string are known at compile time.
 225:/usr/include/c++/9.2.0/bits/char_traits.h ****    *  @param  __s  The string.
 226:/usr/include/c++/9.2.0/bits/char_traits.h ****    *
 227:/usr/include/c++/9.2.0/bits/char_traits.h ****    *  Assumes that _CharT is a built-in character type.
 228:/usr/include/c++/9.2.0/bits/char_traits.h ****    */
 229:/usr/include/c++/9.2.0/bits/char_traits.h ****   template<typename _CharT>
 230:/usr/include/c++/9.2.0/bits/char_traits.h ****     static _GLIBCXX_ALWAYS_INLINE constexpr bool
 231:/usr/include/c++/9.2.0/bits/char_traits.h ****     __constant_string_p(const _CharT* __s)
 232:/usr/include/c++/9.2.0/bits/char_traits.h ****     {
 233:/usr/include/c++/9.2.0/bits/char_traits.h **** #ifdef _GLIBCXX_HAVE_BUILTIN_IS_CONSTANT_EVALUATED
 234:/usr/include/c++/9.2.0/bits/char_traits.h ****       (void) __s;
 235:/usr/include/c++/9.2.0/bits/char_traits.h ****       // In constexpr contexts all strings should be constant.
 236:/usr/include/c++/9.2.0/bits/char_traits.h ****       return __builtin_is_constant_evaluated();
 237:/usr/include/c++/9.2.0/bits/char_traits.h **** #else
 238:/usr/include/c++/9.2.0/bits/char_traits.h ****       while (__builtin_constant_p(*__s) && *__s)
 239:/usr/include/c++/9.2.0/bits/char_traits.h **** 	__s++;
GAS LISTING /tmp/ccKCczpn.s 			page 34


 240:/usr/include/c++/9.2.0/bits/char_traits.h ****       return __builtin_constant_p(*__s);
 241:/usr/include/c++/9.2.0/bits/char_traits.h **** #endif
 242:/usr/include/c++/9.2.0/bits/char_traits.h ****     }
 243:/usr/include/c++/9.2.0/bits/char_traits.h **** 
 244:/usr/include/c++/9.2.0/bits/char_traits.h ****   /**
 245:/usr/include/c++/9.2.0/bits/char_traits.h ****    *  @brief Determine whether the characters of a character array are
 246:/usr/include/c++/9.2.0/bits/char_traits.h ****    *  known at compile time.
 247:/usr/include/c++/9.2.0/bits/char_traits.h ****    *  @param  __a  The character array.
 248:/usr/include/c++/9.2.0/bits/char_traits.h ****    *  @param  __n  Number of characters.
 249:/usr/include/c++/9.2.0/bits/char_traits.h ****    *
 250:/usr/include/c++/9.2.0/bits/char_traits.h ****    *  Assumes that _CharT is a built-in character type.
 251:/usr/include/c++/9.2.0/bits/char_traits.h ****    */
 252:/usr/include/c++/9.2.0/bits/char_traits.h ****   template<typename _CharT>
 253:/usr/include/c++/9.2.0/bits/char_traits.h ****     static _GLIBCXX_ALWAYS_INLINE constexpr bool
 254:/usr/include/c++/9.2.0/bits/char_traits.h ****     __constant_char_array_p(const _CharT* __a, size_t __n)
 255:/usr/include/c++/9.2.0/bits/char_traits.h ****     {
 256:/usr/include/c++/9.2.0/bits/char_traits.h **** #ifdef _GLIBCXX_HAVE_BUILTIN_IS_CONSTANT_EVALUATED
 257:/usr/include/c++/9.2.0/bits/char_traits.h ****       (void) __a;
 258:/usr/include/c++/9.2.0/bits/char_traits.h ****       (void) __n;
 259:/usr/include/c++/9.2.0/bits/char_traits.h ****       // In constexpr contexts all character arrays should be constant.
 260:/usr/include/c++/9.2.0/bits/char_traits.h ****       return __builtin_is_constant_evaluated();
 261:/usr/include/c++/9.2.0/bits/char_traits.h **** #else
 262:/usr/include/c++/9.2.0/bits/char_traits.h ****       size_t __i = 0;
 263:/usr/include/c++/9.2.0/bits/char_traits.h ****       while (__i < __n && __builtin_constant_p(__a[__i]))
 264:/usr/include/c++/9.2.0/bits/char_traits.h **** 	__i++;
 265:/usr/include/c++/9.2.0/bits/char_traits.h ****       return __i == __n;
 266:/usr/include/c++/9.2.0/bits/char_traits.h **** #endif
 267:/usr/include/c++/9.2.0/bits/char_traits.h ****     }
 268:/usr/include/c++/9.2.0/bits/char_traits.h **** #endif
 269:/usr/include/c++/9.2.0/bits/char_traits.h **** 
 270:/usr/include/c++/9.2.0/bits/char_traits.h ****   // 21.1
 271:/usr/include/c++/9.2.0/bits/char_traits.h ****   /**
 272:/usr/include/c++/9.2.0/bits/char_traits.h ****    *  @brief  Basis for explicit traits specializations.
 273:/usr/include/c++/9.2.0/bits/char_traits.h ****    *
 274:/usr/include/c++/9.2.0/bits/char_traits.h ****    *  @note  For any given actual character type, this definition is
 275:/usr/include/c++/9.2.0/bits/char_traits.h ****    *  probably wrong.  Since this is just a thin wrapper around
 276:/usr/include/c++/9.2.0/bits/char_traits.h ****    *  __gnu_cxx::char_traits, it is possible to achieve a more
 277:/usr/include/c++/9.2.0/bits/char_traits.h ****    *  appropriate definition by specializing __gnu_cxx::char_traits.
 278:/usr/include/c++/9.2.0/bits/char_traits.h ****    *
 279:/usr/include/c++/9.2.0/bits/char_traits.h ****    *  See https://gcc.gnu.org/onlinedocs/libstdc++/manual/strings.html#strings.string.character_typ
 280:/usr/include/c++/9.2.0/bits/char_traits.h ****    *  for advice on how to make use of this class for @a unusual character
 281:/usr/include/c++/9.2.0/bits/char_traits.h ****    *  types. Also, check out include/ext/pod_char_traits.h.
 282:/usr/include/c++/9.2.0/bits/char_traits.h ****   */
 283:/usr/include/c++/9.2.0/bits/char_traits.h ****   template<class _CharT>
 284:/usr/include/c++/9.2.0/bits/char_traits.h ****     struct char_traits : public __gnu_cxx::char_traits<_CharT>
 285:/usr/include/c++/9.2.0/bits/char_traits.h ****     { };
 286:/usr/include/c++/9.2.0/bits/char_traits.h **** 
 287:/usr/include/c++/9.2.0/bits/char_traits.h **** 
 288:/usr/include/c++/9.2.0/bits/char_traits.h ****   /// 21.1.3.1  char_traits specializations
 289:/usr/include/c++/9.2.0/bits/char_traits.h ****   template<>
 290:/usr/include/c++/9.2.0/bits/char_traits.h ****     struct char_traits<char>
 291:/usr/include/c++/9.2.0/bits/char_traits.h ****     {
 292:/usr/include/c++/9.2.0/bits/char_traits.h ****       typedef char              char_type;
 293:/usr/include/c++/9.2.0/bits/char_traits.h ****       typedef int               int_type;
 294:/usr/include/c++/9.2.0/bits/char_traits.h ****       typedef streampos         pos_type;
 295:/usr/include/c++/9.2.0/bits/char_traits.h ****       typedef streamoff         off_type;
 296:/usr/include/c++/9.2.0/bits/char_traits.h ****       typedef mbstate_t         state_type;
GAS LISTING /tmp/ccKCczpn.s 			page 35


 297:/usr/include/c++/9.2.0/bits/char_traits.h **** 
 298:/usr/include/c++/9.2.0/bits/char_traits.h ****       static _GLIBCXX17_CONSTEXPR void
 299:/usr/include/c++/9.2.0/bits/char_traits.h ****       assign(char_type& __c1, const char_type& __c2) _GLIBCXX_NOEXCEPT
 300:/usr/include/c++/9.2.0/bits/char_traits.h ****       { __c1 = __c2; }
 301:/usr/include/c++/9.2.0/bits/char_traits.h **** 
 302:/usr/include/c++/9.2.0/bits/char_traits.h ****       static _GLIBCXX_CONSTEXPR bool
 303:/usr/include/c++/9.2.0/bits/char_traits.h ****       eq(const char_type& __c1, const char_type& __c2) _GLIBCXX_NOEXCEPT
 304:/usr/include/c++/9.2.0/bits/char_traits.h ****       { return __c1 == __c2; }
 305:/usr/include/c++/9.2.0/bits/char_traits.h **** 
 306:/usr/include/c++/9.2.0/bits/char_traits.h ****       static _GLIBCXX_CONSTEXPR bool
 307:/usr/include/c++/9.2.0/bits/char_traits.h ****       lt(const char_type& __c1, const char_type& __c2) _GLIBCXX_NOEXCEPT
 308:/usr/include/c++/9.2.0/bits/char_traits.h ****       {
 309:/usr/include/c++/9.2.0/bits/char_traits.h **** 	// LWG 467.
 310:/usr/include/c++/9.2.0/bits/char_traits.h **** 	return (static_cast<unsigned char>(__c1)
 311:/usr/include/c++/9.2.0/bits/char_traits.h **** 		< static_cast<unsigned char>(__c2));
 312:/usr/include/c++/9.2.0/bits/char_traits.h ****       }
 313:/usr/include/c++/9.2.0/bits/char_traits.h **** 
 314:/usr/include/c++/9.2.0/bits/char_traits.h ****       static _GLIBCXX17_CONSTEXPR int
 315:/usr/include/c++/9.2.0/bits/char_traits.h ****       compare(const char_type* __s1, const char_type* __s2, size_t __n)
 316:/usr/include/c++/9.2.0/bits/char_traits.h ****       {
 317:/usr/include/c++/9.2.0/bits/char_traits.h **** 	if (__n == 0)
 318:/usr/include/c++/9.2.0/bits/char_traits.h **** 	  return 0;
 319:/usr/include/c++/9.2.0/bits/char_traits.h **** #if __cplusplus >= 201703L
 320:/usr/include/c++/9.2.0/bits/char_traits.h **** 	if (__builtin_constant_p(__n)
 321:/usr/include/c++/9.2.0/bits/char_traits.h **** 	    && __constant_char_array_p(__s1, __n)
 322:/usr/include/c++/9.2.0/bits/char_traits.h **** 	    && __constant_char_array_p(__s2, __n))
 323:/usr/include/c++/9.2.0/bits/char_traits.h **** 	  return __gnu_cxx::char_traits<char_type>::compare(__s1, __s2, __n);
 324:/usr/include/c++/9.2.0/bits/char_traits.h **** #endif
 325:/usr/include/c++/9.2.0/bits/char_traits.h **** 	return __builtin_memcmp(__s1, __s2, __n);
 326:/usr/include/c++/9.2.0/bits/char_traits.h ****       }
 327:/usr/include/c++/9.2.0/bits/char_traits.h **** 
 328:/usr/include/c++/9.2.0/bits/char_traits.h ****       static _GLIBCXX17_CONSTEXPR size_t
 329:/usr/include/c++/9.2.0/bits/char_traits.h ****       length(const char_type* __s)
 330:/usr/include/c++/9.2.0/bits/char_traits.h ****       {
 331:/usr/include/c++/9.2.0/bits/char_traits.h **** #if __cplusplus >= 201703L
 332:/usr/include/c++/9.2.0/bits/char_traits.h **** 	if (__constant_string_p(__s))
 333:/usr/include/c++/9.2.0/bits/char_traits.h **** 	  return __gnu_cxx::char_traits<char_type>::length(__s);
 334:/usr/include/c++/9.2.0/bits/char_traits.h **** #endif
 335:/usr/include/c++/9.2.0/bits/char_traits.h **** 	return __builtin_strlen(__s);
 535              		.loc 4 335 2 is_stmt 1 view .LVU150
 536              	.LBB31:
 537              	.LBB30:
 566:/usr/include/c++/9.2.0/ostream ****     {
 567:/usr/include/c++/9.2.0/ostream ****       if (!__s)
 568:/usr/include/c++/9.2.0/ostream **** 	__out.setstate(ios_base::badbit);
 569:/usr/include/c++/9.2.0/ostream ****       else
 570:/usr/include/c++/9.2.0/ostream **** 	__ostream_insert(__out, __s,
 538              		.loc 3 570 18 is_stmt 0 view .LVU151
 539 01e7 BA110000 		movl	$17, %edx
 539      00
 540 01ec 488D3500 		leaq	.LC0(%rip), %rsi
 540      000000
 541 01f3 488D3D00 		leaq	_ZSt4cerr(%rip), %rdi
 541      000000
 542 01fa E8000000 		call	_ZSt16__ostream_insertIcSt11char_traitsIcEERSt13basic_ostreamIT_T0_ES6_PKS3_l@PLT
 542      00
 543              	.LVL56:
GAS LISTING /tmp/ccKCczpn.s 			page 36


 571:/usr/include/c++/9.2.0/ostream **** 			 static_cast<streamsize>(_Traits::length(__s)));
 572:/usr/include/c++/9.2.0/ostream ****       return __out;
 544              		.loc 3 572 14 view .LVU152
 545 01ff EB05     		jmp	.L36
 546              	.LVL57:
 547              	.L39:
 548              		.loc 3 572 14 view .LVU153
 549              	.LBE30:
 550              	.LBE31:
  89:Src/translator.cpp **** 
 551              		.loc 1 89 20 view .LVU154
 552 0201 BD650000 		movl	$101, %ebp
 552      00
 553              	.LVL58:
 554              	.L36:
 104:Src/translator.cpp **** 
 555              		.loc 1 104 5 view .LVU155
 556 0206 89E8     		movl	%ebp, %eax
 557 0208 4883C408 		addq	$8, %rsp
 558              		.cfi_remember_state
 559              		.cfi_def_cfa_offset 40
 560 020c 5B       		popq	%rbx
 561              		.cfi_def_cfa_offset 32
 562              	.LVL59:
 104:Src/translator.cpp **** 
 563              		.loc 1 104 5 view .LVU156
 564 020d 5D       		popq	%rbp
 565              		.cfi_def_cfa_offset 24
 566 020e 415C     		popq	%r12
 567              		.cfi_def_cfa_offset 16
 568              	.LVL60:
 104:Src/translator.cpp **** 
 569              		.loc 1 104 5 view .LVU157
 570 0210 415D     		popq	%r13
 571              		.cfi_def_cfa_offset 8
 572 0212 C3       		ret
 573              	.LVL61:
 574              	.L41:
 575              		.cfi_restore_state
  97:Src/translator.cpp **** 
 576              		.loc 1 97 20 view .LVU158
 577 0213 BD660000 		movl	$102, %ebp
 577      00
 578              	.LVL62:
  97:Src/translator.cpp **** 
 579              		.loc 1 97 20 view .LVU159
 580 0218 EBEC     		jmp	.L36
 581              		.cfi_endproc
 582              	.LFE1507:
 584              		.globl	_ZN10translator8parseCmdEPh
 586              	_ZN10translator8parseCmdEPh:
 587              	.LVL63:
 588              	.LFB1508:
 107:Src/translator.cpp ****         uint8_t var = getType(package);
 589              		.loc 1 107 5 is_stmt 1 view -0
 590              		.cfi_startproc
 107:Src/translator.cpp ****         uint8_t var = getType(package);
GAS LISTING /tmp/ccKCczpn.s 			page 37


 591              		.loc 1 107 5 is_stmt 0 view .LVU161
 592 021a 55       		pushq	%rbp
 593              		.cfi_def_cfa_offset 16
 594              		.cfi_offset 6, -16
 595 021b 53       		pushq	%rbx
 596              		.cfi_def_cfa_offset 24
 597              		.cfi_offset 3, -24
 598 021c 4889FB   		movq	%rdi, %rbx
 108:Src/translator.cpp ****         if(var != TYPE_CMD)
 599              		.loc 1 108 9 is_stmt 1 view .LVU162
 108:Src/translator.cpp ****         if(var != TYPE_CMD)
 600              		.loc 1 108 30 is_stmt 0 view .LVU163
 601 021f E8000000 		call	_ZN10translator7getTypeEPKh
 601      00
 602              	.LVL64:
 109:Src/translator.cpp ****             return ~0;
 603              		.loc 1 109 9 is_stmt 1 view .LVU164
 604 0224 3C01     		cmpb	$1, %al
 605 0226 7532     		jne	.L46
 112:Src/translator.cpp ****         if(var != 1)
 606              		.loc 1 112 9 view .LVU165
 112:Src/translator.cpp ****         if(var != 1)
 607              		.loc 1 112 21 is_stmt 0 view .LVU166
 608 0228 4889DF   		movq	%rbx, %rdi
 609 022b E8000000 		call	_ZN10translator6getLenEPKh
 609      00
 610              	.LVL65:
 113:Src/translator.cpp ****             return ~0;
 611              		.loc 1 113 9 is_stmt 1 view .LVU167
 612 0230 3C01     		cmpb	$1, %al
 613 0232 7409     		je	.L50
 114:Src/translator.cpp **** 
 614              		.loc 1 114 21 is_stmt 0 view .LVU168
 615 0234 48C7C0FF 		movq	$-1, %rax
 615      FFFFFF
 616              	.LVL66:
 114:Src/translator.cpp **** 
 617              		.loc 1 114 21 view .LVU169
 618 023b EB24     		jmp	.L44
 619              	.LVL67:
 620              	.L50:
 116:Src/translator.cpp ****         if(check != getCheckSum(package))
 621              		.loc 1 116 9 is_stmt 1 view .LVU170
 116:Src/translator.cpp ****         if(check != getCheckSum(package))
 622              		.loc 1 116 39 is_stmt 0 view .LVU171
 623 023d 4889DF   		movq	%rbx, %rdi
 624 0240 E8000000 		call	_ZN10translator11genCheckSumEPKh
 624      00
 625              	.LVL68:
 116:Src/translator.cpp ****         if(check != getCheckSum(package))
 626              		.loc 1 116 39 view .LVU172
 627 0245 89C5     		movl	%eax, %ebp
 628              	.LVL69:
 117:Src/translator.cpp ****             return ~0;
 629              		.loc 1 117 9 is_stmt 1 view .LVU173
 117:Src/translator.cpp ****             return ~0;
 630              		.loc 1 117 32 is_stmt 0 view .LVU174
GAS LISTING /tmp/ccKCczpn.s 			page 38


 631 0247 4889DF   		movq	%rbx, %rdi
 632 024a E8000000 		call	_ZN10translator11getCheckSumEPKh
 632      00
 633              	.LVL70:
 117:Src/translator.cpp ****             return ~0;
 634              		.loc 1 117 9 view .LVU175
 635 024f 6639E8   		cmpw	%bp, %ax
 636 0252 7510     		jne	.L48
 119:Src/translator.cpp ****     }
 637              		.loc 1 119 9 is_stmt 1 view .LVU176
 119:Src/translator.cpp ****     }
 638              		.loc 1 119 31 is_stmt 0 view .LVU177
 639 0254 0FB64304 		movzbl	4(%rbx), %eax
 640 0258 EB07     		jmp	.L44
 641              	.LVL71:
 642              	.L46:
 110:Src/translator.cpp **** 
 643              		.loc 1 110 21 view .LVU178
 644 025a 48C7C0FF 		movq	$-1, %rax
 644      FFFFFF
 645              	.LVL72:
 646              	.L44:
 120:Src/translator.cpp **** 
 647              		.loc 1 120 5 view .LVU179
 648 0261 5B       		popq	%rbx
 649              		.cfi_remember_state
 650              		.cfi_def_cfa_offset 16
 651              	.LVL73:
 120:Src/translator.cpp **** 
 652              		.loc 1 120 5 view .LVU180
 653 0262 5D       		popq	%rbp
 654              		.cfi_def_cfa_offset 8
 655 0263 C3       		ret
 656              	.LVL74:
 657              	.L48:
 658              		.cfi_restore_state
 118:Src/translator.cpp ****         return package[SYS_LEN];
 659              		.loc 1 118 21 view .LVU181
 660 0264 48C7C0FF 		movq	$-1, %rax
 660      FFFFFF
 661 026b EBF4     		jmp	.L44
 662              		.cfi_endproc
 663              	.LFE1508:
 665              		.globl	_ZN10translator11generateCmdEhPh
 667              	_ZN10translator11generateCmdEhPh:
 668              	.LVL75:
 669              	.LFB1513:
 157:Src/translator.cpp ****         tgt[0] = getZeroByte(TYPE_CMD, 1);
 670              		.loc 1 157 5 is_stmt 1 view -0
 671              		.cfi_startproc
 157:Src/translator.cpp ****         tgt[0] = getZeroByte(TYPE_CMD, 1);
 672              		.loc 1 157 5 is_stmt 0 view .LVU183
 673 026d 55       		pushq	%rbp
 674              		.cfi_def_cfa_offset 16
 675              		.cfi_offset 6, -16
 676 026e 53       		pushq	%rbx
 677              		.cfi_def_cfa_offset 24
GAS LISTING /tmp/ccKCczpn.s 			page 39


 678              		.cfi_offset 3, -24
 679 026f 89FD     		movl	%edi, %ebp
 680 0271 4889F3   		movq	%rsi, %rbx
 158:Src/translator.cpp ****         #ifdef USE_MULTIDEVICE
 681              		.loc 1 158 9 is_stmt 1 view .LVU184
 158:Src/translator.cpp ****         #ifdef USE_MULTIDEVICE
 682              		.loc 1 158 29 is_stmt 0 view .LVU185
 683 0274 BE010000 		movl	$1, %esi
 683      00
 684              	.LVL76:
 158:Src/translator.cpp ****         #ifdef USE_MULTIDEVICE
 685              		.loc 1 158 29 view .LVU186
 686 0279 BF010000 		movl	$1, %edi
 686      00
 687              	.LVL77:
 158:Src/translator.cpp ****         #ifdef USE_MULTIDEVICE
 688              		.loc 1 158 29 view .LVU187
 689 027e E8000000 		call	_ZN10translator11getZeroByteEhh
 689      00
 690              	.LVL78:
 158:Src/translator.cpp ****         #ifdef USE_MULTIDEVICE
 691              		.loc 1 158 16 view .LVU188
 692 0283 8803     		movb	%al, (%rbx)
 160:Src/translator.cpp ****         #endif 
 693              		.loc 1 160 13 is_stmt 1 view .LVU189
 160:Src/translator.cpp ****         #endif 
 694              		.loc 1 160 30 is_stmt 0 view .LVU190
 695 0285 C6430301 		movb	$1, 3(%rbx)
 162:Src/translator.cpp ****         checksum_t check = genCheckSum(tgt);
 696              		.loc 1 162 9 is_stmt 1 view .LVU191
 162:Src/translator.cpp ****         checksum_t check = genCheckSum(tgt);
 697              		.loc 1 162 22 is_stmt 0 view .LVU192
 698 0289 40886B04 		movb	%bpl, 4(%rbx)
 163:Src/translator.cpp ****         tgt[1] = check >> 8;
 699              		.loc 1 163 9 is_stmt 1 view .LVU193
 163:Src/translator.cpp ****         tgt[1] = check >> 8;
 700              		.loc 1 163 39 is_stmt 0 view .LVU194
 701 028d 4889DF   		movq	%rbx, %rdi
 702 0290 E8000000 		call	_ZN10translator11genCheckSumEPKh
 702      00
 703              	.LVL79:
 164:Src/translator.cpp ****         tgt[2] = check & 0xFF;
 704              		.loc 1 164 9 is_stmt 1 view .LVU195
 164:Src/translator.cpp ****         tgt[2] = check & 0xFF;
 705              		.loc 1 164 24 is_stmt 0 view .LVU196
 706 0295 0FB6D4   		movzbl	%ah, %edx
 164:Src/translator.cpp ****         tgt[2] = check & 0xFF;
 707              		.loc 1 164 16 view .LVU197
 708 0298 885301   		movb	%dl, 1(%rbx)
 165:Src/translator.cpp ****     }
 709              		.loc 1 165 9 is_stmt 1 view .LVU198
 165:Src/translator.cpp ****     }
 710              		.loc 1 165 16 is_stmt 0 view .LVU199
 711 029b 884302   		movb	%al, 2(%rbx)
 166:Src/translator.cpp **** 
 712              		.loc 1 166 5 view .LVU200
 713 029e 5B       		popq	%rbx
GAS LISTING /tmp/ccKCczpn.s 			page 40


 714              		.cfi_def_cfa_offset 16
 715              	.LVL80:
 166:Src/translator.cpp **** 
 716              		.loc 1 166 5 view .LVU201
 717 029f 5D       		popq	%rbp
 718              		.cfi_def_cfa_offset 8
 719 02a0 C3       		ret
 720              		.cfi_endproc
 721              	.LFE1513:
 723              		.globl	_ZN10translator8validateEPKh
 725              	_ZN10translator8validateEPKh:
 726              	.LVL81:
 727              	.LFB1514:
 171:Src/translator.cpp ****         uint8_t type = getType(package);
 728              		.loc 1 171 5 is_stmt 1 view -0
 729              		.cfi_startproc
 171:Src/translator.cpp ****         uint8_t type = getType(package);
 730              		.loc 1 171 5 is_stmt 0 view .LVU203
 731 02a1 55       		pushq	%rbp
 732              		.cfi_def_cfa_offset 16
 733              		.cfi_offset 6, -16
 734 02a2 53       		pushq	%rbx
 735              		.cfi_def_cfa_offset 24
 736              		.cfi_offset 3, -24
 737 02a3 4889FB   		movq	%rdi, %rbx
 172:Src/translator.cpp ****         switch (type)
 738              		.loc 1 172 9 is_stmt 1 view .LVU204
 172:Src/translator.cpp ****         switch (type)
 739              		.loc 1 172 31 is_stmt 0 view .LVU205
 740 02a6 E8000000 		call	_ZN10translator7getTypeEPKh
 740      00
 741              	.LVL82:
 173:Src/translator.cpp ****         {
 742              		.loc 1 173 9 is_stmt 1 view .LVU206
 743 02ab 3C01     		cmpb	$1, %al
 744 02ad 7432     		je	.L54
 745 02af 84C0     		testb	%al, %al
 746 02b1 7441     		je	.L58
 747 02b3 83E802   		subl	$2, %eax
 748              	.LVL83:
 173:Src/translator.cpp ****         {
 749              		.loc 1 173 9 is_stmt 0 view .LVU207
 750 02b6 3C01     		cmpb	$1, %al
 751 02b8 7741     		ja	.L64
 181:Src/translator.cpp ****             case TYPE_ARR:
 752              		.loc 1 181 13 is_stmt 1 view .LVU208
 182:Src/translator.cpp ****             {
 753              		.loc 1 182 13 view .LVU209
 183:Src/translator.cpp ****                 if(getLen(package) <= 1)
 754              		.loc 1 183 13 view .LVU210
 184:Src/translator.cpp ****                     return false;
 755              		.loc 1 184 17 view .LVU211
 184:Src/translator.cpp ****                     return false;
 756              		.loc 1 184 26 is_stmt 0 view .LVU212
 757 02ba 4889DF   		movq	%rbx, %rdi
 758 02bd E8000000 		call	_ZN10translator6getLenEPKh
 758      00
GAS LISTING /tmp/ccKCczpn.s 			page 41


 759              	.LVL84:
 184:Src/translator.cpp ****                     return false;
 760              		.loc 1 184 17 view .LVU213
 761 02c2 3C01     		cmpb	$1, %al
 762 02c4 763C     		jbe	.L61
 763              	.L57:
 191:Src/translator.cpp ****     }
 764              		.loc 1 191 9 is_stmt 1 view .LVU214
 191:Src/translator.cpp ****     }
 765              		.loc 1 191 28 is_stmt 0 view .LVU215
 766 02c6 4889DF   		movq	%rbx, %rdi
 767 02c9 E8000000 		call	_ZN10translator11getCheckSumEPKh
 767      00
 768              	.LVL85:
 769 02ce 89C5     		movl	%eax, %ebp
 191:Src/translator.cpp ****     }
 770              		.loc 1 191 52 view .LVU216
 771 02d0 4889DF   		movq	%rbx, %rdi
 772 02d3 E8000000 		call	_ZN10translator11genCheckSumEPKh
 772      00
 773              	.LVL86:
 191:Src/translator.cpp ****     }
 774              		.loc 1 191 61 view .LVU217
 775 02d8 6639C5   		cmpw	%ax, %bp
 776 02db 0F94C0   		sete	%al
 777              	.L53:
 192:Src/translator.cpp **** 
 778              		.loc 1 192 5 view .LVU218
 779 02de 5B       		popq	%rbx
 780              		.cfi_remember_state
 781              		.cfi_def_cfa_offset 16
 782              	.LVL87:
 192:Src/translator.cpp **** 
 783              		.loc 1 192 5 view .LVU219
 784 02df 5D       		popq	%rbp
 785              		.cfi_def_cfa_offset 8
 786 02e0 C3       		ret
 787              	.LVL88:
 788              	.L54:
 789              		.cfi_restore_state
 175:Src/translator.cpp ****             {
 790              		.loc 1 175 13 is_stmt 1 view .LVU220
 176:Src/translator.cpp ****                 if(getLen(package) != 1)
 791              		.loc 1 176 13 view .LVU221
 177:Src/translator.cpp ****                     return false;
 792              		.loc 1 177 17 view .LVU222
 177:Src/translator.cpp ****                     return false;
 793              		.loc 1 177 26 is_stmt 0 view .LVU223
 794 02e1 4889DF   		movq	%rbx, %rdi
 795 02e4 E8000000 		call	_ZN10translator6getLenEPKh
 795      00
 796              	.LVL89:
 177:Src/translator.cpp ****                     return false;
 797              		.loc 1 177 17 view .LVU224
 798 02e9 3C01     		cmpb	$1, %al
 799 02eb 74D9     		je	.L57
 178:Src/translator.cpp ****                 break;
GAS LISTING /tmp/ccKCczpn.s 			page 42


 800              		.loc 1 178 28 view .LVU225
 801 02ed B8000000 		movl	$0, %eax
 801      00
 802 02f2 EBEA     		jmp	.L53
 803              	.LVL90:
 804              	.L58:
 173:Src/translator.cpp ****         {
 805              		.loc 1 173 9 view .LVU226
 806 02f4 B8000000 		movl	$0, %eax
 806      00
 807              	.LVL91:
 173:Src/translator.cpp ****         {
 808              		.loc 1 173 9 view .LVU227
 809 02f9 EBE3     		jmp	.L53
 810              	.L64:
 811 02fb B8000000 		movl	$0, %eax
 811      00
 812 0300 EBDC     		jmp	.L53
 813              	.L61:
 185:Src/translator.cpp ****                 break;
 814              		.loc 1 185 28 view .LVU228
 815 0302 B8000000 		movl	$0, %eax
 815      00
 816 0307 EBD5     		jmp	.L53
 817              		.cfi_endproc
 818              	.LFE1514:
 820              		.globl	_ZN10translator11generateVarEhhPKhPh
 822              	_ZN10translator11generateVarEhhPKhPh:
 823              	.LVL92:
 824              	.LFB1515:
 196:Src/translator.cpp ****         tgt[0] = getZeroByte(TYPE_VAR, varlen + 1);
 825              		.loc 1 196 5 is_stmt 1 view -0
 826              		.cfi_startproc
 196:Src/translator.cpp ****         tgt[0] = getZeroByte(TYPE_VAR, varlen + 1);
 827              		.loc 1 196 5 is_stmt 0 view .LVU230
 828 0309 4155     		pushq	%r13
 829              		.cfi_def_cfa_offset 16
 830              		.cfi_offset 13, -16
 831 030b 4154     		pushq	%r12
 832              		.cfi_def_cfa_offset 24
 833              		.cfi_offset 12, -24
 834 030d 55       		pushq	%rbp
 835              		.cfi_def_cfa_offset 32
 836              		.cfi_offset 6, -32
 837 030e 53       		pushq	%rbx
 838              		.cfi_def_cfa_offset 40
 839              		.cfi_offset 3, -40
 840 030f 4189FD   		movl	%edi, %r13d
 841 0312 4989D4   		movq	%rdx, %r12
 842 0315 4889CD   		movq	%rcx, %rbp
 843 0318 89F3     		movl	%esi, %ebx
 197:Src/translator.cpp ****         tgt[SYS_LEN] = id;
 844              		.loc 1 197 9 is_stmt 1 view .LVU231
 197:Src/translator.cpp ****         tgt[SYS_LEN] = id;
 845              		.loc 1 197 47 is_stmt 0 view .LVU232
 846 031a 83C601   		addl	$1, %esi
 847              	.LVL93:
GAS LISTING /tmp/ccKCczpn.s 			page 43


 197:Src/translator.cpp ****         tgt[SYS_LEN] = id;
 848              		.loc 1 197 29 view .LVU233
 849 031d 400FB6F6 		movzbl	%sil, %esi
 850 0321 BF020000 		movl	$2, %edi
 850      00
 851              	.LVL94:
 197:Src/translator.cpp ****         tgt[SYS_LEN] = id;
 852              		.loc 1 197 29 view .LVU234
 853 0326 E8000000 		call	_ZN10translator11getZeroByteEhh
 853      00
 854              	.LVL95:
 197:Src/translator.cpp ****         tgt[SYS_LEN] = id;
 855              		.loc 1 197 16 view .LVU235
 856 032b 884500   		movb	%al, 0(%rbp)
 198:Src/translator.cpp ****         for(uint8_t i = 0; i < varlen; i++)
 857              		.loc 1 198 9 is_stmt 1 view .LVU236
 198:Src/translator.cpp ****         for(uint8_t i = 0; i < varlen; i++)
 858              		.loc 1 198 22 is_stmt 0 view .LVU237
 859 032e 44886D04 		movb	%r13b, 4(%rbp)
 199:Src/translator.cpp ****         {
 860              		.loc 1 199 9 is_stmt 1 view .LVU238
 861              	.LVL96:
 862              	.LBB32:
 199:Src/translator.cpp ****         {
 863              		.loc 1 199 21 is_stmt 0 view .LVU239
 864 0332 B9000000 		movl	$0, %ecx
 864      00
 865              	.LVL97:
 866              	.L67:
 199:Src/translator.cpp ****         {
 867              		.loc 1 199 30 is_stmt 1 discriminator 3 view .LVU240
 868 0337 38D9     		cmpb	%bl, %cl
 869 0339 731F     		jnb	.L66
 201:Src/translator.cpp ****             // std::cout << "from " << (int)(i) << " to " << (int)(i + 4) << " set 0x" << std::hex 
 870              		.loc 1 201 13 discriminator 2 view .LVU241
 201:Src/translator.cpp ****             // std::cout << "from " << (int)(i) << " to " << (int)(i + 4) << " set 0x" << std::hex 
 871              		.loc 1 201 40 is_stmt 0 discriminator 2 view .LVU242
 872 033b 0FB6C3   		movzbl	%bl, %eax
 201:Src/translator.cpp ****             // std::cout << "from " << (int)(i) << " to " << (int)(i + 4) << " set 0x" << std::hex 
 873              		.loc 1 201 49 discriminator 2 view .LVU243
 874 033e 0FB6D1   		movzbl	%cl, %edx
 201:Src/translator.cpp ****             // std::cout << "from " << (int)(i) << " to " << (int)(i + 4) << " set 0x" << std::hex 
 875              		.loc 1 201 47 discriminator 2 view .LVU244
 876 0341 29D0     		subl	%edx, %eax
 877 0343 4898     		cltq
 201:Src/translator.cpp ****             // std::cout << "from " << (int)(i) << " to " << (int)(i + 4) << " set 0x" << std::hex 
 878              		.loc 1 201 29 discriminator 2 view .LVU245
 879 0345 83C205   		addl	$5, %edx
 880 0348 4863D2   		movslq	%edx, %rdx
 201:Src/translator.cpp ****             // std::cout << "from " << (int)(i) << " to " << (int)(i + 4) << " set 0x" << std::hex 
 881              		.loc 1 201 54 discriminator 2 view .LVU246
 882 034b 410FB644 		movzbl	-1(%r12,%rax), %eax
 882      04FF
 201:Src/translator.cpp ****             // std::cout << "from " << (int)(i) << " to " << (int)(i + 4) << " set 0x" << std::hex 
 883              		.loc 1 201 34 discriminator 2 view .LVU247
 884 0351 88441500 		movb	%al, 0(%rbp,%rdx)
 199:Src/translator.cpp ****         {
GAS LISTING /tmp/ccKCczpn.s 			page 44


 885              		.loc 1 199 9 is_stmt 1 discriminator 2 view .LVU248
 886 0355 83C101   		addl	$1, %ecx
 887              	.LVL98:
 199:Src/translator.cpp ****         {
 888              		.loc 1 199 9 is_stmt 0 discriminator 2 view .LVU249
 889 0358 EBDD     		jmp	.L67
 890              	.L66:
 199:Src/translator.cpp ****         {
 891              		.loc 1 199 9 discriminator 2 view .LVU250
 892              	.LBE32:
 206:Src/translator.cpp ****         #endif 
 893              		.loc 1 206 13 is_stmt 1 view .LVU251
 206:Src/translator.cpp ****         #endif 
 894              		.loc 1 206 30 is_stmt 0 view .LVU252
 895 035a C6450301 		movb	$1, 3(%rbp)
 209:Src/translator.cpp ****         tgt[1] = check >> 8;
 896              		.loc 1 209 9 is_stmt 1 view .LVU253
 209:Src/translator.cpp ****         tgt[1] = check >> 8;
 897              		.loc 1 209 39 is_stmt 0 view .LVU254
 898 035e 4889EF   		movq	%rbp, %rdi
 899 0361 E8000000 		call	_ZN10translator11genCheckSumEPKh
 899      00
 900              	.LVL99:
 210:Src/translator.cpp ****         tgt[2] = check & 0xFF;
 901              		.loc 1 210 9 is_stmt 1 view .LVU255
 210:Src/translator.cpp ****         tgt[2] = check & 0xFF;
 902              		.loc 1 210 24 is_stmt 0 view .LVU256
 903 0366 0FB6D4   		movzbl	%ah, %edx
 210:Src/translator.cpp ****         tgt[2] = check & 0xFF;
 904              		.loc 1 210 16 view .LVU257
 905 0369 885501   		movb	%dl, 1(%rbp)
 211:Src/translator.cpp **** 
 906              		.loc 1 211 9 is_stmt 1 view .LVU258
 211:Src/translator.cpp **** 
 907              		.loc 1 211 16 is_stmt 0 view .LVU259
 908 036c 884502   		movb	%al, 2(%rbp)
 213:Src/translator.cpp **** 
 909              		.loc 1 213 5 view .LVU260
 910 036f 5B       		popq	%rbx
 911              		.cfi_def_cfa_offset 32
 912              	.LVL100:
 213:Src/translator.cpp **** 
 913              		.loc 1 213 5 view .LVU261
 914 0370 5D       		popq	%rbp
 915              		.cfi_def_cfa_offset 24
 916              	.LVL101:
 213:Src/translator.cpp **** 
 917              		.loc 1 213 5 view .LVU262
 918 0371 415C     		popq	%r12
 919              		.cfi_def_cfa_offset 16
 920              	.LVL102:
 213:Src/translator.cpp **** 
 921              		.loc 1 213 5 view .LVU263
 922 0373 415D     		popq	%r13
 923              		.cfi_def_cfa_offset 8
 924 0375 C3       		ret
 925              		.cfi_endproc
GAS LISTING /tmp/ccKCczpn.s 			page 45


 926              	.LFE1515:
 928              		.globl	_ZN10translator8parseVarEPhS0_h
 930              	_ZN10translator8parseVarEPhS0_h:
 931              	.LVL103:
 932              	.LFB1516:
 218:Src/translator.cpp ****         uint8_t type = getType(package);
 933              		.loc 1 218 5 is_stmt 1 view -0
 934              		.cfi_startproc
 218:Src/translator.cpp ****         uint8_t type = getType(package);
 935              		.loc 1 218 5 is_stmt 0 view .LVU265
 936 0376 4157     		pushq	%r15
 937              		.cfi_def_cfa_offset 16
 938              		.cfi_offset 15, -16
 939 0378 4156     		pushq	%r14
 940              		.cfi_def_cfa_offset 24
 941              		.cfi_offset 14, -24
 942 037a 4155     		pushq	%r13
 943              		.cfi_def_cfa_offset 32
 944              		.cfi_offset 13, -32
 945 037c 4154     		pushq	%r12
 946              		.cfi_def_cfa_offset 40
 947              		.cfi_offset 12, -40
 948 037e 55       		pushq	%rbp
 949              		.cfi_def_cfa_offset 48
 950              		.cfi_offset 6, -48
 951 037f 53       		pushq	%rbx
 952              		.cfi_def_cfa_offset 56
 953              		.cfi_offset 3, -56
 954 0380 4889FB   		movq	%rdi, %rbx
 955 0383 4989F4   		movq	%rsi, %r12
 956 0386 4189D5   		movl	%edx, %r13d
 219:Src/translator.cpp ****         if(type != TYPE_VAR)
 957              		.loc 1 219 9 is_stmt 1 view .LVU266
 219:Src/translator.cpp ****         if(type != TYPE_VAR)
 958              		.loc 1 219 31 is_stmt 0 view .LVU267
 959 0389 E8000000 		call	_ZN10translator7getTypeEPKh
 959      00
 960              	.LVL104:
 220:Src/translator.cpp ****             return TYPE_BAD_TYPE;
 961              		.loc 1 220 9 is_stmt 1 view .LVU268
 962 038e 3C02     		cmpb	$2, %al
 963 0390 7564     		jne	.L72
 964 0392 89C5     		movl	%eax, %ebp
 222:Src/translator.cpp ****         if(len < 2)
 965              		.loc 1 222 9 view .LVU269
 222:Src/translator.cpp ****         if(len < 2)
 966              		.loc 1 222 29 is_stmt 0 view .LVU270
 967 0394 4889DF   		movq	%rbx, %rdi
 968 0397 E8000000 		call	_ZN10translator6getLenEPKh
 968      00
 969              	.LVL105:
 222:Src/translator.cpp ****         if(len < 2)
 970              		.loc 1 222 29 view .LVU271
 971 039c 4189C6   		movl	%eax, %r14d
 972              	.LVL106:
 223:Src/translator.cpp ****             return TYPE_BAD_LEN;
 973              		.loc 1 223 9 is_stmt 1 view .LVU272
GAS LISTING /tmp/ccKCczpn.s 			page 46


 974 039f 3C01     		cmpb	$1, %al
 975 03a1 7665     		jbe	.L73
 225:Src/translator.cpp ****                     thischeck = getCheckSum(package);
 976              		.loc 1 225 9 view .LVU273
 225:Src/translator.cpp ****                     thischeck = getCheckSum(package);
 977              		.loc 1 225 40 is_stmt 0 view .LVU274
 978 03a3 4889DF   		movq	%rbx, %rdi
 979 03a6 E8000000 		call	_ZN10translator11genCheckSumEPKh
 979      00
 980              	.LVL107:
 225:Src/translator.cpp ****                     thischeck = getCheckSum(package);
 981              		.loc 1 225 40 view .LVU275
 982 03ab 4189C7   		movl	%eax, %r15d
 983              	.LVL108:
 226:Src/translator.cpp ****         if(check != thischeck)
 984              		.loc 1 226 44 view .LVU276
 985 03ae 4889DF   		movq	%rbx, %rdi
 986 03b1 E8000000 		call	_ZN10translator11getCheckSumEPKh
 986      00
 987              	.LVL109:
 227:Src/translator.cpp ****             return TYPE_BAD_CHECKSUM;
 988              		.loc 1 227 9 is_stmt 1 view .LVU277
 989 03b6 664139C7 		cmpw	%ax, %r15w
 990 03ba 7553     		jne	.L74
 230:Src/translator.cpp ****         for(uint8_t i = 0; i < len - 1; i++)
 991              		.loc 1 230 9 view .LVU278
 230:Src/translator.cpp ****         for(uint8_t i = 0; i < len - 1; i++)
 992              		.loc 1 230 17 is_stmt 0 view .LVU279
 993 03bc 0FB67304 		movzbl	4(%rbx), %esi
 994              	.LVL110:
 231:Src/translator.cpp ****         {
 995              		.loc 1 231 9 is_stmt 1 view .LVU280
 996              	.LBB33:
 231:Src/translator.cpp ****         {
 997              		.loc 1 231 21 is_stmt 0 view .LVU281
 998 03c0 B9000000 		movl	$0, %ecx
 998      00
 999              	.LVL111:
 1000              	.L71:
 231:Src/translator.cpp ****         {
 1001              		.loc 1 231 30 is_stmt 1 discriminator 3 view .LVU282
 231:Src/translator.cpp ****         {
 1002              		.loc 1 231 28 is_stmt 0 discriminator 3 view .LVU283
 1003 03c5 0FB6C1   		movzbl	%cl, %eax
 231:Src/translator.cpp ****         {
 1004              		.loc 1 231 32 discriminator 3 view .LVU284
 1005 03c8 410FB6D6 		movzbl	%r14b, %edx
 231:Src/translator.cpp ****         {
 1006              		.loc 1 231 36 discriminator 3 view .LVU285
 1007 03cc 83EA01   		subl	$1, %edx
 231:Src/translator.cpp ****         {
 1008              		.loc 1 231 30 discriminator 3 view .LVU286
 1009 03cf 39D0     		cmpl	%edx, %eax
 1010 03d1 7D28     		jge	.L69
 233:Src/translator.cpp ****         }
 1011              		.loc 1 233 13 is_stmt 1 discriminator 2 view .LVU287
 233:Src/translator.cpp ****         }
GAS LISTING /tmp/ccKCczpn.s 			page 47


 1012              		.loc 1 233 50 is_stmt 0 discriminator 2 view .LVU288
 1013 03d3 8D5004   		leal	4(%rax), %edx
 1014 03d6 4863D2   		movslq	%edx, %rdx
 233:Src/translator.cpp ****         }
 1015              		.loc 1 233 20 discriminator 2 view .LVU289
 1016 03d9 400FB6FE 		movzbl	%sil, %edi
 233:Src/translator.cpp ****         }
 1017              		.loc 1 233 23 discriminator 2 view .LVU290
 1018 03dd 01F8     		addl	%edi, %eax
 233:Src/translator.cpp ****         }
 1019              		.loc 1 233 30 discriminator 2 view .LVU291
 1020 03df 410FB6FD 		movzbl	%r13b, %edi
 233:Src/translator.cpp ****         }
 1021              		.loc 1 233 28 discriminator 2 view .LVU292
 1022 03e3 0FAFC7   		imull	%edi, %eax
 1023 03e6 4898     		cltq
 233:Src/translator.cpp ****         }
 1024              		.loc 1 233 63 discriminator 2 view .LVU293
 1025 03e8 0FB65413 		movzbl	1(%rbx,%rdx), %edx
 1025      01
 233:Src/translator.cpp ****         }
 1026              		.loc 1 233 38 discriminator 2 view .LVU294
 1027 03ed 41881404 		movb	%dl, (%r12,%rax)
 231:Src/translator.cpp ****         {
 1028              		.loc 1 231 9 is_stmt 1 discriminator 2 view .LVU295
 1029 03f1 83C101   		addl	$1, %ecx
 1030              	.LVL112:
 231:Src/translator.cpp ****         {
 1031              		.loc 1 231 9 is_stmt 0 discriminator 2 view .LVU296
 1032 03f4 EBCF     		jmp	.L71
 1033              	.LVL113:
 1034              	.L72:
 231:Src/translator.cpp ****         {
 1035              		.loc 1 231 9 discriminator 2 view .LVU297
 1036              	.LBE33:
 221:Src/translator.cpp ****         uint8_t len = getLen(package);
 1037              		.loc 1 221 20 view .LVU298
 1038 03f6 BD650000 		movl	$101, %ebp
 1038      00
 1039              	.LVL114:
 1040              	.L69:
 236:Src/translator.cpp ****     
 1041              		.loc 1 236 5 view .LVU299
 1042 03fb 89E8     		movl	%ebp, %eax
 1043 03fd 5B       		popq	%rbx
 1044              		.cfi_remember_state
 1045              		.cfi_def_cfa_offset 48
 1046              	.LVL115:
 236:Src/translator.cpp ****     
 1047              		.loc 1 236 5 view .LVU300
 1048 03fe 5D       		popq	%rbp
 1049              		.cfi_def_cfa_offset 40
 1050 03ff 415C     		popq	%r12
 1051              		.cfi_def_cfa_offset 32
 1052              	.LVL116:
 236:Src/translator.cpp ****     
 1053              		.loc 1 236 5 view .LVU301
GAS LISTING /tmp/ccKCczpn.s 			page 48


 1054 0401 415D     		popq	%r13
 1055              		.cfi_def_cfa_offset 24
 1056              	.LVL117:
 236:Src/translator.cpp ****     
 1057              		.loc 1 236 5 view .LVU302
 1058 0403 415E     		popq	%r14
 1059              		.cfi_def_cfa_offset 16
 1060 0405 415F     		popq	%r15
 1061              		.cfi_def_cfa_offset 8
 1062 0407 C3       		ret
 1063              	.LVL118:
 1064              	.L73:
 1065              		.cfi_restore_state
 224:Src/translator.cpp ****         checksum_t  check = genCheckSum(package),
 1066              		.loc 1 224 20 view .LVU303
 1067 0408 BD640000 		movl	$100, %ebp
 1067      00
 1068              	.LVL119:
 224:Src/translator.cpp ****         checksum_t  check = genCheckSum(package),
 1069              		.loc 1 224 20 view .LVU304
 1070 040d EBEC     		jmp	.L69
 1071              	.LVL120:
 1072              	.L74:
 228:Src/translator.cpp **** 
 1073              		.loc 1 228 20 view .LVU305
 1074 040f BD660000 		movl	$102, %ebp
 1074      00
 1075              	.LVL121:
 228:Src/translator.cpp **** 
 1076              		.loc 1 228 20 view .LVU306
 1077 0414 EBE5     		jmp	.L69
 1078              		.cfi_endproc
 1079              	.LFE1516:
 1081              		.globl	_ZN10translator11generateArrEhhhPKhPh
 1083              	_ZN10translator11generateArrEhhhPKhPh:
 1084              	.LVL122:
 1085              	.LFB1517:
 241:Src/translator.cpp ****         tgt[0] = getZeroByte(TYPE_ARR, (arrlen * elsize) + 1);
 1086              		.loc 1 241 5 is_stmt 1 view -0
 1087              		.cfi_startproc
 241:Src/translator.cpp ****         tgt[0] = getZeroByte(TYPE_ARR, (arrlen * elsize) + 1);
 1088              		.loc 1 241 5 is_stmt 0 view .LVU308
 1089 0416 4156     		pushq	%r14
 1090              		.cfi_def_cfa_offset 16
 1091              		.cfi_offset 14, -16
 1092 0418 4155     		pushq	%r13
 1093              		.cfi_def_cfa_offset 24
 1094              		.cfi_offset 13, -24
 1095 041a 4154     		pushq	%r12
 1096              		.cfi_def_cfa_offset 32
 1097              		.cfi_offset 12, -32
 1098 041c 55       		pushq	%rbp
 1099              		.cfi_def_cfa_offset 40
 1100              		.cfi_offset 6, -40
 1101 041d 53       		pushq	%rbx
 1102              		.cfi_def_cfa_offset 48
 1103              		.cfi_offset 3, -48
GAS LISTING /tmp/ccKCczpn.s 			page 49


 1104 041e 4189FE   		movl	%edi, %r14d
 1105 0421 89D0     		movl	%edx, %eax
 1106 0423 4989CC   		movq	%rcx, %r12
 1107 0426 4C89C5   		movq	%r8, %rbp
 1108 0429 4189F5   		movl	%esi, %r13d
 1109 042c 89D3     		movl	%edx, %ebx
 242:Src/translator.cpp ****         tgt[SYS_LEN] = id;
 1110              		.loc 1 242 9 is_stmt 1 view .LVU309
 242:Src/translator.cpp ****         tgt[SYS_LEN] = id;
 1111              		.loc 1 242 48 is_stmt 0 view .LVU310
 1112 042e 0FAFC6   		imull	%esi, %eax
 242:Src/translator.cpp ****         tgt[SYS_LEN] = id;
 1113              		.loc 1 242 58 view .LVU311
 1114 0431 8D7001   		leal	1(%rax), %esi
 1115              	.LVL123:
 242:Src/translator.cpp ****         tgt[SYS_LEN] = id;
 1116              		.loc 1 242 29 view .LVU312
 1117 0434 400FB6F6 		movzbl	%sil, %esi
 1118 0438 BF030000 		movl	$3, %edi
 1118      00
 1119              	.LVL124:
 242:Src/translator.cpp ****         tgt[SYS_LEN] = id;
 1120              		.loc 1 242 29 view .LVU313
 1121 043d E8000000 		call	_ZN10translator11getZeroByteEhh
 1121      00
 1122              	.LVL125:
 242:Src/translator.cpp ****         tgt[SYS_LEN] = id;
 1123              		.loc 1 242 16 view .LVU314
 1124 0442 884500   		movb	%al, 0(%rbp)
 243:Src/translator.cpp ****         for(uint8_t i = 0; i < arrlen; i++)
 1125              		.loc 1 243 9 is_stmt 1 view .LVU315
 243:Src/translator.cpp ****         for(uint8_t i = 0; i < arrlen; i++)
 1126              		.loc 1 243 22 is_stmt 0 view .LVU316
 1127 0445 44887504 		movb	%r14b, 4(%rbp)
 244:Src/translator.cpp ****         {
 1128              		.loc 1 244 9 is_stmt 1 view .LVU317
 1129              	.LVL126:
 1130              	.LBB34:
 244:Src/translator.cpp ****         {
 1131              		.loc 1 244 21 is_stmt 0 view .LVU318
 1132 0449 BE000000 		movl	$0, %esi
 1132      00
 1133 044e EB03     		jmp	.L80
 1134              	.LVL127:
 1135              	.L78:
 244:Src/translator.cpp ****         {
 1136              		.loc 1 244 9 is_stmt 1 discriminator 2 view .LVU319
 1137 0450 83C601   		addl	$1, %esi
 1138              	.LVL128:
 1139              	.L80:
 244:Src/translator.cpp ****         {
 1140              		.loc 1 244 30 discriminator 1 view .LVU320
 1141 0453 4438EE   		cmpb	%r13b, %sil
 1142 0456 7333     		jnb	.L77
 1143              	.LBB35:
 246:Src/translator.cpp ****             {
 1144              		.loc 1 246 25 is_stmt 0 view .LVU321
GAS LISTING /tmp/ccKCczpn.s 			page 50


 1145 0458 B9000000 		movl	$0, %ecx
 1145      00
 1146              	.L79:
 1147              	.LVL129:
 246:Src/translator.cpp ****             {
 1148              		.loc 1 246 34 is_stmt 1 discriminator 3 view .LVU322
 1149 045d 38D9     		cmpb	%bl, %cl
 1150 045f 73EF     		jnb	.L78
 248:Src/translator.cpp ****             }
 1151              		.loc 1 248 17 discriminator 2 view .LVU323
 248:Src/translator.cpp ****             }
 1152              		.loc 1 248 60 is_stmt 0 discriminator 2 view .LVU324
 1153 0461 400FB6C6 		movzbl	%sil, %eax
 248:Src/translator.cpp ****             }
 1154              		.loc 1 248 64 discriminator 2 view .LVU325
 1155 0465 0FB6D3   		movzbl	%bl, %edx
 248:Src/translator.cpp ****             }
 1156              		.loc 1 248 62 discriminator 2 view .LVU326
 1157 0468 0FAFC2   		imull	%edx, %eax
 248:Src/translator.cpp ****             }
 1158              		.loc 1 248 84 discriminator 2 view .LVU327
 1159 046b 0FB6F9   		movzbl	%cl, %edi
 248:Src/translator.cpp ****             }
 1160              		.loc 1 248 82 discriminator 2 view .LVU328
 1161 046e 29FA     		subl	%edi, %edx
 248:Src/translator.cpp ****             }
 1162              		.loc 1 248 72 discriminator 2 view .LVU329
 1163 0470 8D5410FF 		leal	-1(%rax,%rdx), %edx
 1164 0474 4863D2   		movslq	%edx, %rdx
 248:Src/translator.cpp ****             }
 1165              		.loc 1 248 48 discriminator 2 view .LVU330
 1166 0477 8D443805 		leal	5(%rax,%rdi), %eax
 1167 047b 4898     		cltq
 248:Src/translator.cpp ****             }
 1168              		.loc 1 248 90 discriminator 2 view .LVU331
 1169 047d 410FB614 		movzbl	(%r12,%rdx), %edx
 1169      14
 248:Src/translator.cpp ****             }
 1170              		.loc 1 248 53 discriminator 2 view .LVU332
 1171 0482 88540500 		movb	%dl, 0(%rbp,%rax)
 246:Src/translator.cpp ****             {
 1172              		.loc 1 246 13 is_stmt 1 discriminator 2 view .LVU333
 1173 0486 83C101   		addl	$1, %ecx
 1174              	.LVL130:
 246:Src/translator.cpp ****             {
 1175              		.loc 1 246 13 is_stmt 0 discriminator 2 view .LVU334
 1176 0489 EBD2     		jmp	.L79
 1177              	.LVL131:
 1178              	.L77:
 246:Src/translator.cpp ****             {
 1179              		.loc 1 246 13 discriminator 2 view .LVU335
 1180              	.LBE35:
 1181              	.LBE34:
 253:Src/translator.cpp ****         #endif 
 1182              		.loc 1 253 13 is_stmt 1 view .LVU336
 253:Src/translator.cpp ****         #endif 
 1183              		.loc 1 253 30 is_stmt 0 view .LVU337
GAS LISTING /tmp/ccKCczpn.s 			page 51


 1184 048b C6450301 		movb	$1, 3(%rbp)
 256:Src/translator.cpp ****         tgt[1] = check >> 8;
 1185              		.loc 1 256 9 is_stmt 1 view .LVU338
 256:Src/translator.cpp ****         tgt[1] = check >> 8;
 1186              		.loc 1 256 39 is_stmt 0 view .LVU339
 1187 048f 4889EF   		movq	%rbp, %rdi
 1188 0492 E8000000 		call	_ZN10translator11genCheckSumEPKh
 1188      00
 1189              	.LVL132:
 257:Src/translator.cpp ****         tgt[2] = check & 0xFF;
 1190              		.loc 1 257 9 is_stmt 1 view .LVU340
 257:Src/translator.cpp ****         tgt[2] = check & 0xFF;
 1191              		.loc 1 257 24 is_stmt 0 view .LVU341
 1192 0497 0FB6D4   		movzbl	%ah, %edx
 257:Src/translator.cpp ****         tgt[2] = check & 0xFF;
 1193              		.loc 1 257 16 view .LVU342
 1194 049a 885501   		movb	%dl, 1(%rbp)
 258:Src/translator.cpp ****     }
 1195              		.loc 1 258 9 is_stmt 1 view .LVU343
 258:Src/translator.cpp ****     }
 1196              		.loc 1 258 16 is_stmt 0 view .LVU344
 1197 049d 884502   		movb	%al, 2(%rbp)
 259:Src/translator.cpp ****     
 1198              		.loc 1 259 5 view .LVU345
 1199 04a0 5B       		popq	%rbx
 1200              		.cfi_def_cfa_offset 40
 1201              	.LVL133:
 259:Src/translator.cpp ****     
 1202              		.loc 1 259 5 view .LVU346
 1203 04a1 5D       		popq	%rbp
 1204              		.cfi_def_cfa_offset 32
 1205              	.LVL134:
 259:Src/translator.cpp ****     
 1206              		.loc 1 259 5 view .LVU347
 1207 04a2 415C     		popq	%r12
 1208              		.cfi_def_cfa_offset 24
 1209              	.LVL135:
 259:Src/translator.cpp ****     
 1210              		.loc 1 259 5 view .LVU348
 1211 04a4 415D     		popq	%r13
 1212              		.cfi_def_cfa_offset 16
 1213              	.LVL136:
 259:Src/translator.cpp ****     
 1214              		.loc 1 259 5 view .LVU349
 1215 04a6 415E     		popq	%r14
 1216              		.cfi_def_cfa_offset 8
 1217 04a8 C3       		ret
 1218              		.cfi_endproc
 1219              	.LFE1517:
 1221              		.globl	_ZN10translator8parseArrEPhPS0_
 1223              	_ZN10translator8parseArrEPhPS0_:
 1224              	.LVL137:
 1225              	.LFB1518:
 264:Src/translator.cpp ****         uint8_t type = getType(package);
 1226              		.loc 1 264 5 is_stmt 1 view -0
 1227              		.cfi_startproc
 264:Src/translator.cpp ****         uint8_t type = getType(package);
GAS LISTING /tmp/ccKCczpn.s 			page 52


 1228              		.loc 1 264 5 is_stmt 0 view .LVU351
 1229 04a9 4156     		pushq	%r14
 1230              		.cfi_def_cfa_offset 16
 1231              		.cfi_offset 14, -16
 1232 04ab 4155     		pushq	%r13
 1233              		.cfi_def_cfa_offset 24
 1234              		.cfi_offset 13, -24
 1235 04ad 4154     		pushq	%r12
 1236              		.cfi_def_cfa_offset 32
 1237              		.cfi_offset 12, -32
 1238 04af 55       		pushq	%rbp
 1239              		.cfi_def_cfa_offset 40
 1240              		.cfi_offset 6, -40
 1241 04b0 53       		pushq	%rbx
 1242              		.cfi_def_cfa_offset 48
 1243              		.cfi_offset 3, -48
 1244 04b1 4889FB   		movq	%rdi, %rbx
 1245 04b4 4989F4   		movq	%rsi, %r12
 265:Src/translator.cpp ****         if(type != TYPE_ARR)
 1246              		.loc 1 265 9 is_stmt 1 view .LVU352
 265:Src/translator.cpp ****         if(type != TYPE_ARR)
 1247              		.loc 1 265 31 is_stmt 0 view .LVU353
 1248 04b7 E8000000 		call	_ZN10translator7getTypeEPKh
 1248      00
 1249              	.LVL138:
 266:Src/translator.cpp ****             return TYPE_BAD_TYPE;
 1250              		.loc 1 266 9 is_stmt 1 view .LVU354
 1251 04bc 3C03     		cmpb	$3, %al
 1252 04be 755C     		jne	.L85
 1253 04c0 89C5     		movl	%eax, %ebp
 268:Src/translator.cpp ****         if(len < 2)
 1254              		.loc 1 268 9 view .LVU355
 268:Src/translator.cpp ****         if(len < 2)
 1255              		.loc 1 268 29 is_stmt 0 view .LVU356
 1256 04c2 4889DF   		movq	%rbx, %rdi
 1257 04c5 E8000000 		call	_ZN10translator6getLenEPKh
 1257      00
 1258              	.LVL139:
 268:Src/translator.cpp ****         if(len < 2)
 1259              		.loc 1 268 29 view .LVU357
 1260 04ca 4189C5   		movl	%eax, %r13d
 1261              	.LVL140:
 269:Src/translator.cpp ****             return TYPE_BAD_LEN;
 1262              		.loc 1 269 9 is_stmt 1 view .LVU358
 1263 04cd 3C01     		cmpb	$1, %al
 1264 04cf 765B     		jbe	.L86
 271:Src/translator.cpp ****                     thischeck = getCheckSum(package);
 1265              		.loc 1 271 9 view .LVU359
 271:Src/translator.cpp ****                     thischeck = getCheckSum(package);
 1266              		.loc 1 271 40 is_stmt 0 view .LVU360
 1267 04d1 4889DF   		movq	%rbx, %rdi
 1268 04d4 E8000000 		call	_ZN10translator11genCheckSumEPKh
 1268      00
 1269              	.LVL141:
 271:Src/translator.cpp ****                     thischeck = getCheckSum(package);
 1270              		.loc 1 271 40 view .LVU361
 1271 04d9 4189C6   		movl	%eax, %r14d
GAS LISTING /tmp/ccKCczpn.s 			page 53


 1272              	.LVL142:
 272:Src/translator.cpp ****         if(check != thischeck)
 1273              		.loc 1 272 44 view .LVU362
 1274 04dc 4889DF   		movq	%rbx, %rdi
 1275 04df E8000000 		call	_ZN10translator11getCheckSumEPKh
 1275      00
 1276              	.LVL143:
 273:Src/translator.cpp ****             return TYPE_BAD_CHECKSUM;
 1277              		.loc 1 273 9 is_stmt 1 view .LVU363
 1278 04e4 664139C6 		cmpw	%ax, %r14w
 1279 04e8 7549     		jne	.L87
 276:Src/translator.cpp ****         for(uint8_t i = 0; i < len - 1; i++)
 1280              		.loc 1 276 9 view .LVU364
 276:Src/translator.cpp ****         for(uint8_t i = 0; i < len - 1; i++)
 1281              		.loc 1 276 17 is_stmt 0 view .LVU365
 1282 04ea 0FB67B04 		movzbl	4(%rbx), %edi
 1283              	.LVL144:
 277:Src/translator.cpp ****         {
 1284              		.loc 1 277 9 is_stmt 1 view .LVU366
 1285              	.LBB36:
 277:Src/translator.cpp ****         {
 1286              		.loc 1 277 21 is_stmt 0 view .LVU367
 1287 04ee B9000000 		movl	$0, %ecx
 1287      00
 1288              	.LVL145:
 1289              	.L84:
 277:Src/translator.cpp ****         {
 1290              		.loc 1 277 30 is_stmt 1 discriminator 3 view .LVU368
 277:Src/translator.cpp ****         {
 1291              		.loc 1 277 28 is_stmt 0 discriminator 3 view .LVU369
 1292 04f3 0FB6C1   		movzbl	%cl, %eax
 277:Src/translator.cpp ****         {
 1293              		.loc 1 277 32 discriminator 3 view .LVU370
 1294 04f6 410FB6D5 		movzbl	%r13b, %edx
 277:Src/translator.cpp ****         {
 1295              		.loc 1 277 36 discriminator 3 view .LVU371
 1296 04fa 83EA01   		subl	$1, %edx
 277:Src/translator.cpp ****         {
 1297              		.loc 1 277 30 discriminator 3 view .LVU372
 1298 04fd 39D0     		cmpl	%edx, %eax
 1299 04ff 7D20     		jge	.L82
 279:Src/translator.cpp ****         }
 1300              		.loc 1 279 13 is_stmt 1 discriminator 2 view .LVU373
 279:Src/translator.cpp ****         }
 1301              		.loc 1 279 48 is_stmt 0 discriminator 2 view .LVU374
 1302 0501 83C005   		addl	$5, %eax
 1303 0504 4898     		cltq
 279:Src/translator.cpp ****         }
 1304              		.loc 1 279 19 discriminator 2 view .LVU375
 1305 0506 400FB6F7 		movzbl	%dil, %esi
 279:Src/translator.cpp ****         }
 1306              		.loc 1 279 23 discriminator 2 view .LVU376
 1307 050a 0FB6D1   		movzbl	%cl, %edx
 279:Src/translator.cpp ****         }
 1308              		.loc 1 279 24 discriminator 2 view .LVU377
 1309 050d 490314F4 		addq	(%r12,%rsi,8), %rdx
 279:Src/translator.cpp ****         }
GAS LISTING /tmp/ccKCczpn.s 			page 54


 1310              		.loc 1 279 51 discriminator 2 view .LVU378
 1311 0511 0FB60403 		movzbl	(%rbx,%rax), %eax
 279:Src/translator.cpp ****         }
 1312              		.loc 1 279 26 discriminator 2 view .LVU379
 1313 0515 8802     		movb	%al, (%rdx)
 277:Src/translator.cpp ****         {
 1314              		.loc 1 277 9 is_stmt 1 discriminator 2 view .LVU380
 1315 0517 83C101   		addl	$1, %ecx
 1316              	.LVL146:
 277:Src/translator.cpp ****         {
 1317              		.loc 1 277 9 is_stmt 0 discriminator 2 view .LVU381
 1318 051a EBD7     		jmp	.L84
 1319              	.LVL147:
 1320              	.L85:
 277:Src/translator.cpp ****         {
 1321              		.loc 1 277 9 discriminator 2 view .LVU382
 1322              	.LBE36:
 267:Src/translator.cpp ****         uint8_t len = getLen(package);
 1323              		.loc 1 267 20 view .LVU383
 1324 051c BD650000 		movl	$101, %ebp
 1324      00
 1325              	.LVL148:
 1326              	.L82:
 282:Src/translator.cpp ****     
 1327              		.loc 1 282 5 view .LVU384
 1328 0521 89E8     		movl	%ebp, %eax
 1329 0523 5B       		popq	%rbx
 1330              		.cfi_remember_state
 1331              		.cfi_def_cfa_offset 40
 1332              	.LVL149:
 282:Src/translator.cpp ****     
 1333              		.loc 1 282 5 view .LVU385
 1334 0524 5D       		popq	%rbp
 1335              		.cfi_def_cfa_offset 32
 1336 0525 415C     		popq	%r12
 1337              		.cfi_def_cfa_offset 24
 1338              	.LVL150:
 282:Src/translator.cpp ****     
 1339              		.loc 1 282 5 view .LVU386
 1340 0527 415D     		popq	%r13
 1341              		.cfi_def_cfa_offset 16
 1342 0529 415E     		popq	%r14
 1343              		.cfi_def_cfa_offset 8
 1344 052b C3       		ret
 1345              	.LVL151:
 1346              	.L86:
 1347              		.cfi_restore_state
 270:Src/translator.cpp ****         checksum_t  check = genCheckSum(package),
 1348              		.loc 1 270 20 view .LVU387
 1349 052c BD640000 		movl	$100, %ebp
 1349      00
 1350              	.LVL152:
 270:Src/translator.cpp ****         checksum_t  check = genCheckSum(package),
 1351              		.loc 1 270 20 view .LVU388
 1352 0531 EBEE     		jmp	.L82
 1353              	.LVL153:
 1354              	.L87:
GAS LISTING /tmp/ccKCczpn.s 			page 55


 274:Src/translator.cpp **** 
 1355              		.loc 1 274 20 view .LVU389
 1356 0533 BD660000 		movl	$102, %ebp
 1356      00
 1357              	.LVL154:
 274:Src/translator.cpp **** 
 1358              		.loc 1 274 20 view .LVU390
 1359 0538 EBE7     		jmp	.L82
 1360              		.cfi_endproc
 1361              	.LFE1518:
 1363              		.globl	_ZN10translator6isFullEPhh
 1365              	_ZN10translator6isFullEPhh:
 1366              	.LVL155:
 1367              	.LFB1519:
 287:Src/translator.cpp **** 
 1368              		.loc 1 287 5 is_stmt 1 view -0
 1369              		.cfi_startproc
 289:Src/translator.cpp ****             return false;
 1370              		.loc 1 289 9 view .LVU392
 1371 053a 4080FE03 		cmpb	$3, %sil
 1372 053e 764F     		jbe	.L93
 287:Src/translator.cpp **** 
 1373              		.loc 1 287 5 is_stmt 0 view .LVU393
 1374 0540 4154     		pushq	%r12
 1375              		.cfi_def_cfa_offset 16
 1376              		.cfi_offset 12, -16
 1377 0542 55       		pushq	%rbp
 1378              		.cfi_def_cfa_offset 24
 1379              		.cfi_offset 6, -24
 1380 0543 53       		pushq	%rbx
 1381              		.cfi_def_cfa_offset 32
 1382              		.cfi_offset 3, -32
 1383 0544 4889FD   		movq	%rdi, %rbp
 1384 0547 89F3     		movl	%esi, %ebx
 291:Src/translator.cpp ****             return false;
 1385              		.loc 1 291 9 is_stmt 1 view .LVU394
 291:Src/translator.cpp ****             return false;
 1386              		.loc 1 291 19 is_stmt 0 view .LVU395
 1387 0549 E8000000 		call	_ZN10translator6getLenEPKh
 1387      00
 1388              	.LVL156:
 291:Src/translator.cpp ****             return false;
 1389              		.loc 1 291 19 view .LVU396
 1390 054e 4189C4   		movl	%eax, %r12d
 1391 0551 0FB6C0   		movzbl	%al, %eax
 291:Src/translator.cpp ****             return false;
 1392              		.loc 1 291 29 view .LVU397
 1393 0554 83C004   		addl	$4, %eax
 291:Src/translator.cpp ****             return false;
 1394              		.loc 1 291 43 view .LVU398
 1395 0557 0FB6DB   		movzbl	%bl, %ebx
 291:Src/translator.cpp ****             return false;
 1396              		.loc 1 291 9 view .LVU399
 1397 055a 39D8     		cmpl	%ebx, %eax
 1398 055c 7537     		jne	.L94
 293:Src/translator.cpp ****         {
 1399              		.loc 1 293 9 is_stmt 1 view .LVU400
GAS LISTING /tmp/ccKCczpn.s 			page 56


 293:Src/translator.cpp ****         {
 1400              		.loc 1 293 24 is_stmt 0 view .LVU401
 1401 055e 4889EF   		movq	%rbp, %rdi
 1402 0561 E8000000 		call	_ZN10translator7getTypeEPKh
 1402      00
 1403              	.LVL157:
 293:Src/translator.cpp ****         {
 1404              		.loc 1 293 9 view .LVU402
 1405 0566 3C01     		cmpb	$1, %al
 1406 0568 7418     		je	.L91
 1407 056a 84C0     		testb	%al, %al
 1408 056c 7431     		je	.L95
 1409 056e 83E802   		subl	$2, %eax
 1410 0571 3C01     		cmpb	$1, %al
 1411 0573 7731     		ja	.L104
 301:Src/translator.cpp ****             case TYPE_ARR:
 1412              		.loc 1 301 13 is_stmt 1 view .LVU403
 302:Src/translator.cpp ****             {
 1413              		.loc 1 302 13 view .LVU404
 303:Src/translator.cpp ****                 if(getLen(package) <= 1)
 1414              		.loc 1 303 13 view .LVU405
 304:Src/translator.cpp ****                     return false;
 1415              		.loc 1 304 17 view .LVU406
 1416 0575 4180FC01 		cmpb	$1, %r12b
 1417 0579 7639     		jbe	.L98
 311:Src/translator.cpp ****     }
 1418              		.loc 1 311 16 is_stmt 0 view .LVU407
 1419 057b B8010000 		movl	$1, %eax
 1419      00
 1420 0580 EB18     		jmp	.L89
 1421              	.L91:
 295:Src/translator.cpp ****             {
 1422              		.loc 1 295 13 is_stmt 1 view .LVU408
 296:Src/translator.cpp ****                 if(getLen(package) != 1)
 1423              		.loc 1 296 13 view .LVU409
 297:Src/translator.cpp ****                     return false;
 1424              		.loc 1 297 17 view .LVU410
 1425 0582 4180FC01 		cmpb	$1, %r12b
 1426 0586 7525     		jne	.L97
 311:Src/translator.cpp ****     }
 1427              		.loc 1 311 16 is_stmt 0 view .LVU411
 1428 0588 B8010000 		movl	$1, %eax
 1428      00
 1429 058d EB0B     		jmp	.L89
 1430              	.LVL158:
 1431              	.L93:
 1432              		.cfi_def_cfa_offset 8
 1433              		.cfi_restore 3
 1434              		.cfi_restore 6
 1435              		.cfi_restore 12
 290:Src/translator.cpp ****         if((getLen(package) + SYS_LEN) != len)
 1436              		.loc 1 290 20 view .LVU412
 1437 058f B8000000 		movl	$0, %eax
 1437      00
 312:Src/translator.cpp **** }
 1438              		.loc 1 312 5 view .LVU413
 1439 0594 C3       		ret
GAS LISTING /tmp/ccKCczpn.s 			page 57


 1440              	.LVL159:
 1441              	.L94:
 1442              		.cfi_def_cfa_offset 32
 1443              		.cfi_offset 3, -32
 1444              		.cfi_offset 6, -24
 1445              		.cfi_offset 12, -16
 292:Src/translator.cpp ****         switch (getType(package))
 1446              		.loc 1 292 20 view .LVU414
 1447 0595 B8000000 		movl	$0, %eax
 1447      00
 1448              	.L89:
 312:Src/translator.cpp **** }
 1449              		.loc 1 312 5 view .LVU415
 1450 059a 5B       		popq	%rbx
 1451              		.cfi_remember_state
 1452              		.cfi_def_cfa_offset 24
 1453 059b 5D       		popq	%rbp
 1454              		.cfi_def_cfa_offset 16
 1455              	.LVL160:
 312:Src/translator.cpp **** }
 1456              		.loc 1 312 5 view .LVU416
 1457 059c 415C     		popq	%r12
 1458              		.cfi_def_cfa_offset 8
 1459 059e C3       		ret
 1460              	.LVL161:
 1461              	.L95:
 1462              		.cfi_restore_state
 293:Src/translator.cpp ****         {
 1463              		.loc 1 293 9 view .LVU417
 1464 059f B8000000 		movl	$0, %eax
 1464      00
 1465 05a4 EBF4     		jmp	.L89
 1466              	.L104:
 1467 05a6 B8000000 		movl	$0, %eax
 1467      00
 1468 05ab EBED     		jmp	.L89
 1469              	.L97:
 298:Src/translator.cpp ****                 break;
 1470              		.loc 1 298 28 view .LVU418
 1471 05ad B8000000 		movl	$0, %eax
 1471      00
 1472 05b2 EBE6     		jmp	.L89
 1473              	.L98:
 305:Src/translator.cpp ****                 break;
 1474              		.loc 1 305 28 view .LVU419
 1475 05b4 B8000000 		movl	$0, %eax
 1475      00
 1476 05b9 EBDF     		jmp	.L89
 1477              		.cfi_endproc
 1478              	.LFE1519:
 1481              	_GLOBAL__sub_I__ZN10translator7SYS_LENE:
 1482              	.LFB1840:
 1483              		.loc 1 313 1 is_stmt 1 view -0
 1484              		.cfi_startproc
 1485 05bb 4883EC08 		subq	$8, %rsp
 1486              		.cfi_def_cfa_offset 16
 1487              		.loc 1 313 1 is_stmt 0 view .LVU421
GAS LISTING /tmp/ccKCczpn.s 			page 58


 1488 05bf BEFFFF00 		movl	$65535, %esi
 1488      00
 1489 05c4 BF010000 		movl	$1, %edi
 1489      00
 1490 05c9 E832FAFF 		call	_Z41__static_initialization_and_destruction_0ii
 1490      FF
 1491              	.LVL162:
 1492 05ce 4883C408 		addq	$8, %rsp
 1493              		.cfi_def_cfa_offset 8
 1494 05d2 C3       		ret
 1495              		.cfi_endproc
 1496              	.LFE1840:
 1498              		.section	.init_array,"aw"
 1499              		.align 8
 1500 0000 00000000 		.quad	_GLOBAL__sub_I__ZN10translator7SYS_LENE
 1500      00000000 
 1501              		.globl	_ZN10translator4myIdE
 1502              		.section	.rodata
 1505              	_ZN10translator4myIdE:
 1506 0000 01       		.byte	1
 1507              		.globl	_ZN10translator7SYS_LENE
 1510              	_ZN10translator7SYS_LENE:
 1511 0001 04       		.byte	4
 1512              		.local	_ZStL8__ioinit
 1513              		.comm	_ZStL8__ioinit,1,1
 1514              		.text
 1515              	.Letext0:
 1516              		.file 5 "/usr/include/c++/9.2.0/cwchar"
 1517              		.file 6 "/usr/include/c++/9.2.0/new"
 1518              		.file 7 "/usr/include/c++/9.2.0/bits/exception_ptr.h"
 1519              		.file 8 "/usr/include/c++/9.2.0/type_traits"
 1520              		.file 9 "/usr/include/c++/9.2.0/x86_64-pc-linux-gnu/bits/c++config.h"
 1521              		.file 10 "/usr/include/c++/9.2.0/bits/stl_pair.h"
 1522              		.file 11 "/usr/include/c++/9.2.0/debug/debug.h"
 1523              		.file 12 "/usr/include/c++/9.2.0/cstdint"
 1524              		.file 13 "/usr/include/c++/9.2.0/clocale"
 1525              		.file 14 "/usr/include/c++/9.2.0/cstdlib"
 1526              		.file 15 "/usr/include/c++/9.2.0/cstdio"
 1527              		.file 16 "/usr/include/c++/9.2.0/system_error"
 1528              		.file 17 "/usr/include/c++/9.2.0/bits/ios_base.h"
 1529              		.file 18 "/usr/include/c++/9.2.0/cwctype"
 1530              		.file 19 "/usr/include/c++/9.2.0/iosfwd"
 1531              		.file 20 "/usr/include/c++/9.2.0/bits/basic_ios.h"
 1532              		.file 21 "/usr/include/c++/9.2.0/bits/predefined_ops.h"
 1533              		.file 22 "/usr/include/c++/9.2.0/ext/new_allocator.h"
 1534              		.file 23 "/usr/include/c++/9.2.0/ext/numeric_traits.h"
 1535              		.file 24 "/usr/lib/gcc/x86_64-pc-linux-gnu/9.2.0/include/stddef.h"
 1536              		.file 25 "<built-in>"
 1537              		.file 26 "/usr/include/bits/types/wint_t.h"
 1538              		.file 27 "/usr/include/bits/types/__mbstate_t.h"
 1539              		.file 28 "/usr/include/bits/types/mbstate_t.h"
 1540              		.file 29 "/usr/include/bits/types/__FILE.h"
 1541              		.file 30 "/usr/include/bits/types/struct_FILE.h"
 1542              		.file 31 "/usr/include/bits/types/FILE.h"
 1543              		.file 32 "/usr/include/wchar.h"
 1544              		.file 33 "/usr/include/bits/types/struct_tm.h"
 1545              		.file 34 "/usr/include/bits/types.h"
GAS LISTING /tmp/ccKCczpn.s 			page 59


 1546              		.file 35 "/usr/include/bits/stdint-intn.h"
 1547              		.file 36 "/usr/include/bits/stdint-uintn.h"
 1548              		.file 37 "/usr/include/stdint.h"
 1549              		.file 38 "/usr/include/locale.h"
 1550              		.file 39 "/usr/include/time.h"
 1551              		.file 40 "/usr/include/c++/9.2.0/x86_64-pc-linux-gnu/bits/atomic_word.h"
 1552              		.file 41 "/usr/include/stdlib.h"
 1553              		.file 42 "/usr/include/bits/stdlib-float.h"
 1554              		.file 43 "/usr/include/bits/stdlib-bsearch.h"
 1555              		.file 44 "/usr/include/bits/types/__fpos_t.h"
 1556              		.file 45 "/usr/include/stdio.h"
 1557              		.file 46 "/usr/include/bits/sys_errlist.h"
 1558              		.file 47 "/usr/include/bits/stdio.h"
 1559              		.file 48 "/usr/include/errno.h"
 1560              		.file 49 "/usr/include/bits/wctype-wchar.h"
 1561              		.file 50 "/usr/include/wctype.h"
 1562              		.file 51 "Inc/translator.hpp"
 1563              		.file 52 "/usr/include/c++/9.2.0/bits/ostream_insert.h"
GAS LISTING /tmp/ccKCczpn.s 			page 60

