GAS LISTING /tmp/ccV5SczU.s 			page 1


   1              		.file	"translator.cpp"
   2              		.text
   3              	.Ltext0:
   5              	_Z41__static_initialization_and_destruction_0ii:
   6              	.LVL0:
   7              	.LFB1826:
   8              		.file 1 "Src/translator.cpp"
   1:Src/translator.cpp **** #include "translator.hpp"
   2:Src/translator.cpp **** 
   3:Src/translator.cpp **** namespace translator
   4:Src/translator.cpp **** {
   5:Src/translator.cpp **** 
   6:Src/translator.cpp ****     using namespace std;
   7:Src/translator.cpp **** 
   8:Src/translator.cpp ****     //generate checksum for char array
   9:Src/translator.cpp ****     checksum_t genCheckSum(const uint8_t* c)
  10:Src/translator.cpp ****     {
  11:Src/translator.cpp ****         checksum_t ret = 0;
  12:Src/translator.cpp ****         uint8_t len = getLen(c);
  13:Src/translator.cpp ****         // cout << "len: " << (int)len << endl;
  14:Src/translator.cpp ****         // for(int i = 0; i < len + 3; i++)
  15:Src/translator.cpp ****         // {
  16:Src/translator.cpp ****         //     cout << (int)c[i];
  17:Src/translator.cpp ****         // }
  18:Src/translator.cpp ****         // cout << endl;
  19:Src/translator.cpp ****         for(uint8_t i = 0; i < len; i++)
  20:Src/translator.cpp ****         {
  21:Src/translator.cpp ****             ret |= (c[3 + i]) << (8 * ((i % 2) == 1));
  22:Src/translator.cpp ****             // cout << "\nAdding: " << (int)c[3 + i] << endl;
  23:Src/translator.cpp ****         }
  24:Src/translator.cpp ****         return ret;
  25:Src/translator.cpp ****     }
  26:Src/translator.cpp **** 
  27:Src/translator.cpp ****     //get type of package
  28:Src/translator.cpp ****     uint8_t getType(uint8_t *package)
  29:Src/translator.cpp ****     {
  30:Src/translator.cpp ****         return ((package[0] & (~LEN_MASK)) >> 6);
  31:Src/translator.cpp ****     }
  32:Src/translator.cpp **** 
  33:Src/translator.cpp **** 
  34:Src/translator.cpp ****     //parse input package, get payload, return type of package
  35:Src/translator.cpp ****     uint8_t parsePacket(uint8_t *package, uint8_t *payloadto)
  36:Src/translator.cpp ****     {
  37:Src/translator.cpp ****         uint8_t type = getType(package);
  38:Src/translator.cpp ****         if(type != TYPE_ARR && type != TYPE_CMD && type != TYPE_VAR)
  39:Src/translator.cpp ****             return TYPE_BAD_TYPE;
  40:Src/translator.cpp **** 
  41:Src/translator.cpp ****         uint8_t len = getLen(package);
  42:Src/translator.cpp ****         if(len == 0)
  43:Src/translator.cpp ****             return TYPE_BAD_LEN;
  44:Src/translator.cpp **** 
  45:Src/translator.cpp ****         checksum_t checksum = (package[1] << 8) | package[2];
  46:Src/translator.cpp ****         if(genCheckSum(package) != checksum)
  47:Src/translator.cpp ****             return TYPE_BAD_CHECKSUM;
  48:Src/translator.cpp **** 
  49:Src/translator.cpp ****         package += 3;
  50:Src/translator.cpp ****         while(len > 0)
GAS LISTING /tmp/ccV5SczU.s 			page 2


  51:Src/translator.cpp ****         {
  52:Src/translator.cpp ****             *payloadto = *package;
  53:Src/translator.cpp ****             payloadto++;
  54:Src/translator.cpp ****             package++;
  55:Src/translator.cpp ****         }
  56:Src/translator.cpp ****         *payloadto = *package;
  57:Src/translator.cpp ****         return type;
  58:Src/translator.cpp ****     }
  59:Src/translator.cpp **** 
  60:Src/translator.cpp **** 
  61:Src/translator.cpp ****     //parse cmd from package, call funcArr[cmd], return type of package, max num of funcs - 255
  62:Src/translator.cpp ****     uint8_t parseCmd(uint8_t *package, void (*funcArr [])())
  63:Src/translator.cpp ****     {
  64:Src/translator.cpp ****         uint8_t var = getType(package);
  65:Src/translator.cpp ****         if(var != TYPE_CMD)
  66:Src/translator.cpp ****             return TYPE_BAD_TYPE;
  67:Src/translator.cpp **** 
  68:Src/translator.cpp ****         var = getLen(package);
  69:Src/translator.cpp ****         if(var != 1)
  70:Src/translator.cpp ****             return TYPE_BAD_LEN;
  71:Src/translator.cpp **** 
  72:Src/translator.cpp ****         checksum_t check = genCheckSum(package);
  73:Src/translator.cpp ****         if(check != ((package[1] << 8) | (package[2])))
  74:Src/translator.cpp ****             return TYPE_BAD_CHECKSUM;
  75:Src/translator.cpp **** 
  76:Src/translator.cpp ****         if(funcArr[package[3]] != NULL)
  77:Src/translator.cpp ****             funcArr[package[3]]();
  78:Src/translator.cpp ****         return TYPE_CMD;
  79:Src/translator.cpp ****     }
  80:Src/translator.cpp **** 
  81:Src/translator.cpp **** 
  82:Src/translator.cpp ****     //get payload from package to addr
  83:Src/translator.cpp ****     void getPayload(const uint8_t *package, uint8_t *to)
  84:Src/translator.cpp ****     {
  85:Src/translator.cpp ****         uint8_t len = getLen(package);
  86:Src/translator.cpp ****         for(uint8_t i = 0; i < len; i++)
  87:Src/translator.cpp ****         {
  88:Src/translator.cpp ****             to[i] = package[i + 3];
  89:Src/translator.cpp ****         }
  90:Src/translator.cpp ****     }
  91:Src/translator.cpp **** 
  92:Src/translator.cpp ****     //get len of payload
  93:Src/translator.cpp ****     uint8_t getLen(const uint8_t* package)
  94:Src/translator.cpp ****     {
  95:Src/translator.cpp ****         return package[0] & LEN_MASK;
  96:Src/translator.cpp ****     }
  97:Src/translator.cpp **** 
  98:Src/translator.cpp ****     bool equals(const uint8_t* p1, const uint8_t* p2)
  99:Src/translator.cpp ****     {
 100:Src/translator.cpp ****         if(p1[0] != p2[0])
 101:Src/translator.cpp ****             return false;
 102:Src/translator.cpp **** 
 103:Src/translator.cpp ****         uint8_t len = getLen(p1);
 104:Src/translator.cpp ****         for(uint8_t i = 0; i < len; i++)
 105:Src/translator.cpp ****         {
 106:Src/translator.cpp ****             if(p1[i] != p2[i])
 107:Src/translator.cpp ****                 return false;
GAS LISTING /tmp/ccV5SczU.s 			page 3


 108:Src/translator.cpp ****         }
 109:Src/translator.cpp ****         return true;
 110:Src/translator.cpp ****     }
 111:Src/translator.cpp **** }
   9              		.loc 1 111 1 view -0
  10              		.cfi_startproc
  11              		.loc 1 111 1 is_stmt 0 view .LVU1
  12 0000 83FF01   		cmpl	$1, %edi
  13 0003 7401     		je	.L7
  14              	.L4:
  15 0005 C3       		ret
  16              	.L7:
  17              		.loc 1 111 1 discriminator 1 view .LVU2
  18 0006 81FEFFFF 		cmpl	$65535, %esi
  18      0000
  19 000c 75F7     		jne	.L4
  20              		.loc 1 111 1 view .LVU3
  21 000e 4883EC08 		subq	$8, %rsp
  22              		.cfi_def_cfa_offset 16
  23              		.file 2 "/usr/include/c++/9.1.0/iostream"
   1:/usr/include/c++/9.1.0/iostream **** // Standard iostream objects -*- C++ -*-
   2:/usr/include/c++/9.1.0/iostream **** 
   3:/usr/include/c++/9.1.0/iostream **** // Copyright (C) 1997-2019 Free Software Foundation, Inc.
   4:/usr/include/c++/9.1.0/iostream **** //
   5:/usr/include/c++/9.1.0/iostream **** // This file is part of the GNU ISO C++ Library.  This library is free
   6:/usr/include/c++/9.1.0/iostream **** // software; you can redistribute it and/or modify it under the
   7:/usr/include/c++/9.1.0/iostream **** // terms of the GNU General Public License as published by the
   8:/usr/include/c++/9.1.0/iostream **** // Free Software Foundation; either version 3, or (at your option)
   9:/usr/include/c++/9.1.0/iostream **** // any later version.
  10:/usr/include/c++/9.1.0/iostream **** 
  11:/usr/include/c++/9.1.0/iostream **** // This library is distributed in the hope that it will be useful,
  12:/usr/include/c++/9.1.0/iostream **** // but WITHOUT ANY WARRANTY; without even the implied warranty of
  13:/usr/include/c++/9.1.0/iostream **** // MERCHANTABILITY or FITNESS FOR A PARTICULAR PURPOSE.  See the
  14:/usr/include/c++/9.1.0/iostream **** // GNU General Public License for more details.
  15:/usr/include/c++/9.1.0/iostream **** 
  16:/usr/include/c++/9.1.0/iostream **** // Under Section 7 of GPL version 3, you are granted additional
  17:/usr/include/c++/9.1.0/iostream **** // permissions described in the GCC Runtime Library Exception, version
  18:/usr/include/c++/9.1.0/iostream **** // 3.1, as published by the Free Software Foundation.
  19:/usr/include/c++/9.1.0/iostream **** 
  20:/usr/include/c++/9.1.0/iostream **** // You should have received a copy of the GNU General Public License and
  21:/usr/include/c++/9.1.0/iostream **** // a copy of the GCC Runtime Library Exception along with this program;
  22:/usr/include/c++/9.1.0/iostream **** // see the files COPYING3 and COPYING.RUNTIME respectively.  If not, see
  23:/usr/include/c++/9.1.0/iostream **** // <http://www.gnu.org/licenses/>.
  24:/usr/include/c++/9.1.0/iostream **** 
  25:/usr/include/c++/9.1.0/iostream **** /** @file include/iostream
  26:/usr/include/c++/9.1.0/iostream ****  *  This is a Standard C++ Library header.
  27:/usr/include/c++/9.1.0/iostream ****  */
  28:/usr/include/c++/9.1.0/iostream **** 
  29:/usr/include/c++/9.1.0/iostream **** //
  30:/usr/include/c++/9.1.0/iostream **** // ISO C++ 14882: 27.3  Standard iostream objects
  31:/usr/include/c++/9.1.0/iostream **** //
  32:/usr/include/c++/9.1.0/iostream **** 
  33:/usr/include/c++/9.1.0/iostream **** #ifndef _GLIBCXX_IOSTREAM
  34:/usr/include/c++/9.1.0/iostream **** #define _GLIBCXX_IOSTREAM 1
  35:/usr/include/c++/9.1.0/iostream **** 
  36:/usr/include/c++/9.1.0/iostream **** #pragma GCC system_header
  37:/usr/include/c++/9.1.0/iostream **** 
GAS LISTING /tmp/ccV5SczU.s 			page 4


  38:/usr/include/c++/9.1.0/iostream **** #include <bits/c++config.h>
  39:/usr/include/c++/9.1.0/iostream **** #include <ostream>
  40:/usr/include/c++/9.1.0/iostream **** #include <istream>
  41:/usr/include/c++/9.1.0/iostream **** 
  42:/usr/include/c++/9.1.0/iostream **** namespace std _GLIBCXX_VISIBILITY(default)
  43:/usr/include/c++/9.1.0/iostream **** {
  44:/usr/include/c++/9.1.0/iostream **** _GLIBCXX_BEGIN_NAMESPACE_VERSION
  45:/usr/include/c++/9.1.0/iostream **** 
  46:/usr/include/c++/9.1.0/iostream ****   /**
  47:/usr/include/c++/9.1.0/iostream ****    *  @name Standard Stream Objects
  48:/usr/include/c++/9.1.0/iostream ****    *
  49:/usr/include/c++/9.1.0/iostream ****    *  The &lt;iostream&gt; header declares the eight <em>standard stream
  50:/usr/include/c++/9.1.0/iostream ****    *  objects</em>.  For other declarations, see
  51:/usr/include/c++/9.1.0/iostream ****    *  http://gcc.gnu.org/onlinedocs/libstdc++/manual/io.html
  52:/usr/include/c++/9.1.0/iostream ****    *  and the @link iosfwd I/O forward declarations @endlink
  53:/usr/include/c++/9.1.0/iostream ****    *
  54:/usr/include/c++/9.1.0/iostream ****    *  They are required by default to cooperate with the global C
  55:/usr/include/c++/9.1.0/iostream ****    *  library's @c FILE streams, and to be available during program
  56:/usr/include/c++/9.1.0/iostream ****    *  startup and termination. For more information, see the section of the
  57:/usr/include/c++/9.1.0/iostream ****    *  manual linked to above.
  58:/usr/include/c++/9.1.0/iostream ****   */
  59:/usr/include/c++/9.1.0/iostream ****   //@{
  60:/usr/include/c++/9.1.0/iostream ****   extern istream cin;		/// Linked to standard input
  61:/usr/include/c++/9.1.0/iostream ****   extern ostream cout;		/// Linked to standard output
  62:/usr/include/c++/9.1.0/iostream ****   extern ostream cerr;		/// Linked to standard error (unbuffered)
  63:/usr/include/c++/9.1.0/iostream ****   extern ostream clog;		/// Linked to standard error (buffered)
  64:/usr/include/c++/9.1.0/iostream **** 
  65:/usr/include/c++/9.1.0/iostream **** #ifdef _GLIBCXX_USE_WCHAR_T
  66:/usr/include/c++/9.1.0/iostream ****   extern wistream wcin;		/// Linked to standard input
  67:/usr/include/c++/9.1.0/iostream ****   extern wostream wcout;	/// Linked to standard output
  68:/usr/include/c++/9.1.0/iostream ****   extern wostream wcerr;	/// Linked to standard error (unbuffered)
  69:/usr/include/c++/9.1.0/iostream ****   extern wostream wclog;	/// Linked to standard error (buffered)
  70:/usr/include/c++/9.1.0/iostream **** #endif
  71:/usr/include/c++/9.1.0/iostream ****   //@}
  72:/usr/include/c++/9.1.0/iostream **** 
  73:/usr/include/c++/9.1.0/iostream ****   // For construction of filebuffers for cout, cin, cerr, clog et. al.
  74:/usr/include/c++/9.1.0/iostream ****   static ios_base::Init __ioinit;
  24              		.loc 2 74 25 view .LVU4
  25 0012 488D3D00 		leaq	_ZStL8__ioinit(%rip), %rdi
  25      000000
  26              	.LVL1:
  27              		.loc 2 74 25 view .LVU5
  28 0019 E8000000 		call	_ZNSt8ios_base4InitC1Ev@PLT
  28      00
  29              	.LVL2:
  30              		.loc 2 74 25 view .LVU6
  31 001e 488D1500 		leaq	__dso_handle(%rip), %rdx
  31      000000
  32 0025 488D3500 		leaq	_ZStL8__ioinit(%rip), %rsi
  32      000000
  33 002c 488B3D00 		movq	_ZNSt8ios_base4InitD1Ev@GOTPCREL(%rip), %rdi
  33      000000
  34 0033 E8000000 		call	__cxa_atexit@PLT
  34      00
  35              	.LVL3:
  36              		.loc 1 111 1 view .LVU7
  37 0038 4883C408 		addq	$8, %rsp
GAS LISTING /tmp/ccV5SczU.s 			page 5


  38              		.cfi_def_cfa_offset 8
  39 003c C3       		ret
  40              		.cfi_endproc
  41              	.LFE1826:
  43              		.globl	_ZN10translator7getTypeEPh
  45              	_ZN10translator7getTypeEPh:
  46              	.LVL4:
  47              	.LFB1504:
  29:Src/translator.cpp ****         return ((package[0] & (~LEN_MASK)) >> 6);
  48              		.loc 1 29 5 is_stmt 1 view -0
  49              		.cfi_startproc
  30:Src/translator.cpp ****     }
  50              		.loc 1 30 9 view .LVU9
  30:Src/translator.cpp ****     }
  51              		.loc 1 30 27 is_stmt 0 view .LVU10
  52 003d 0FB607   		movzbl	(%rdi), %eax
  30:Src/translator.cpp ****     }
  53              		.loc 1 30 44 view .LVU11
  54 0040 C1F806   		sarl	$6, %eax
  31:Src/translator.cpp **** 
  55              		.loc 1 31 5 view .LVU12
  56 0043 C3       		ret
  57              		.cfi_endproc
  58              	.LFE1504:
  60              		.globl	_ZN10translator6getLenEPKh
  62              	_ZN10translator6getLenEPKh:
  63              	.LVL5:
  64              	.LFB1508:
  94:Src/translator.cpp ****         return package[0] & LEN_MASK;
  65              		.loc 1 94 5 is_stmt 1 view -0
  66              		.cfi_startproc
  95:Src/translator.cpp ****     }
  67              		.loc 1 95 9 view .LVU14
  95:Src/translator.cpp ****     }
  68              		.loc 1 95 27 is_stmt 0 view .LVU15
  69 0044 0FB607   		movzbl	(%rdi), %eax
  95:Src/translator.cpp ****     }
  70              		.loc 1 95 29 view .LVU16
  71 0047 83E03F   		andl	$63, %eax
  96:Src/translator.cpp **** 
  72              		.loc 1 96 5 view .LVU17
  73 004a C3       		ret
  74              		.cfi_endproc
  75              	.LFE1508:
  77              		.globl	_ZN10translator11genCheckSumEPKh
  79              	_ZN10translator11genCheckSumEPKh:
  80              	.LVL6:
  81              	.LFB1503:
  10:Src/translator.cpp ****         checksum_t ret = 0;
  82              		.loc 1 10 5 is_stmt 1 view -0
  83              		.cfi_startproc
  10:Src/translator.cpp ****         checksum_t ret = 0;
  84              		.loc 1 10 5 is_stmt 0 view .LVU19
  85 004b 53       		pushq	%rbx
  86              		.cfi_def_cfa_offset 16
  87              		.cfi_offset 3, -16
  88 004c 4889FB   		movq	%rdi, %rbx
GAS LISTING /tmp/ccV5SczU.s 			page 6


  11:Src/translator.cpp ****         uint8_t len = getLen(c);
  89              		.loc 1 11 9 is_stmt 1 view .LVU20
  90              	.LVL7:
  12:Src/translator.cpp ****         // cout << "len: " << (int)len << endl;
  91              		.loc 1 12 9 view .LVU21
  12:Src/translator.cpp ****         // cout << "len: " << (int)len << endl;
  92              		.loc 1 12 29 is_stmt 0 view .LVU22
  93 004f E8000000 		call	_ZN10translator6getLenEPKh
  93      00
  94              	.LVL8:
  12:Src/translator.cpp ****         // cout << "len: " << (int)len << endl;
  95              		.loc 1 12 29 view .LVU23
  96 0054 89C7     		movl	%eax, %edi
  97              	.LVL9:
  19:Src/translator.cpp ****         {
  98              		.loc 1 19 9 is_stmt 1 view .LVU24
  99              	.LBB2:
  19:Src/translator.cpp ****         {
 100              		.loc 1 19 21 is_stmt 0 view .LVU25
 101 0056 BA000000 		movl	$0, %edx
 101      00
 102              	.LBE2:
  11:Src/translator.cpp ****         uint8_t len = getLen(c);
 103              		.loc 1 11 20 view .LVU26
 104 005b B8000000 		movl	$0, %eax
 104      00
 105              	.LVL10:
 106              	.L12:
 107              	.LBB3:
  19:Src/translator.cpp ****         {
 108              		.loc 1 19 30 discriminator 3 view .LVU27
 109 0060 4038FA   		cmpb	%dil, %dl
 110 0063 731C     		jnb	.L10
  21:Src/translator.cpp ****             // cout << "\nAdding: " << (int)c[3 + i] << endl;
 111              		.loc 1 21 13 is_stmt 1 discriminator 2 view .LVU28
  21:Src/translator.cpp ****             // cout << "\nAdding: " << (int)c[3 + i] << endl;
 112              		.loc 1 21 27 is_stmt 0 discriminator 2 view .LVU29
 113 0065 0FB6CA   		movzbl	%dl, %ecx
  21:Src/translator.cpp ****             // cout << "\nAdding: " << (int)c[3 + i] << endl;
 114              		.loc 1 21 25 discriminator 2 view .LVU30
 115 0068 8D7103   		leal	3(%rcx), %esi
 116 006b 4863F6   		movslq	%esi, %rsi
  21:Src/translator.cpp ****             // cout << "\nAdding: " << (int)c[3 + i] << endl;
 117              		.loc 1 21 28 discriminator 2 view .LVU31
 118 006e 0FB63433 		movzbl	(%rbx,%rsi), %esi
  21:Src/translator.cpp ****             // cout << "\nAdding: " << (int)c[3 + i] << endl;
 119              		.loc 1 21 37 discriminator 2 view .LVU32
 120 0072 C1E103   		sall	$3, %ecx
 121 0075 83E108   		andl	$8, %ecx
  21:Src/translator.cpp ****             // cout << "\nAdding: " << (int)c[3 + i] << endl;
 122              		.loc 1 21 31 discriminator 2 view .LVU33
 123 0078 D3E6     		sall	%cl, %esi
  21:Src/translator.cpp ****             // cout << "\nAdding: " << (int)c[3 + i] << endl;
 124              		.loc 1 21 17 discriminator 2 view .LVU34
 125 007a 09F0     		orl	%esi, %eax
 126              	.LVL11:
  19:Src/translator.cpp ****         {
GAS LISTING /tmp/ccV5SczU.s 			page 7


 127              		.loc 1 19 9 discriminator 2 view .LVU35
 128 007c 83C201   		addl	$1, %edx
 129              	.LVL12:
  19:Src/translator.cpp ****         {
 130              		.loc 1 19 9 discriminator 2 view .LVU36
 131 007f EBDF     		jmp	.L12
 132              	.LVL13:
 133              	.L10:
  19:Src/translator.cpp ****         {
 134              		.loc 1 19 9 discriminator 2 view .LVU37
 135              	.LBE3:
  25:Src/translator.cpp **** 
 136              		.loc 1 25 5 view .LVU38
 137 0081 5B       		popq	%rbx
 138              		.cfi_def_cfa_offset 8
 139              	.LVL14:
  25:Src/translator.cpp **** 
 140              		.loc 1 25 5 view .LVU39
 141 0082 C3       		ret
 142              		.cfi_endproc
 143              	.LFE1503:
 145              		.globl	_ZN10translator11parsePacketEPhS0_
 147              	_ZN10translator11parsePacketEPhS0_:
 148              	.LVL15:
 149              	.LFB1505:
  36:Src/translator.cpp ****         uint8_t type = getType(package);
 150              		.loc 1 36 5 is_stmt 1 view -0
 151              		.cfi_startproc
  36:Src/translator.cpp ****         uint8_t type = getType(package);
 152              		.loc 1 36 5 is_stmt 0 view .LVU41
 153 0083 4154     		pushq	%r12
 154              		.cfi_def_cfa_offset 16
 155              		.cfi_offset 12, -16
 156 0085 55       		pushq	%rbp
 157              		.cfi_def_cfa_offset 24
 158              		.cfi_offset 6, -24
 159 0086 53       		pushq	%rbx
 160              		.cfi_def_cfa_offset 32
 161              		.cfi_offset 3, -32
 162 0087 4889FB   		movq	%rdi, %rbx
 163 008a 4889F5   		movq	%rsi, %rbp
  37:Src/translator.cpp ****         if(type != TYPE_ARR && type != TYPE_CMD && type != TYPE_VAR)
 164              		.loc 1 37 9 is_stmt 1 view .LVU42
  37:Src/translator.cpp ****         if(type != TYPE_ARR && type != TYPE_CMD && type != TYPE_VAR)
 165              		.loc 1 37 31 is_stmt 0 view .LVU43
 166 008d E8000000 		call	_ZN10translator7getTypeEPh
 166      00
 167              	.LVL16:
  38:Src/translator.cpp ****             return TYPE_BAD_TYPE;
 168              		.loc 1 38 9 is_stmt 1 view .LVU44
  38:Src/translator.cpp ****             return TYPE_BAD_TYPE;
 169              		.loc 1 38 17 is_stmt 0 view .LVU45
 170 0092 3C03     		cmpb	$3, %al
 171 0094 0F95C1   		setne	%cl
  38:Src/translator.cpp ****             return TYPE_BAD_TYPE;
 172              		.loc 1 38 37 view .LVU46
 173 0097 3C01     		cmpb	$1, %al
GAS LISTING /tmp/ccV5SczU.s 			page 8


 174 0099 0F95C2   		setne	%dl
  38:Src/translator.cpp ****             return TYPE_BAD_TYPE;
 175              		.loc 1 38 9 view .LVU47
 176 009c 84D1     		testb	%dl, %cl
 177 009e 7404     		je	.L15
  38:Src/translator.cpp ****             return TYPE_BAD_TYPE;
 178              		.loc 1 38 49 discriminator 1 view .LVU48
 179 00a0 3C02     		cmpb	$2, %al
 180 00a2 753E     		jne	.L18
 181              	.L15:
  41:Src/translator.cpp ****         if(len == 0)
 182              		.loc 1 41 9 is_stmt 1 view .LVU49
  41:Src/translator.cpp ****         if(len == 0)
 183              		.loc 1 41 29 is_stmt 0 view .LVU50
 184 00a4 4889DF   		movq	%rbx, %rdi
 185 00a7 E8000000 		call	_ZN10translator6getLenEPKh
 185      00
 186              	.LVL17:
  42:Src/translator.cpp ****             return TYPE_BAD_LEN;
 187              		.loc 1 42 9 is_stmt 1 view .LVU51
 188 00ac 84C0     		testb	%al, %al
 189 00ae 7439     		je	.L19
  45:Src/translator.cpp ****         if(genCheckSum(package) != checksum)
 190              		.loc 1 45 9 view .LVU52
  45:Src/translator.cpp ****         if(genCheckSum(package) != checksum)
 191              		.loc 1 45 41 is_stmt 0 view .LVU53
 192 00b0 0FB65301 		movzbl	1(%rbx), %edx
  45:Src/translator.cpp ****         if(genCheckSum(package) != checksum)
 193              		.loc 1 45 43 view .LVU54
 194 00b4 C1E208   		sall	$8, %edx
  45:Src/translator.cpp ****         if(genCheckSum(package) != checksum)
 195              		.loc 1 45 60 view .LVU55
 196 00b7 0FB64302 		movzbl	2(%rbx), %eax
 197              	.LVL18:
  45:Src/translator.cpp ****         if(genCheckSum(package) != checksum)
 198              		.loc 1 45 49 view .LVU56
 199 00bb 09D0     		orl	%edx, %eax
 200 00bd 4189C4   		movl	%eax, %r12d
 201              	.LVL19:
  46:Src/translator.cpp ****             return TYPE_BAD_CHECKSUM;
 202              		.loc 1 46 9 is_stmt 1 view .LVU57
  46:Src/translator.cpp ****             return TYPE_BAD_CHECKSUM;
 203              		.loc 1 46 23 is_stmt 0 view .LVU58
 204 00c0 4889DF   		movq	%rbx, %rdi
 205 00c3 E8000000 		call	_ZN10translator11genCheckSumEPKh
 205      00
 206              	.LVL20:
  46:Src/translator.cpp ****             return TYPE_BAD_CHECKSUM;
 207              		.loc 1 46 9 view .LVU59
 208 00c8 664139C4 		cmpw	%ax, %r12w
 209 00cc 7525     		jne	.L20
  49:Src/translator.cpp ****         while(len > 0)
 210              		.loc 1 49 9 is_stmt 1 view .LVU60
  49:Src/translator.cpp ****         while(len > 0)
 211              		.loc 1 49 17 is_stmt 0 view .LVU61
 212 00ce 488D4303 		leaq	3(%rbx), %rax
 213              	.LVL21:
GAS LISTING /tmp/ccV5SczU.s 			page 9


 214              	.L17:
  50:Src/translator.cpp ****         {
 215              		.loc 1 50 9 is_stmt 1 view .LVU62
  52:Src/translator.cpp ****             payloadto++;
 216              		.loc 1 52 13 view .LVU63
  52:Src/translator.cpp ****             payloadto++;
 217              		.loc 1 52 26 is_stmt 0 view .LVU64
 218 00d2 0FB610   		movzbl	(%rax), %edx
  52:Src/translator.cpp ****             payloadto++;
 219              		.loc 1 52 24 view .LVU65
 220 00d5 885500   		movb	%dl, 0(%rbp)
  53:Src/translator.cpp ****             package++;
 221              		.loc 1 53 13 is_stmt 1 view .LVU66
  53:Src/translator.cpp ****             package++;
 222              		.loc 1 53 22 is_stmt 0 view .LVU67
 223 00d8 4883C501 		addq	$1, %rbp
 224              	.LVL22:
  54:Src/translator.cpp ****         }
 225              		.loc 1 54 13 is_stmt 1 view .LVU68
  54:Src/translator.cpp ****         }
 226              		.loc 1 54 20 is_stmt 0 view .LVU69
 227 00dc 4883C001 		addq	$1, %rax
 228              	.LVL23:
  54:Src/translator.cpp ****         }
 229              		.loc 1 54 20 view .LVU70
 230 00e0 EBF0     		jmp	.L17
 231              	.LVL24:
 232              	.L18:
  39:Src/translator.cpp **** 
 233              		.loc 1 39 20 view .LVU71
 234 00e2 B8650000 		movl	$101, %eax
 234      00
 235              	.LVL25:
  39:Src/translator.cpp **** 
 236              		.loc 1 39 20 view .LVU72
 237 00e7 EB05     		jmp	.L14
 238              	.LVL26:
 239              	.L19:
  43:Src/translator.cpp **** 
 240              		.loc 1 43 20 view .LVU73
 241 00e9 B8640000 		movl	$100, %eax
 241      00
 242              	.LVL27:
 243              	.L14:
  58:Src/translator.cpp **** 
 244              		.loc 1 58 5 view .LVU74
 245 00ee 5B       		popq	%rbx
 246              		.cfi_remember_state
 247              		.cfi_def_cfa_offset 24
 248              	.LVL28:
  58:Src/translator.cpp **** 
 249              		.loc 1 58 5 view .LVU75
 250 00ef 5D       		popq	%rbp
 251              		.cfi_def_cfa_offset 16
 252              	.LVL29:
  58:Src/translator.cpp **** 
 253              		.loc 1 58 5 view .LVU76
GAS LISTING /tmp/ccV5SczU.s 			page 10


 254 00f0 415C     		popq	%r12
 255              		.cfi_def_cfa_offset 8
 256 00f2 C3       		ret
 257              	.LVL30:
 258              	.L20:
 259              		.cfi_restore_state
  47:Src/translator.cpp **** 
 260              		.loc 1 47 20 view .LVU77
 261 00f3 B8660000 		movl	$102, %eax
 261      00
 262 00f8 EBF4     		jmp	.L14
 263              		.cfi_endproc
 264              	.LFE1505:
 266              		.globl	_ZN10translator8parseCmdEPhPPFvvE
 268              	_ZN10translator8parseCmdEPhPPFvvE:
 269              	.LVL31:
 270              	.LFB1506:
  63:Src/translator.cpp ****         uint8_t var = getType(package);
 271              		.loc 1 63 5 is_stmt 1 view -0
 272              		.cfi_startproc
  63:Src/translator.cpp ****         uint8_t var = getType(package);
 273              		.loc 1 63 5 is_stmt 0 view .LVU79
 274 00fa 4154     		pushq	%r12
 275              		.cfi_def_cfa_offset 16
 276              		.cfi_offset 12, -16
 277 00fc 55       		pushq	%rbp
 278              		.cfi_def_cfa_offset 24
 279              		.cfi_offset 6, -24
 280 00fd 53       		pushq	%rbx
 281              		.cfi_def_cfa_offset 32
 282              		.cfi_offset 3, -32
 283 00fe 4889FB   		movq	%rdi, %rbx
 284 0101 4989F4   		movq	%rsi, %r12
  64:Src/translator.cpp ****         if(var != TYPE_CMD)
 285              		.loc 1 64 9 is_stmt 1 view .LVU80
  64:Src/translator.cpp ****         if(var != TYPE_CMD)
 286              		.loc 1 64 30 is_stmt 0 view .LVU81
 287 0104 E8000000 		call	_ZN10translator7getTypeEPh
 287      00
 288              	.LVL32:
  65:Src/translator.cpp ****             return TYPE_BAD_TYPE;
 289              		.loc 1 65 9 is_stmt 1 view .LVU82
 290 0109 3C01     		cmpb	$1, %al
 291 010b 753B     		jne	.L24
  68:Src/translator.cpp ****         if(var != 1)
 292              		.loc 1 68 9 view .LVU83
  68:Src/translator.cpp ****         if(var != 1)
 293              		.loc 1 68 21 is_stmt 0 view .LVU84
 294 010d 4889DF   		movq	%rbx, %rdi
 295 0110 E8000000 		call	_ZN10translator6getLenEPKh
 295      00
 296              	.LVL33:
  68:Src/translator.cpp ****         if(var != 1)
 297              		.loc 1 68 21 view .LVU85
 298 0115 89C5     		movl	%eax, %ebp
 299              	.LVL34:
  69:Src/translator.cpp ****             return TYPE_BAD_LEN;
GAS LISTING /tmp/ccV5SczU.s 			page 11


 300              		.loc 1 69 9 is_stmt 1 view .LVU86
 301 0117 3C01     		cmpb	$1, %al
 302 0119 7539     		jne	.L25
  72:Src/translator.cpp ****         if(check != ((package[1] << 8) | (package[2])))
 303              		.loc 1 72 9 view .LVU87
  72:Src/translator.cpp ****         if(check != ((package[1] << 8) | (package[2])))
 304              		.loc 1 72 39 is_stmt 0 view .LVU88
 305 011b 4889DF   		movq	%rbx, %rdi
 306 011e E8000000 		call	_ZN10translator11genCheckSumEPKh
 306      00
 307              	.LVL35:
  73:Src/translator.cpp ****             return TYPE_BAD_CHECKSUM;
 308              		.loc 1 73 9 is_stmt 1 view .LVU89
  73:Src/translator.cpp ****             return TYPE_BAD_CHECKSUM;
 309              		.loc 1 73 12 is_stmt 0 view .LVU90
 310 0123 0FB7C0   		movzwl	%ax, %eax
  73:Src/translator.cpp ****             return TYPE_BAD_CHECKSUM;
 311              		.loc 1 73 32 view .LVU91
 312 0126 0FB65301 		movzbl	1(%rbx), %edx
  73:Src/translator.cpp ****             return TYPE_BAD_CHECKSUM;
 313              		.loc 1 73 34 view .LVU92
 314 012a C1E208   		sall	$8, %edx
  73:Src/translator.cpp ****             return TYPE_BAD_CHECKSUM;
 315              		.loc 1 73 52 view .LVU93
 316 012d 0FB64B02 		movzbl	2(%rbx), %ecx
  73:Src/translator.cpp ****             return TYPE_BAD_CHECKSUM;
 317              		.loc 1 73 40 view .LVU94
 318 0131 09CA     		orl	%ecx, %edx
  73:Src/translator.cpp ****             return TYPE_BAD_CHECKSUM;
 319              		.loc 1 73 9 view .LVU95
 320 0133 39D0     		cmpl	%edx, %eax
 321 0135 7524     		jne	.L26
  76:Src/translator.cpp ****             funcArr[package[3]]();
 322              		.loc 1 76 9 is_stmt 1 view .LVU96
  76:Src/translator.cpp ****             funcArr[package[3]]();
 323              		.loc 1 76 29 is_stmt 0 view .LVU97
 324 0137 0FB64303 		movzbl	3(%rbx), %eax
 325              	.LVL36:
  76:Src/translator.cpp ****             funcArr[package[3]]();
 326              		.loc 1 76 30 view .LVU98
 327 013b 498B04C4 		movq	(%r12,%rax,8), %rax
  76:Src/translator.cpp ****             funcArr[package[3]]();
 328              		.loc 1 76 9 view .LVU99
 329 013f 4885C0   		testq	%rax, %rax
 330 0142 7409     		je	.L22
  77:Src/translator.cpp ****         return TYPE_CMD;
 331              		.loc 1 77 13 is_stmt 1 view .LVU100
  77:Src/translator.cpp ****         return TYPE_CMD;
 332              		.loc 1 77 32 is_stmt 0 view .LVU101
 333 0144 FFD0     		call	*%rax
 334              	.LVL37:
 335 0146 EB05     		jmp	.L22
 336              	.LVL38:
 337              	.L24:
  66:Src/translator.cpp **** 
 338              		.loc 1 66 20 view .LVU102
 339 0148 BD650000 		movl	$101, %ebp
GAS LISTING /tmp/ccV5SczU.s 			page 12


 339      00
 340              	.LVL39:
 341              	.L22:
  79:Src/translator.cpp **** 
 342              		.loc 1 79 5 view .LVU103
 343 014d 89E8     		movl	%ebp, %eax
 344 014f 5B       		popq	%rbx
 345              		.cfi_remember_state
 346              		.cfi_def_cfa_offset 24
 347              	.LVL40:
  79:Src/translator.cpp **** 
 348              		.loc 1 79 5 view .LVU104
 349 0150 5D       		popq	%rbp
 350              		.cfi_def_cfa_offset 16
 351 0151 415C     		popq	%r12
 352              		.cfi_def_cfa_offset 8
 353              	.LVL41:
  79:Src/translator.cpp **** 
 354              		.loc 1 79 5 view .LVU105
 355 0153 C3       		ret
 356              	.LVL42:
 357              	.L25:
 358              		.cfi_restore_state
  70:Src/translator.cpp **** 
 359              		.loc 1 70 20 view .LVU106
 360 0154 BD640000 		movl	$100, %ebp
 360      00
 361 0159 EBF2     		jmp	.L22
 362              	.LVL43:
 363              	.L26:
  74:Src/translator.cpp **** 
 364              		.loc 1 74 20 view .LVU107
 365 015b BD660000 		movl	$102, %ebp
 365      00
 366              	.LVL44:
  74:Src/translator.cpp **** 
 367              		.loc 1 74 20 view .LVU108
 368 0160 EBEB     		jmp	.L22
 369              		.cfi_endproc
 370              	.LFE1506:
 372              		.globl	_ZN10translator10getPayloadEPKhPh
 374              	_ZN10translator10getPayloadEPKhPh:
 375              	.LVL45:
 376              	.LFB1507:
  84:Src/translator.cpp ****         uint8_t len = getLen(package);
 377              		.loc 1 84 5 is_stmt 1 view -0
 378              		.cfi_startproc
  84:Src/translator.cpp ****         uint8_t len = getLen(package);
 379              		.loc 1 84 5 is_stmt 0 view .LVU110
 380 0162 55       		pushq	%rbp
 381              		.cfi_def_cfa_offset 16
 382              		.cfi_offset 6, -16
 383 0163 53       		pushq	%rbx
 384              		.cfi_def_cfa_offset 24
 385              		.cfi_offset 3, -24
 386 0164 4889FB   		movq	%rdi, %rbx
 387 0167 4889F5   		movq	%rsi, %rbp
GAS LISTING /tmp/ccV5SczU.s 			page 13


  85:Src/translator.cpp ****         for(uint8_t i = 0; i < len; i++)
 388              		.loc 1 85 9 is_stmt 1 view .LVU111
  85:Src/translator.cpp ****         for(uint8_t i = 0; i < len; i++)
 389              		.loc 1 85 29 is_stmt 0 view .LVU112
 390 016a E8000000 		call	_ZN10translator6getLenEPKh
 390      00
 391              	.LVL46:
  86:Src/translator.cpp ****         {
 392              		.loc 1 86 9 is_stmt 1 view .LVU113
 393              	.LBB4:
  86:Src/translator.cpp ****         {
 394              		.loc 1 86 21 is_stmt 0 view .LVU114
 395 016f BA000000 		movl	$0, %edx
 395      00
 396              	.LVL47:
 397              	.L30:
  86:Src/translator.cpp ****         {
 398              		.loc 1 86 30 discriminator 3 view .LVU115
 399 0174 38C2     		cmpb	%al, %dl
 400 0176 7312     		jnb	.L28
  88:Src/translator.cpp ****         }
 401              		.loc 1 88 13 is_stmt 1 discriminator 2 view .LVU116
  88:Src/translator.cpp ****         }
 402              		.loc 1 88 29 is_stmt 0 discriminator 2 view .LVU117
 403 0178 0FB6CA   		movzbl	%dl, %ecx
  88:Src/translator.cpp ****         }
 404              		.loc 1 88 34 discriminator 2 view .LVU118
 405 017b 0FB6740B 		movzbl	3(%rbx,%rcx), %esi
 405      03
  88:Src/translator.cpp ****         }
 406              		.loc 1 88 19 discriminator 2 view .LVU119
 407 0180 4088740D 		movb	%sil, 0(%rbp,%rcx)
 407      00
  86:Src/translator.cpp ****         {
 408              		.loc 1 86 9 discriminator 2 view .LVU120
 409 0185 83C201   		addl	$1, %edx
 410              	.LVL48:
  86:Src/translator.cpp ****         {
 411              		.loc 1 86 9 discriminator 2 view .LVU121
 412 0188 EBEA     		jmp	.L30
 413              	.L28:
  86:Src/translator.cpp ****         {
 414              		.loc 1 86 9 discriminator 2 view .LVU122
 415              	.LBE4:
  90:Src/translator.cpp **** 
 416              		.loc 1 90 5 view .LVU123
 417 018a 5B       		popq	%rbx
 418              		.cfi_def_cfa_offset 16
 419              	.LVL49:
  90:Src/translator.cpp **** 
 420              		.loc 1 90 5 view .LVU124
 421 018b 5D       		popq	%rbp
 422              		.cfi_def_cfa_offset 8
 423              	.LVL50:
  90:Src/translator.cpp **** 
 424              		.loc 1 90 5 view .LVU125
 425 018c C3       		ret
GAS LISTING /tmp/ccV5SczU.s 			page 14


 426              		.cfi_endproc
 427              	.LFE1507:
 429              		.globl	_ZN10translator6equalsEPKhS1_
 431              	_ZN10translator6equalsEPKhS1_:
 432              	.LVL51:
 433              	.LFB1509:
  99:Src/translator.cpp ****         if(p1[0] != p2[0])
 434              		.loc 1 99 5 is_stmt 1 view -0
 435              		.cfi_startproc
 100:Src/translator.cpp ****             return false;
 436              		.loc 1 100 9 view .LVU127
 437 018d 0FB606   		movzbl	(%rsi), %eax
 438 0190 3807     		cmpb	%al, (%rdi)
 439 0192 7529     		jne	.L35
  99:Src/translator.cpp ****         if(p1[0] != p2[0])
 440              		.loc 1 99 5 is_stmt 0 view .LVU128
 441 0194 55       		pushq	%rbp
 442              		.cfi_def_cfa_offset 16
 443              		.cfi_offset 6, -16
 444 0195 53       		pushq	%rbx
 445              		.cfi_def_cfa_offset 24
 446              		.cfi_offset 3, -24
 447 0196 4889FB   		movq	%rdi, %rbx
 448 0199 4889F5   		movq	%rsi, %rbp
 103:Src/translator.cpp ****         for(uint8_t i = 0; i < len; i++)
 449              		.loc 1 103 9 is_stmt 1 view .LVU129
 103:Src/translator.cpp ****         for(uint8_t i = 0; i < len; i++)
 450              		.loc 1 103 29 is_stmt 0 view .LVU130
 451 019c E8000000 		call	_ZN10translator6getLenEPKh
 451      00
 452              	.LVL52:
 104:Src/translator.cpp ****         {
 453              		.loc 1 104 9 is_stmt 1 view .LVU131
 454              	.LBB5:
 104:Src/translator.cpp ****         {
 455              		.loc 1 104 21 is_stmt 0 view .LVU132
 456 01a1 BA000000 		movl	$0, %edx
 456      00
 457              	.LVL53:
 458              	.L34:
 104:Src/translator.cpp ****         {
 459              		.loc 1 104 30 discriminator 1 view .LVU133
 460 01a6 38C2     		cmpb	%al, %dl
 461 01a8 7319     		jnb	.L36
 106:Src/translator.cpp ****                 return false;
 462              		.loc 1 106 13 is_stmt 1 view .LVU134
 106:Src/translator.cpp ****                 return false;
 463              		.loc 1 106 19 is_stmt 0 view .LVU135
 464 01aa 0FB6CA   		movzbl	%dl, %ecx
 106:Src/translator.cpp ****                 return false;
 465              		.loc 1 106 13 view .LVU136
 466 01ad 0FB6740D 		movzbl	0(%rbp,%rcx), %esi
 466      00
 467 01b2 4038340B 		cmpb	%sil, (%rbx,%rcx)
 468 01b6 7513     		jne	.L37
 104:Src/translator.cpp ****         {
 469              		.loc 1 104 9 discriminator 2 view .LVU137
GAS LISTING /tmp/ccV5SczU.s 			page 15


 470 01b8 83C201   		addl	$1, %edx
 471              	.LVL54:
 104:Src/translator.cpp ****         {
 472              		.loc 1 104 9 discriminator 2 view .LVU138
 473 01bb EBE9     		jmp	.L34
 474              	.LVL55:
 475              	.L35:
 476              		.cfi_def_cfa_offset 8
 477              		.cfi_restore 3
 478              		.cfi_restore 6
 104:Src/translator.cpp ****         {
 479              		.loc 1 104 9 discriminator 2 view .LVU139
 480              	.LBE5:
 101:Src/translator.cpp **** 
 481              		.loc 1 101 20 view .LVU140
 482 01bd B8000000 		movl	$0, %eax
 482      00
 110:Src/translator.cpp **** }
 483              		.loc 1 110 5 view .LVU141
 484 01c2 C3       		ret
 485              	.LVL56:
 486              	.L36:
 487              		.cfi_def_cfa_offset 24
 488              		.cfi_offset 3, -24
 489              		.cfi_offset 6, -16
 109:Src/translator.cpp ****     }
 490              		.loc 1 109 16 view .LVU142
 491 01c3 B8010000 		movl	$1, %eax
 491      00
 492              	.LVL57:
 493              	.L32:
 110:Src/translator.cpp **** }
 494              		.loc 1 110 5 view .LVU143
 495 01c8 5B       		popq	%rbx
 496              		.cfi_remember_state
 497              		.cfi_def_cfa_offset 16
 498              	.LVL58:
 110:Src/translator.cpp **** }
 499              		.loc 1 110 5 view .LVU144
 500 01c9 5D       		popq	%rbp
 501              		.cfi_def_cfa_offset 8
 502              	.LVL59:
 110:Src/translator.cpp **** }
 503              		.loc 1 110 5 view .LVU145
 504 01ca C3       		ret
 505              	.LVL60:
 506              	.L37:
 507              		.cfi_restore_state
 508              	.LBB6:
 107:Src/translator.cpp ****         }
 509              		.loc 1 107 24 view .LVU146
 510 01cb B8000000 		movl	$0, %eax
 510      00
 511              	.LVL61:
 107:Src/translator.cpp ****         }
 512              		.loc 1 107 24 view .LVU147
 513 01d0 EBF6     		jmp	.L32
GAS LISTING /tmp/ccV5SczU.s 			page 16


 514              	.LBE6:
 515              		.cfi_endproc
 516              	.LFE1509:
 519              	_GLOBAL__sub_I__ZN10translator11genCheckSumEPKh:
 520              	.LFB1827:
 521              		.loc 1 111 1 is_stmt 1 view -0
 522              		.cfi_startproc
 523 01d2 4883EC08 		subq	$8, %rsp
 524              		.cfi_def_cfa_offset 16
 525              		.loc 1 111 1 is_stmt 0 view .LVU149
 526 01d6 BEFFFF00 		movl	$65535, %esi
 526      00
 527 01db BF010000 		movl	$1, %edi
 527      00
 528 01e0 E81BFEFF 		call	_Z41__static_initialization_and_destruction_0ii
 528      FF
 529              	.LVL62:
 530 01e5 4883C408 		addq	$8, %rsp
 531              		.cfi_def_cfa_offset 8
 532 01e9 C3       		ret
 533              		.cfi_endproc
 534              	.LFE1827:
 536              		.section	.init_array,"aw"
 537              		.align 8
 538 0000 00000000 		.quad	_GLOBAL__sub_I__ZN10translator11genCheckSumEPKh
 538      00000000 
 539              		.local	_ZStL8__ioinit
 540              		.comm	_ZStL8__ioinit,1,1
 541              		.text
 542              	.Letext0:
 543              		.file 3 "/usr/include/c++/9.1.0/cwchar"
 544              		.file 4 "/usr/include/c++/9.1.0/new"
 545              		.file 5 "/usr/include/c++/9.1.0/bits/exception_ptr.h"
 546              		.file 6 "/usr/include/c++/9.1.0/type_traits"
 547              		.file 7 "/usr/include/c++/9.1.0/x86_64-pc-linux-gnu/bits/c++config.h"
 548              		.file 8 "/usr/include/c++/9.1.0/bits/stl_pair.h"
 549              		.file 9 "/usr/include/c++/9.1.0/debug/debug.h"
 550              		.file 10 "/usr/include/c++/9.1.0/bits/char_traits.h"
 551              		.file 11 "/usr/include/c++/9.1.0/cstdint"
 552              		.file 12 "/usr/include/c++/9.1.0/clocale"
 553              		.file 13 "/usr/include/c++/9.1.0/cstdlib"
 554              		.file 14 "/usr/include/c++/9.1.0/cstdio"
 555              		.file 15 "/usr/include/c++/9.1.0/system_error"
 556              		.file 16 "/usr/include/c++/9.1.0/bits/ios_base.h"
 557              		.file 17 "/usr/include/c++/9.1.0/cwctype"
 558              		.file 18 "/usr/include/c++/9.1.0/iosfwd"
 559              		.file 19 "/usr/include/c++/9.1.0/bits/predefined_ops.h"
 560              		.file 20 "/usr/include/c++/9.1.0/ext/new_allocator.h"
 561              		.file 21 "/usr/include/c++/9.1.0/ext/numeric_traits.h"
 562              		.file 22 "/usr/lib/gcc/x86_64-pc-linux-gnu/9.1.0/include/stddef.h"
 563              		.file 23 "<built-in>"
 564              		.file 24 "/usr/include/bits/types/wint_t.h"
 565              		.file 25 "/usr/include/bits/types/__mbstate_t.h"
 566              		.file 26 "/usr/include/bits/types/mbstate_t.h"
 567              		.file 27 "/usr/include/bits/types/__FILE.h"
 568              		.file 28 "/usr/include/bits/types/struct_FILE.h"
 569              		.file 29 "/usr/include/bits/types/FILE.h"
GAS LISTING /tmp/ccV5SczU.s 			page 17


 570              		.file 30 "/usr/include/wchar.h"
 571              		.file 31 "/usr/include/bits/types/struct_tm.h"
 572              		.file 32 "/usr/include/bits/types.h"
 573              		.file 33 "/usr/include/bits/stdint-intn.h"
 574              		.file 34 "/usr/include/bits/stdint-uintn.h"
 575              		.file 35 "/usr/include/stdint.h"
 576              		.file 36 "/usr/include/locale.h"
 577              		.file 37 "/usr/include/time.h"
 578              		.file 38 "/usr/include/c++/9.1.0/x86_64-pc-linux-gnu/bits/atomic_word.h"
 579              		.file 39 "/usr/include/stdlib.h"
 580              		.file 40 "/usr/include/bits/stdlib-float.h"
 581              		.file 41 "/usr/include/bits/stdlib-bsearch.h"
 582              		.file 42 "/usr/include/bits/types/__fpos_t.h"
 583              		.file 43 "/usr/include/stdio.h"
 584              		.file 44 "/usr/include/bits/sys_errlist.h"
 585              		.file 45 "/usr/include/bits/stdio.h"
 586              		.file 46 "/usr/include/errno.h"
 587              		.file 47 "/usr/include/bits/wctype-wchar.h"
 588              		.file 48 "/usr/include/wctype.h"
 589              		.file 49 "Inc/translator.hpp"
GAS LISTING /tmp/ccV5SczU.s 			page 18


DEFINED SYMBOLS
                            *ABS*:0000000000000000 translator.cpp
     /tmp/ccV5SczU.s:5      .text:0000000000000000 _Z41__static_initialization_and_destruction_0ii
                             .bss:0000000000000000 _ZStL8__ioinit
     /tmp/ccV5SczU.s:45     .text:000000000000003d _ZN10translator7getTypeEPh
     /tmp/ccV5SczU.s:62     .text:0000000000000044 _ZN10translator6getLenEPKh
     /tmp/ccV5SczU.s:79     .text:000000000000004b _ZN10translator11genCheckSumEPKh
     /tmp/ccV5SczU.s:147    .text:0000000000000083 _ZN10translator11parsePacketEPhS0_
     /tmp/ccV5SczU.s:268    .text:00000000000000fa _ZN10translator8parseCmdEPhPPFvvE
     /tmp/ccV5SczU.s:374    .text:0000000000000162 _ZN10translator10getPayloadEPKhPh
     /tmp/ccV5SczU.s:431    .text:000000000000018d _ZN10translator6equalsEPKhS1_
     /tmp/ccV5SczU.s:519    .text:00000000000001d2 _GLOBAL__sub_I__ZN10translator11genCheckSumEPKh

UNDEFINED SYMBOLS
_GLOBAL_OFFSET_TABLE_
_ZNSt8ios_base4InitC1Ev
__dso_handle
_ZNSt8ios_base4InitD1Ev
__cxa_atexit
